 CourseworkBase2020

 Timestamp is 60a45f57 (Wed May 19 01:44:07 2021)

 Preferred load address is 00400000

 Start         Length     Name                   Class
 0001:00000000 0000d2f0H .text$di                CODE
 0001:0000d2f0 0006e0c0H .text$mn                CODE
 0001:0007b3b0 00007e40H .text$x                 CODE
 0001:000831f0 00001012H .text$yd                CODE
 0002:00000000 00000104H .CRT$XCA                DATA
 0002:00000104 00000104H .CRT$XCAA               DATA
 0002:00000208 00000104H .CRT$XCL                DATA
 0002:0000030c 0000010cH .CRT$XCU                DATA
 0002:00000418 00000104H .CRT$XCZ                DATA
 0002:0000051c 00000104H .CRT$XIA                DATA
 0002:00000620 00000104H .CRT$XIAA               DATA
 0002:00000724 00000104H .CRT$XIAC               DATA
 0002:00000828 00000104H .CRT$XIZ                DATA
 0002:0000092c 00000104H .CRT$XPA                DATA
 0002:00000a30 00000104H .CRT$XPZ                DATA
 0002:00000b34 00000104H .CRT$XTA                DATA
 0002:00000c38 00000108H .CRT$XTZ                DATA
 0002:00000d40 00020e78H .rdata                  DATA
 0002:00021bb8 0000264cH .rdata$r                DATA
 0002:00024204 000008d8H .rdata$sxdata           DATA
 0002:00024adc 00000194H .rdata$zzzdbg           DATA
 0002:00024c70 00000104H .rtc$IAA                DATA
 0002:00024d74 00000104H .rtc$IZZ                DATA
 0002:00024e78 00000104H .rtc$TAA                DATA
 0002:00024f7c 00000104H .rtc$TZZ                DATA
 0002:00025080 000063ccH .xdata$x                DATA
 0002:0002b44c 00000000H .edata                  DATA
 0003:00000000 000001c4H .data                   DATA
 0003:000001c4 0000109cH .data$r                 DATA
 0003:00001260 000004e0H .bss                    DATA
 0004:00000000 000004f0H .idata$5                DATA
 0004:000004f0 0000008cH .idata$2                DATA
 0004:0000057c 00000014H .idata$3                DATA
 0004:00000590 000004f0H .idata$4                DATA
 0004:00000a80 00001c56H .idata$6                DATA
 0005:00000000 00000109H .00cfg                  DATA
 0006:00000000 00000170H .rsrc$01                DATA
 0006:00000170 000002ccH .rsrc$02                DATA

  Address         Publics by Value              Rva+Base       Lib:Object

 0000:00000000       ___guard_eh_cont_count     00000000     <absolute>
 0000:00000000       ___guard_eh_cont_table     00000000     <absolute>
 0000:00000000       ___volatile_metadata       00000000     <absolute>
 0000:00000000       ___guard_fids_table        00000000     <absolute>
 0000:00000000       ___arm64x_native_entrypoint 00000000     <absolute>
 0000:00000000       ___hybrid_auxiliary_iat    00000000     <absolute>
 0000:00000000       ___arm64x_redirection_metadata_count 00000000     <absolute>
 0000:00000000       ___hybrid_code_map         00000000     <absolute>
 0000:00000000       ___guard_longjmp_table     00000000     <absolute>
 0000:00000000       ___hybrid_code_map_count   00000000     <absolute>
 0000:00000000       ___x64_code_ranges_to_entry_points_count 00000000     <absolute>
 0000:00000000       ___AbsoluteZero            00000000     <absolute>
 0000:00000000       ___guard_longjmp_count     00000000     <absolute>
 0000:00000000       ___guard_iat_table         00000000     <absolute>
 0000:00000000       ___arm64x_extra_rfe_table_size 00000000     <absolute>
 0000:00000000       ___guard_iat_count         00000000     <absolute>
 0000:00000000       ___arm64x_extra_rfe_table  00000000     <absolute>
 0000:00000000       ___enclave_config          00000000     <absolute>
 0000:00000000       ___x64_code_ranges_to_entry_points 00000000     <absolute>
 0000:00000000       ___arm64x_redirection_metadata 00000000     <absolute>
 0000:00000000       ___guard_fids_count        00000000     <absolute>
 0000:00000000       ___dynamic_value_reloc_table 00000000     <absolute>
 0000:00000100       ___guard_flags             00000100     <absolute>
 0000:000001a2       ___safe_se_handler_count   000001a2     <absolute>
 0000:00000000       ___ImageBase               00400000     <linker-defined>
 0001:0000d2f0       ??0Animation@@QAE@H@Z      0040e2f0 f   Animation.obj
 0001:0000d330       ?addFrame@Animation@@QAEXVSimpleImage@@@Z 0040e330 f   Animation.obj
 0001:0000d390       ?updateFrame@Animation@@QAE_NXZ 0040e390 f   Animation.obj
 0001:0000d420       ?incrementFrame@Animation@@QAEXXZ 0040e420 f   Animation.obj
 0001:0000d450       ?reset@Animation@@QAEXXZ   0040e450 f   Animation.obj
 0001:0000d470       ?getCurrentFrame@Animation@@QBEABVSimpleImage@@XZ 0040e470 f   Animation.obj
 0001:0000d500       ??$?0$$V@?$_Compressed_pair@V?$allocator@VSimpleImage@@@std@@V?$_Vector_val@U?$_Simple_types@VSimpleImage@@@std@@@2@$00@std@@QAE@U_Zero_then_variadic_args_t@1@@Z 0040e500 f i Animation.obj
 0001:0000d530       ??$?0VSimpleImage@@@?$allocator@U_Container_proxy@std@@@std@@QAE@ABV?$allocator@VSimpleImage@@@1@@Z 0040e530 f i Animation.obj
 0001:0000d550       ??$_Alloc_proxy@V?$allocator@U_Container_proxy@std@@@std@@@_Container_base12@std@@QAEX$$QAV?$allocator@U_Container_proxy@std@@@1@@Z 0040e550 f i Animation.obj
 0001:0000d5b0       ??$_Allocate@$07U_Default_allocate_traits@std@@$0A@@std@@YAPAXI@Z 0040e5b0 f i Animation.obj
 0001:0000d5f0       ??$_Allocate_manually_vector_aligned@U_Default_allocate_traits@std@@@std@@YAPAXI@Z 0040e5f0 f i Animation.obj
 0001:0000d6d0       ??$_Construct_in_place@U_Container_proxy@std@@PAU_Container_base12@2@@std@@YAXAAU_Container_proxy@0@$$QAPAU_Container_base12@0@@Z 0040e6d0 f i Animation.obj
 0001:0000d720       ??$_Copy_construct_from@VRawImageData@@@?$_Ptr_base@VRawImageData@@@std@@IAEXABV?$shared_ptr@VRawImageData@@@1@@Z 0040e720 f i Animation.obj
 0001:0000d760       ??$_Deallocate@$07$0A@@std@@YAXPAXI@Z 0040e760 f i Animation.obj
 0001:0000d7e0       ??$_Destroy_range@V?$allocator@VSimpleImage@@@std@@@std@@YAXPAVSimpleImage@@QAV1@AAV?$allocator@VSimpleImage@@@0@@Z 0040e7e0 f i Animation.obj
 0001:0000d860       ??$_Emplace_back@VSimpleImage@@@?$_Uninitialized_backout_al@V?$allocator@VSimpleImage@@@std@@@std@@QAEX$$QAVSimpleImage@@@Z 0040e860 f i Animation.obj
 0001:0000d8c0       ??$_Emplace_back_with_unused_capacity@ABVSimpleImage@@@?$vector@VSimpleImage@@V?$allocator@VSimpleImage@@@std@@@std@@AAE@ABVSimpleImage@@@Z 0040e8c0 f i Animation.obj
 0001:0000d960       ??$_Emplace_reallocate@ABVSimpleImage@@@?$vector@VSimpleImage@@V?$allocator@VSimpleImage@@@std@@@std@@QAEPAVSimpleImage@@QAV2@ABV2@@Z 0040e960 f i Animation.obj
 0001:0000dbb0       ??$_Get_size_of_n@$07@std@@YAII@Z 0040ebb0 f i Animation.obj
 0001:0000dbf0       ??$_Get_size_of_n@$0BA@@std@@YAII@Z 0040ebf0 f i Animation.obj
 0001:0000dc30       ??$_Get_unwrapped@ABQAVSimpleImage@@@std@@YA@ABQAVSimpleImage@@@Z 0040ec30 f i Animation.obj
 0001:0000dc40       ??$_Getvals@_W@?$time_get@DV?$istreambuf_iterator@DU?$char_traits@D@std@@@std@@@std@@IAEX_WABV_Locinfo@1@@Z 0040ec40 f i Animation.obj
 0001:0000dd70       ??$_Getvals@_W@?$time_get@_WV?$istreambuf_iterator@_WU?$char_traits@_W@std@@@std@@@std@@IAEX_WABV_Locinfo@1@@Z 0040ed70 f i Animation.obj
 0001:0000dea0       ??$_Maklocstr@D@std@@YAPADPBDPADABU_Cvtvec@@@Z 0040eea0 f i Animation.obj
 0001:0000df40       ??$_Maklocstr@_W@std@@YAPA_WPBDPA_WABU_Cvtvec@@@Z 0040ef40 f i Animation.obj
 0001:0000e0b0       ??$_Unfancy@U_Container_proxy@std@@@std@@YAPAU_Container_proxy@0@PAU10@@Z 0040f0b0 f i Animation.obj
 0001:0000e0c0       ??$_Unfancy@VSimpleImage@@@std@@YAPAVSimpleImage@@PAV1@@Z 0040f0c0 f i Animation.obj
 0001:0000e0d0       ??$_Uninitialized_move@PAVSimpleImage@@V?$allocator@VSimpleImage@@@std@@@std@@YAPAVSimpleImage@@QAV1@0PAV1@AAV?$allocator@VSimpleImage@@@0@@Z 0040f0d0 f i Animation.obj
 0001:0000e1b0       ??$addressof@U_Container_proxy@std@@@std@@YAPAU_Container_proxy@0@AAU10@@Z 0040f1b0 f i Animation.obj
 0001:0000e1c0       ??$construct@VSimpleImage@@ABV1@@?$_Default_allocator_traits@V?$allocator@VSimpleImage@@@std@@@std@@SAXAAV?$allocator@VSimpleImage@@@1@QAVSimpleImage@@ABV3@@Z 0040f1c0 f i Animation.obj
 0001:0000e200       ??$construct@VSimpleImage@@V1@@?$_Default_allocator_traits@V?$allocator@VSimpleImage@@@std@@@std@@SAXAAV?$allocator@VSimpleImage@@@1@QAVSimpleImage@@$$QAV3@@Z 0040f200 f i Animation.obj
 0001:0000e240       ??$destroy@VSimpleImage@@@?$_Default_allocator_traits@V?$allocator@VSimpleImage@@@std@@@std@@SAXAAV?$allocator@VSimpleImage@@@1@QAVSimpleImage@@@Z 0040f240 f i Animation.obj
 0001:0000e260       ??$emplace_back@ABVSimpleImage@@@?$vector@VSimpleImage@@V?$allocator@VSimpleImage@@@std@@@std@@QAE@ABVSimpleImage@@@Z 0040f260 f i Animation.obj
 0001:0000e2e0       ??$forward@ABVSimpleImage@@@std@@YAABVSimpleImage@@ABV1@@Z 0040f2e0 f i Animation.obj
 0001:0000e2f0       ??$forward@PAU_Container_base12@std@@@std@@YA$$QAPAU_Container_base12@0@AAPAU10@@Z 0040f2f0 f i Animation.obj
 0001:0000e300       ??$forward@VSimpleImage@@@std@@YA$$QAVSimpleImage@@AAV1@@Z 0040f300 f i Animation.obj
 0001:0000e310       ??$min@I@std@@YAABIABI0@Z  0040f310 f i Animation.obj
 0001:0000e350       ??$move@AAVSimpleImage@@@std@@YA$$QAVSimpleImage@@AAV1@@Z 0040f350 f i Animation.obj
 0001:0000e360       ??0?$_Ptr_base@VRawImageData@@@std@@IAE@XZ 0040f360 f i Animation.obj
 0001:0000e390       ??0?$_Uninitialized_backout_al@V?$allocator@VSimpleImage@@@std@@@std@@QAE@PAVSimpleImage@@AAV?$allocator@VSimpleImage@@@1@@Z 0040f390 f i Animation.obj
 0001:0000e3d0       ??0?$_Vector_val@U?$_Simple_types@VSimpleImage@@@std@@@std@@QAE@XZ 0040f3d0 f i Animation.obj
 0001:0000e420       ??0?$allocator@VSimpleImage@@@std@@QAE@XZ 0040f420 f i Animation.obj
 0001:0000e440       ??0?$shared_ptr@VRawImageData@@@std@@QAE@ABV01@@Z 0040f440 f i Animation.obj
 0001:0000e470       ??0?$vector@VSimpleImage@@V?$allocator@VSimpleImage@@@std@@@std@@QAE@XZ 0040f470 f i Animation.obj
 0001:0000e4f0       ??0SimpleImage@@QAE@ABV0@@Z 0040f4f0 f i Animation.obj
 0001:0000e540       ??0_Container_base12@std@@QAE@XZ 0040f540 f i Animation.obj
 0001:0000e560       ??0_Container_proxy@std@@QAE@PAU_Container_base12@1@@Z 0040f560 f i Animation.obj
 0001:0000e590       ??0bad_alloc@std@@AAE@QBD@Z 0040f590 f i Animation.obj
 0001:0000e5c0       ??0bad_alloc@std@@QAE@ABV01@@Z 0040f5c0 f i Animation.obj
 0001:0000e5f0       ??0bad_array_new_length@std@@QAE@ABV01@@Z 0040f5f0 f i Animation.obj
 0001:0000e620       ??0bad_array_new_length@std@@QAE@XZ 0040f620 f i Animation.obj
 0001:0000e650       ??0exception@std@@QAE@ABV01@@Z 0040f650 f i Animation.obj
 0001:0000e6a0       ??0exception@std@@QAE@QBDH@Z 0040f6a0 f i Animation.obj
 0001:0000e6e0       ??1?$_Uninitialized_backout_al@V?$allocator@VSimpleImage@@@std@@@std@@QAE@XZ 0040f6e0 f i Animation.obj
 0001:0000e710       ??1?$shared_ptr@VRawImageData@@@std@@QAE@XZ 0040f710 f i Animation.obj
 0001:0000e730       ??1SimpleImage@@QAE@XZ     0040f730 f i Animation.obj
 0001:0000e780       ??1bad_alloc@std@@UAE@XZ   0040f780 f i Animation.obj
 0001:0000e7a0       ??1bad_array_new_length@std@@UAE@XZ 0040f7a0 f i Animation.obj
 0001:0000e7c0       ??1exception@std@@UAE@XZ   0040f7c0 f i Animation.obj
 0001:0000e7f0       ??2@YAPAXIPAX@Z            0040f7f0 f i Animation.obj
 0001:0000e800       ??A?$vector@VSimpleImage@@V?$allocator@VSimpleImage@@@std@@@std@@QBEABVSimpleImage@@I@Z 0040f800 f i Animation.obj
 0001:0000e8b0       ??_GSimpleImage@@QAEPAXI@Z 0040f8b0 f i Animation.obj
 0001:0000e8f0       ??_Ebad_alloc@std@@UAEPAXI@Z 0040f8f0 f i Animation.obj
 0001:0000e8f0       ??_Gbad_alloc@std@@UAEPAXI@Z 0040f8f0 f i Animation.obj
 0001:0000e930       ??_Ebad_array_new_length@std@@UAEPAXI@Z 0040f930 f i Animation.obj
 0001:0000e930       ??_Gbad_array_new_length@std@@UAEPAXI@Z 0040f930 f i Animation.obj
 0001:0000e970       ??_Gexception@std@@UAEPAXI@Z 0040f970 f i Animation.obj
 0001:0000e970       ??_Eexception@std@@UAEPAXI@Z 0040f970 f i Animation.obj
 0001:0000e9b0       ?_Adjust_manually_vector_aligned@std@@YAXAAPAXAAI@Z 0040f9b0 f i Animation.obj
 0001:0000eb00       ?_Allocate@_Default_allocate_traits@std@@SAPAXI@Z 0040fb00 f i Animation.obj
 0001:0000eb20       ?_Calculate_growth@?$vector@VSimpleImage@@V?$allocator@VSimpleImage@@@std@@@std@@ABEII@Z 0040fb20 f i Animation.obj
 0001:0000eb90       ?_Change_array@?$vector@VSimpleImage@@V?$allocator@VSimpleImage@@@std@@@std@@AAEXQAVSimpleImage@@II@Z 0040fb90 f i Animation.obj
 0001:0000ec60       ?_Decref@?$_Ptr_base@VRawImageData@@@std@@IAEXXZ 0040fc60 f i Animation.obj
 0001:0000ec90       ?_Decref@_Ref_count_base@std@@QAEXXZ 0040fc90 f i Animation.obj
 0001:0000ecd0       ?_Decwref@_Ref_count_base@std@@QAEXXZ 0040fcd0 f i Animation.obj
 0001:0000ed10       ?_Destroy@?$vector@VSimpleImage@@V?$allocator@VSimpleImage@@@std@@@std@@AAEXPAVSimpleImage@@0@Z 0040fd10 f i Animation.obj
 0001:0000ed40       ?_Get_first@?$_Compressed_pair@V?$allocator@VSimpleImage@@@std@@V?$_Vector_val@U?$_Simple_types@VSimpleImage@@@std@@@2@$00@std@@QAEAAV?$allocator@VSimpleImage@@@2@XZ 0040fd40 f i Animation.obj
 0001:0000ed60       ?_Get_first@?$_Compressed_pair@V?$allocator@VSimpleImage@@@std@@V?$_Vector_val@U?$_Simple_types@VSimpleImage@@@std@@@2@$00@std@@QBEABV?$allocator@VSimpleImage@@@2@XZ 0040fd60 f i Animation.obj
 0001:0000ed80       ?_Getal@?$vector@VSimpleImage@@V?$allocator@VSimpleImage@@@std@@@std@@AAEAAV?$allocator@VSimpleImage@@@2@XZ 0040fd80 f i Animation.obj
 0001:0000eda0       ?_Getal@?$vector@VSimpleImage@@V?$allocator@VSimpleImage@@@std@@@std@@ABEABV?$allocator@VSimpleImage@@@2@XZ 0040fda0 f i Animation.obj
 0001:0000edc0       ?_Incref@?$_Ptr_base@VRawImageData@@@std@@IBEXXZ 0040fdc0 f i Animation.obj
 0001:0000edf0       ?_Incref@_Ref_count_base@std@@QAEXXZ 0040fdf0 f i Animation.obj
 0001:0000ee10       ?_Maklocwcs@std@@YAPA_WPB_W@Z 0040fe10 f i Animation.obj
 0001:0000ee80       ?_Orphan_all@_Container_base12@std@@QAEXXZ 0040fe80 f i Animation.obj
 0001:0000ef00       ?_Orphan_range@?$vector@VSimpleImage@@V?$allocator@VSimpleImage@@@std@@@std@@ABEXPAVSimpleImage@@0@Z 0040ff00 f i Animation.obj
 0001:0000efa0       ?_Release@?$_Uninitialized_backout_al@V?$allocator@VSimpleImage@@@std@@@std@@QAEPAVSimpleImage@@XZ 0040ffa0 f i Animation.obj
 0001:0000efd0       ?_Throw_bad_array_new_length@std@@YAXXZ 0040ffd0 f i Animation.obj
 0001:0000f000       ?_Umove@?$vector@VSimpleImage@@V?$allocator@VSimpleImage@@@std@@@std@@AAEPAVSimpleImage@@PAV3@00@Z 00410000 f i Animation.obj
 0001:0000f040       ?_Umove_if_noexcept1@?$vector@VSimpleImage@@V?$allocator@VSimpleImage@@@std@@@std@@AAEXPAVSimpleImage@@00U?$integral_constant@_N$00@2@@Z 00410040 f i Animation.obj
 0001:0000f080       ?_Umove_if_noexcept@?$vector@VSimpleImage@@V?$allocator@VSimpleImage@@@std@@@std@@AAEXPAVSimpleImage@@00@Z 00410080 f i Animation.obj
 0001:0000f0c0       ?_Xlength@?$vector@VSimpleImage@@V?$allocator@VSimpleImage@@@std@@@std@@CAXXZ 004100c0 f i Animation.obj
 0001:0000f0e0       ?__empty_global_delete@@YAXPAX@Z 004100e0 f i Animation.obj
 0001:0000f0f0       ?__empty_global_delete@@YAXPAXI@Z 004100f0 f i Animation.obj
 0001:0000f0f0       ?__global_delete@@YAXPAXI@Z 004100f0 f i Animation.obj
 0001:0000f100       ?allocate@?$allocator@U_Container_proxy@std@@@std@@QAEPAU_Container_proxy@2@I@Z 00410100 f i Animation.obj
 0001:0000f130       ?allocate@?$allocator@VSimpleImage@@@std@@QAEPAVSimpleImage@@I@Z 00410130 f i Animation.obj
 0001:0000f160       ?capacity@?$vector@VSimpleImage@@V?$allocator@VSimpleImage@@@std@@@std@@QBEIXZ 00410160 f i Animation.obj
 0001:0000f190       ?deallocate@?$allocator@VSimpleImage@@@std@@QAEXQAVSimpleImage@@I@Z 00410190 f i Animation.obj
 0001:0000f1c0       ?max@?$numeric_limits@H@std@@SAHXZ 004101c0 f i Animation.obj
 0001:0000f1d0       ?max_size@?$_Default_allocator_traits@V?$allocator@VSimpleImage@@@std@@@std@@SAIABV?$allocator@VSimpleImage@@@2@@Z 004101d0 f i Animation.obj
 0001:0000f1e0       ?max_size@?$vector@VSimpleImage@@V?$allocator@VSimpleImage@@@std@@@std@@QBEIXZ 004101e0 f i Animation.obj
 0001:0000f230       ?push_back@?$vector@VSimpleImage@@V?$allocator@VSimpleImage@@@std@@@std@@QAEXABVSimpleImage@@@Z 00410230 f i Animation.obj
 0001:0000f250       ?size@?$vector@VSimpleImage@@V?$allocator@VSimpleImage@@@std@@@std@@QBEIXZ 00410250 f i Animation.obj
 0001:0000f280       ?what@exception@std@@UBEPBDXZ 00410280 f i Animation.obj
 0001:0000f2c0       _wmemcpy                   004102c0 f i Animation.obj
 0001:0000f2f0       ?getInstance@CaveGenerator@@SAPAV1@XZ 004102f0 f   CaveGenerator.obj
 0001:0000f380       ?virtDrawTileAt@CaveGenerator@@UBEXPAVBaseEngine@@PAVDrawingSurface@@HHHH@Z 00410380 f   CaveGenerator.obj
 0001:0000f4b0       ?generateCave@CaveGenerator@@QAEXXZ 004104b0 f   CaveGenerator.obj
 0001:0000f500       ?randomFillMap@CaveGenerator@@QAEXXZ 00410500 f   CaveGenerator.obj
 0001:0000f5e0       ?smoothMap@CaveGenerator@@QAEXH@Z 004105e0 f   CaveGenerator.obj
 0001:0000f6a0       ?refineMap@CaveGenerator@@QAEXXZ 004106a0 f   CaveGenerator.obj
 0001:0000f940       ?setRuneTileType@CaveGenerator@@QAEXXZ 00410940 f   CaveGenerator.obj
 0001:0000fc40       ?setOtherTileTypes@CaveGenerator@@QAEXXZ 00410c40 f   CaveGenerator.obj
 0001:0000fd20       ?initPlayerPosition@CaveGenerator@@QAE?AUVec2@@XZ 00410d20 f   CaveGenerator.obj
 0001:0000fe80       ?getRegions@CaveGenerator@@QAEXHAAV?$list@V?$list@UVec2@@V?$allocator@UVec2@@@std@@@std@@V?$allocator@V?$list@UVec2@@V?$allocator@UVec2@@@std@@@std@@@2@@std@@@Z 00410e80 f   CaveGenerator.obj
 0001:000100e0       ?getRegionTilesFrom@CaveGenerator@@QAEXHHAAV?$list@UVec2@@V?$allocator@UVec2@@@std@@@std@@@Z 004110e0 f   CaveGenerator.obj
 0001:00010340       ?connectClosestRooms@CaveGenerator@@QAEXAAV?$list@VRoom@@V?$allocator@VRoom@@@std@@@std@@_N@Z 00411340 f   CaveGenerator.obj
 0001:000107e0       ?createPassage@CaveGenerator@@QAEXPAVRoom@@0UVec2@@1@Z 004117e0 f   CaveGenerator.obj
 0001:000108d0       ?getSurroundingWallCount@CaveGenerator@@QBEHHH@Z 004118d0 f   CaveGenerator.obj
 0001:00010980       ?isEdge@CaveGenerator@@QBE_NHH@Z 00411980 f   CaveGenerator.obj
 0001:00010a20       ?isSpawner@CaveGenerator@@QBE_NHH@Z 00411a20 f   CaveGenerator.obj
 0001:000110e0       ??$?0$$V@?$_Compressed_pair@V?$allocator@U?$_List_node@PAVRoom@@PAX@std@@@std@@V?$_List_val@U?$_List_simple_types@PAVRoom@@@std@@@2@$00@std@@QAE@U_Zero_then_variadic_args_t@1@@Z 004120e0 f i CaveGenerator.obj
 0001:00011110       ??$?0$$V@?$_Compressed_pair@V?$allocator@U?$_List_node@UVec2@@PAX@std@@@std@@V?$_List_val@U?$_List_simple_types@UVec2@@@std@@@2@$00@std@@QAE@U_Zero_then_variadic_args_t@1@@Z 00412110 f i CaveGenerator.obj
 0001:00011140       ??$?0$$V@?$_Compressed_pair@V?$allocator@U?$_List_node@V?$list@UVec2@@V?$allocator@UVec2@@@std@@@std@@PAX@std@@@std@@V?$_List_val@U?$_List_simple_types@V?$list@UVec2@@V?$allocator@UVec2@@@std@@@std@@@std@@@2@$00@std@@QAE@U_Zero_then_variadic_args_t@1@@Z 00412140 f i CaveGenerator.obj
 0001:00011170       ??$?0$$V@?$_Compressed_pair@V?$allocator@U?$_List_node@VRoom@@PAX@std@@@std@@V?$_List_val@U?$_List_simple_types@VRoom@@@std@@@2@$00@std@@QAE@U_Zero_then_variadic_args_t@1@@Z 00412170 f i CaveGenerator.obj
 0001:000111a0       ??$?0$$V@?$_Compressed_pair@V?$allocator@UVec2@@@std@@V?$_Deque_val@U?$_Deque_simple_types@UVec2@@@std@@@2@$00@std@@QAE@U_Zero_then_variadic_args_t@1@@Z 004121a0 f i CaveGenerator.obj
 0001:000111d0       ??$?0ABUVec2@@@?$_List_node_emplace_op2@V?$allocator@U?$_List_node@UVec2@@PAX@std@@@std@@@std@@QAE@AAV?$allocator@U?$_List_node@UVec2@@PAX@std@@@1@ABUVec2@@@Z 004121d0 f i CaveGenerator.obj
 0001:00011280       ??$?0ABV?$list@UVec2@@V?$allocator@UVec2@@@std@@@std@@@?$_List_node_emplace_op2@V?$allocator@U?$_List_node@V?$list@UVec2@@V?$allocator@UVec2@@@std@@@std@@PAX@std@@@std@@@std@@QAE@AAV?$allocator@U?$_List_node@V?$list@UVec2@@V?$allocator@UVec2@@@std@@@std@@PAX@std@@@1@ABV?$list@UVec2@@V?$allocator@UVec2@@@std@@@1@@Z 00412280 f i CaveGenerator.obj
 0001:00011330       ??$?0PAVRoom@@@?$_List_node_emplace_op2@V?$allocator@U?$_List_node@PAVRoom@@PAX@std@@@std@@@std@@QAE@AAV?$allocator@U?$_List_node@PAVRoom@@PAX@std@@@1@$$QAPAVRoom@@@Z 00412330 f i CaveGenerator.obj
 0001:000113e0       ??$?0U?$_List_node@PAVRoom@@PAX@std@@@?$allocator@U_Container_proxy@std@@@std@@QAE@ABV?$allocator@U?$_List_node@PAVRoom@@PAX@std@@@1@@Z 004123e0 f i CaveGenerator.obj
 0001:00011400       ??$?0U?$_List_node@UVec2@@PAX@std@@@?$allocator@U_Container_proxy@std@@@std@@QAE@ABV?$allocator@U?$_List_node@UVec2@@PAX@std@@@1@@Z 00412400 f i CaveGenerator.obj
 0001:00011420       ??$?0U?$_List_node@V?$list@UVec2@@V?$allocator@UVec2@@@std@@@std@@PAX@std@@@?$allocator@U_Container_proxy@std@@@std@@QAE@ABV?$allocator@U?$_List_node@V?$list@UVec2@@V?$allocator@UVec2@@@std@@@std@@PAX@std@@@1@@Z 00412420 f i CaveGenerator.obj
 0001:00011440       ??$?0U?$_List_node@VRoom@@PAX@std@@@?$allocator@U_Container_proxy@std@@@std@@QAE@ABV?$allocator@U?$_List_node@VRoom@@PAX@std@@@1@@Z 00412440 f i CaveGenerator.obj
 0001:00011460       ??$?0UVec2@@@?$allocator@PAUVec2@@@std@@QAE@ABV?$allocator@UVec2@@@1@@Z 00412460 f i CaveGenerator.obj
 0001:00011480       ??$?0UVec2@@@?$allocator@U_Container_proxy@std@@@std@@QAE@ABV?$allocator@UVec2@@@1@@Z 00412480 f i CaveGenerator.obj
 0001:000114a0       ??$?0V?$allocator@U?$_List_node@UVec2@@PAX@std@@@std@@$$V@?$_Compressed_pair@V?$allocator@U?$_List_node@UVec2@@PAX@std@@@std@@V?$_List_val@U?$_List_simple_types@UVec2@@@std@@@2@$00@std@@QAE@U_One_then_variadic_args_t@1@$$QAV?$allocator@U?$_List_node@UVec2@@PAX@std@@@1@@Z 004124a0 f i CaveGenerator.obj
 0001:000114d0       ??$?0V?$allocator@U?$_List_node@VRoom@@PAX@std@@@std@@$$V@?$_Compressed_pair@V?$allocator@U?$_List_node@VRoom@@PAX@std@@@std@@V?$_List_val@U?$_List_simple_types@VRoom@@@std@@@2@$00@std@@QAE@U_One_then_variadic_args_t@1@$$QAV?$allocator@U?$_List_node@VRoom@@PAX@std@@@1@@Z 004124d0 f i CaveGenerator.obj
 0001:00011500       ??$?0VRoom@@@?$_List_node_emplace_op2@V?$allocator@U?$_List_node@VRoom@@PAX@std@@@std@@@std@@QAE@AAV?$allocator@U?$_List_node@VRoom@@PAX@std@@@1@$$QAVRoom@@@Z 00412500 f i CaveGenerator.obj
 0001:000115b0       ??$_Adl_verify_range@PAPAUVec2@@PAPAU1@@std@@YAXABQAPAUVec2@@0@Z 004125b0 f i CaveGenerator.obj
 0001:000115d0       ??$_Append_range_unchecked@V?$_List_unchecked_const_iterator@V?$_List_val@U?$_List_simple_types@UVec2@@@std@@@std@@U_Iterator_base0@2@@std@@V12@@?$_List_node_insert_op2@V?$allocator@U?$_List_node@UVec2@@PAX@std@@@std@@@std@@QAEXV?$_List_unchecked_const_iterator@V?$_List_val@U?$_List_simple_types@UVec2@@@std@@@std@@U_Iterator_base0@2@@1@V21@@Z 004125d0 f i CaveGenerator.obj
 0001:000117d0       ??$_Attach_head@U?$_List_simple_types@UVec2@@@std@@@?$_List_node_insert_op2@V?$allocator@U?$_List_node@UVec2@@PAX@std@@@std@@@std@@QAEXAAV?$_List_val@U?$_List_simple_types@UVec2@@@std@@@1@@Z 004127d0 f i CaveGenerator.obj
 0001:00011940       ??$_Construct_in_place@PAU?$_List_node@PAVRoom@@PAX@std@@AAPAU12@@std@@YAXAAPAU?$_List_node@PAVRoom@@PAX@0@0@Z 00412940 f i CaveGenerator.obj
 0001:00011990       ??$_Construct_in_place@PAU?$_List_node@PAVRoom@@PAX@std@@ABQAU12@@std@@YAXAAPAU?$_List_node@PAVRoom@@PAX@0@ABQAU10@@Z 00412990 f i CaveGenerator.obj
 0001:000119e0       ??$_Construct_in_place@PAU?$_List_node@UVec2@@PAX@std@@AAPAU12@@std@@YAXAAPAU?$_List_node@UVec2@@PAX@0@0@Z 004129e0 f i CaveGenerator.obj
 0001:00011a30       ??$_Construct_in_place@PAU?$_List_node@UVec2@@PAX@std@@ABQAU12@@std@@YAXAAPAU?$_List_node@UVec2@@PAX@0@ABQAU10@@Z 00412a30 f i CaveGenerator.obj
 0001:00011a80       ??$_Construct_in_place@PAU?$_List_node@UVec2@@PAX@std@@PAU12@@std@@YAXAAPAU?$_List_node@UVec2@@PAX@0@$$QAPAU10@@Z 00412a80 f i CaveGenerator.obj
 0001:00011ad0       ??$_Construct_in_place@PAU?$_List_node@V?$list@UVec2@@V?$allocator@UVec2@@@std@@@std@@PAX@std@@AAPAU12@@std@@YAXAAPAU?$_List_node@V?$list@UVec2@@V?$allocator@UVec2@@@std@@@std@@PAX@0@0@Z 00412ad0 f i CaveGenerator.obj
 0001:00011b20       ??$_Construct_in_place@PAU?$_List_node@V?$list@UVec2@@V?$allocator@UVec2@@@std@@@std@@PAX@std@@ABQAU12@@std@@YAXAAPAU?$_List_node@V?$list@UVec2@@V?$allocator@UVec2@@@std@@@std@@PAX@0@ABQAU10@@Z 00412b20 f i CaveGenerator.obj
 0001:00011b70       ??$_Construct_in_place@PAU?$_List_node@VRoom@@PAX@std@@AAPAU12@@std@@YAXAAPAU?$_List_node@VRoom@@PAX@0@0@Z 00412b70 f i CaveGenerator.obj
 0001:00011bc0       ??$_Construct_in_place@PAU?$_List_node@VRoom@@PAX@std@@ABQAU12@@std@@YAXAAPAU?$_List_node@VRoom@@PAX@0@ABQAU10@@Z 00412bc0 f i CaveGenerator.obj
 0001:00011c10       ??$_Construct_range_unchecked@V?$_List_unchecked_const_iterator@V?$_List_val@U?$_List_simple_types@UVec2@@@std@@@std@@U_Iterator_base0@2@@std@@@?$list@UVec2@@V?$allocator@UVec2@@@std@@@std@@AAEXV?$_List_unchecked_const_iterator@V?$_List_val@U?$_List_simple_types@UVec2@@@std@@@std@@U_Iterator_base0@2@@1@0@Z 00412c10 f i CaveGenerator.obj
 0001:00011d00       ??$_Copy_memmove@PAPAUVec2@@PAPAU1@@std@@YAPAPAUVec2@@PAPAU1@00@Z 00412d00 f i CaveGenerator.obj
 0001:00011d50       ??$_Deallocate_plain@V?$allocator@U_Container_proxy@std@@@std@@@std@@YAXAAV?$allocator@U_Container_proxy@std@@@0@QAU_Container_proxy@0@@Z 00412d50 f i CaveGenerator.obj
 0001:00011db0       ??$_Debug_lt_pred@AAURoomComparator@@AAVRoom@@AAV2@$0A@@std@@YA_NAAURoomComparator@@AAVRoom@@1@Z 00412db0 f i CaveGenerator.obj
 0001:00011e60       ??$_Delete_plain_internal@V?$allocator@U_Container_proxy@std@@@std@@@std@@YAXAAV?$allocator@U_Container_proxy@std@@@0@QAU_Container_proxy@0@@Z 00412e60 f i CaveGenerator.obj
 0001:00011e80       ??$_Destroy_in_place@PAU?$_List_node@PAVRoom@@PAX@std@@@std@@YAXAAPAU?$_List_node@PAVRoom@@PAX@0@@Z 00412e80 f i CaveGenerator.obj
 0001:00011e90       ??$_Destroy_in_place@PAU?$_List_node@UVec2@@PAX@std@@@std@@YAXAAPAU?$_List_node@UVec2@@PAX@0@@Z 00412e90 f i CaveGenerator.obj
 0001:00011ea0       ??$_Destroy_in_place@PAU?$_List_node@V?$list@UVec2@@V?$allocator@UVec2@@@std@@@std@@PAX@std@@@std@@YAXAAPAU?$_List_node@V?$list@UVec2@@V?$allocator@UVec2@@@std@@@std@@PAX@0@@Z 00412ea0 f i CaveGenerator.obj
 0001:00011eb0       ??$_Destroy_in_place@PAU?$_List_node@VRoom@@PAX@std@@@std@@YAXAAPAU?$_List_node@VRoom@@PAX@0@@Z 00412eb0 f i CaveGenerator.obj
 0001:00011ec0       ??$_Destroy_in_place@PAUVec2@@@std@@YAXAAPAUVec2@@@Z 00412ec0 f i CaveGenerator.obj
 0001:00011ed0       ??$_Destroy_range@PAPAUVec2@@@std@@YAXPAPAUVec2@@QAPAU1@@Z 00412ed0 f i CaveGenerator.obj
 0001:00011ee0       ??$_Emplace@ABUVec2@@@?$list@UVec2@@V?$allocator@UVec2@@@std@@@std@@QAEPAU?$_List_node@UVec2@@PAX@1@QAU21@ABUVec2@@@Z 00412ee0 f i CaveGenerator.obj
 0001:00011f90       ??$_Emplace@ABV?$list@UVec2@@V?$allocator@UVec2@@@std@@@std@@@?$list@V?$list@UVec2@@V?$allocator@UVec2@@@std@@@std@@V?$allocator@V?$list@UVec2@@V?$allocator@UVec2@@@std@@@std@@@2@@std@@QAEPAU?$_List_node@V?$list@UVec2@@V?$allocator@UVec2@@@std@@@std@@PAX@1@QAU21@ABV?$list@UVec2@@V?$allocator@UVec2@@@std@@@1@@Z 00412f90 f i CaveGenerator.obj
 0001:00012040       ??$_Emplace@PAVRoom@@@?$list@PAVRoom@@V?$allocator@PAVRoom@@@std@@@std@@QAEPAU?$_List_node@PAVRoom@@PAX@1@QAU21@$$QAPAVRoom@@@Z 00413040 f i CaveGenerator.obj
 0001:000120f0       ??$_Emplace@VRoom@@@?$list@VRoom@@V?$allocator@VRoom@@@std@@@std@@QAEPAU?$_List_node@VRoom@@PAX@1@QAU21@$$QAVRoom@@@Z 004130f0 f i CaveGenerator.obj
 0001:000121a0       ??$_Emplace_back_internal@UVec2@@@?$deque@UVec2@@V?$allocator@UVec2@@@std@@@std@@AAEX$$QAUVec2@@@Z 004131a0 f i CaveGenerator.obj
 0001:00012330       ??$_Free_non_head@V?$allocator@U?$_List_node@PAVRoom@@PAX@std@@@std@@@?$_List_node@PAVRoom@@PAX@std@@SAXAAV?$allocator@U?$_List_node@PAVRoom@@PAX@std@@@1@PAU01@@Z 00413330 f i CaveGenerator.obj
 0001:00012390       ??$_Free_non_head@V?$allocator@U?$_List_node@UVec2@@PAX@std@@@std@@@?$_List_node@UVec2@@PAX@std@@SAXAAV?$allocator@U?$_List_node@UVec2@@PAX@std@@@1@PAU01@@Z 00413390 f i CaveGenerator.obj
 0001:000123f0       ??$_Free_non_head@V?$allocator@U?$_List_node@V?$list@UVec2@@V?$allocator@UVec2@@@std@@@std@@PAX@std@@@std@@@?$_List_node@V?$list@UVec2@@V?$allocator@UVec2@@@std@@@std@@PAX@std@@SAXAAV?$allocator@U?$_List_node@V?$list@UVec2@@V?$allocator@UVec2@@@std@@@std@@PAX@std@@@1@PAU01@@Z 004133f0 f i CaveGenerator.obj
 0001:00012450       ??$_Free_non_head@V?$allocator@U?$_List_node@VRoom@@PAX@std@@@std@@@?$_List_node@VRoom@@PAX@std@@SAXAAV?$allocator@U?$_List_node@VRoom@@PAX@std@@@1@PAU01@@Z 00413450 f i CaveGenerator.obj
 0001:000124b0       ??$_Freenode0@V?$allocator@U?$_List_node@PAVRoom@@PAX@std@@@std@@@?$_List_node@PAVRoom@@PAX@std@@SAXAAV?$allocator@U?$_List_node@PAVRoom@@PAX@std@@@1@PAU01@@Z 004134b0 f i CaveGenerator.obj
 0001:00012530       ??$_Freenode0@V?$allocator@U?$_List_node@UVec2@@PAX@std@@@std@@@?$_List_node@UVec2@@PAX@std@@SAXAAV?$allocator@U?$_List_node@UVec2@@PAX@std@@@1@PAU01@@Z 00413530 f i CaveGenerator.obj
 0001:000125b0       ??$_Freenode0@V?$allocator@U?$_List_node@V?$list@UVec2@@V?$allocator@UVec2@@@std@@@std@@PAX@std@@@std@@@?$_List_node@V?$list@UVec2@@V?$allocator@UVec2@@@std@@@std@@PAX@std@@SAXAAV?$allocator@U?$_List_node@V?$list@UVec2@@V?$allocator@UVec2@@@std@@@std@@PAX@std@@@1@PAU01@@Z 004135b0 f i CaveGenerator.obj
 0001:00012630       ??$_Freenode0@V?$allocator@U?$_List_node@VRoom@@PAX@std@@@std@@@?$_List_node@VRoom@@PAX@std@@SAXAAV?$allocator@U?$_List_node@VRoom@@PAX@std@@@1@PAU01@@Z 00413630 f i CaveGenerator.obj
 0001:000126b0       ??$_Freenode@V?$allocator@U?$_List_node@PAVRoom@@PAX@std@@@std@@@?$_List_node@PAVRoom@@PAX@std@@SAXAAV?$allocator@U?$_List_node@PAVRoom@@PAX@std@@@1@PAU01@@Z 004136b0 f i CaveGenerator.obj
 0001:00012730       ??$_Freenode@V?$allocator@U?$_List_node@UVec2@@PAX@std@@@std@@@?$_List_node@UVec2@@PAX@std@@SAXAAV?$allocator@U?$_List_node@UVec2@@PAX@std@@@1@PAU01@@Z 00413730 f i CaveGenerator.obj
 0001:000127b0       ??$_Freenode@V?$allocator@U?$_List_node@V?$list@UVec2@@V?$allocator@UVec2@@@std@@@std@@PAX@std@@@std@@@?$_List_node@V?$list@UVec2@@V?$allocator@UVec2@@@std@@@std@@PAX@std@@SAXAAV?$allocator@U?$_List_node@V?$list@UVec2@@V?$allocator@UVec2@@@std@@@std@@PAX@std@@@1@PAU01@@Z 004137b0 f i CaveGenerator.obj
 0001:00012830       ??$_Freenode@V?$allocator@U?$_List_node@VRoom@@PAX@std@@@std@@@?$_List_node@VRoom@@PAX@std@@SAXAAV?$allocator@U?$_List_node@VRoom@@PAX@std@@@1@PAU01@@Z 00413830 f i CaveGenerator.obj
 0001:000128b0       ??$_Get_size_of_n@$03@std@@YAII@Z 004138b0 f i CaveGenerator.obj
 0001:000128f0       ??$_Get_size_of_n@$0BE@@std@@YAII@Z 004138f0 f i CaveGenerator.obj
 0001:00012920       ??$_Get_size_of_n@$0DI@@std@@YAII@Z 00413920 f i CaveGenerator.obj
 0001:00012950       ??$_Get_size_of_n@$0M@@std@@YAII@Z 00413950 f i CaveGenerator.obj
 0001:00012980       ??$_Get_unwrapped@ABQAPAUVec2@@@std@@YA@ABQAPAUVec2@@@Z 00413980 f i CaveGenerator.obj
 0001:00012990       ??$_Get_unwrapped_n@AAPAPAUVec2@@H@std@@YA@AAPAPAUVec2@@H@Z 00413990 f i CaveGenerator.obj
 0001:000129a0       ??$_Get_unwrapped_n@V?$_List_const_iterator@V?$_List_val@U?$_List_simple_types@UVec2@@@std@@@std@@@std@@H@std@@YA@$$QAV?$_List_const_iterator@V?$_List_val@U?$_List_simple_types@UVec2@@@std@@@std@@@0@H@Z 004139a0 f i CaveGenerator.obj
 0001:000129b0       ??$_Get_unwrapped_n@V?$_List_iterator@V?$_List_val@U?$_List_simple_types@UVec2@@@std@@@std@@@std@@H@std@@YA@$$QAV?$_List_iterator@V?$_List_val@U?$_List_simple_types@UVec2@@@std@@@std@@@0@H@Z 004139b0 f i CaveGenerator.obj
 0001:000129c0       ??$_Idl_distance@PAPAUVec2@@PAPAU1@@std@@YA@ABQAPAUVec2@@0@Z 004139c0 f i CaveGenerator.obj
 0001:000129e0       ??$_Merge_same@URoomComparator@@@?$_List_val@U?$_List_simple_types@VRoom@@@std@@@std@@SAPAU?$_List_node@VRoom@@PAX@1@PAU21@0QAU21@URoomComparator@@@Z 004139e0 f i CaveGenerator.obj
 0001:00012b30       ??$_Pass_fn@URoomComparator@@$0A@@std@@YA?AURoomComparator@@U1@@Z 00413b30 f i CaveGenerator.obj
 0001:00012b40       ??$_Seek_wrapped@PAPAUVec2@@AAPAPAU1@@std@@YAXAAPAPAUVec2@@0@Z 00413b40 f i CaveGenerator.obj
 0001:00012b60       ??$_Sort@URoomComparator@@@?$_List_val@U?$_List_simple_types@VRoom@@@std@@@std@@SAPAU?$_List_node@VRoom@@PAX@1@AAPAU21@IURoomComparator@@@Z 00413b60 f i CaveGenerator.obj
 0001:00012c10       ??$_Swap_adl@PAU?$_List_node@UVec2@@PAX@std@@@std@@YAXAAPAU?$_List_node@UVec2@@PAX@0@0@Z 00413c10 f i CaveGenerator.obj
 0001:00012c30       ??$_Swap_adl@PAU?$_List_node@VRoom@@PAX@std@@@std@@YAXAAPAU?$_List_node@VRoom@@PAX@0@0@Z 00413c30 f i CaveGenerator.obj
 0001:00012c50       ??$_Unfancy@UVec2@@@std@@YAPAUVec2@@PAU1@@Z 00413c50 f i CaveGenerator.obj
 0001:00012c60       ??$_Uninitialized_value_construct_n_unchecked1@PAPAUVec2@@I@std@@YAPAPAUVec2@@PAPAU1@I@Z 00413c60 f i CaveGenerator.obj
 0001:00012c90       ??$_Verify_range@PAUVec2@@@std@@YAXQBQAUVec2@@0@Z 00413c90 f i CaveGenerator.obj
 0001:00012d10       ??$_Zero_range@PAPAUVec2@@@std@@YAPAPAUVec2@@QAPAU1@0@Z 00413d10 f i CaveGenerator.obj
 0001:00012d50       ??$addressof@$$CBUVec2@@@std@@YAPBUVec2@@ABU1@@Z 00413d50 f i CaveGenerator.obj
 0001:00012d60       ??$addressof@$$CBV?$_List_val@U?$_List_simple_types@UVec2@@@std@@@std@@@std@@YAPBV?$_List_val@U?$_List_simple_types@UVec2@@@std@@@0@ABV10@@Z 00413d60 f i CaveGenerator.obj
 0001:00012d70       ??$addressof@PAU?$_List_node@PAVRoom@@PAX@std@@@std@@YAPAPAU?$_List_node@PAVRoom@@PAX@0@AAPAU10@@Z 00413d70 f i CaveGenerator.obj
 0001:00012d80       ??$addressof@PAU?$_List_node@UVec2@@PAX@std@@@std@@YAPAPAU?$_List_node@UVec2@@PAX@0@AAPAU10@@Z 00413d80 f i CaveGenerator.obj
 0001:00012d90       ??$addressof@PAU?$_List_node@V?$list@UVec2@@V?$allocator@UVec2@@@std@@@std@@PAX@std@@@std@@YAPAPAU?$_List_node@V?$list@UVec2@@V?$allocator@UVec2@@@std@@@std@@PAX@0@AAPAU10@@Z 00413d90 f i CaveGenerator.obj
 0001:00012da0       ??$addressof@PAU?$_List_node@VRoom@@PAX@std@@@std@@YAPAPAU?$_List_node@VRoom@@PAX@0@AAPAU10@@Z 00413da0 f i CaveGenerator.obj
 0001:00012db0       ??$addressof@PAVRoom@@@std@@YAPAPAVRoom@@AAPAV1@@Z 00413db0 f i CaveGenerator.obj
 0001:00012dc0       ??$addressof@UVec2@@@std@@YAPAUVec2@@AAU1@@Z 00413dc0 f i CaveGenerator.obj
 0001:00012dd0       ??$addressof@U_Container_base12@std@@@std@@YAPAU_Container_base12@0@AAU10@@Z 00413dd0 f i CaveGenerator.obj
 0001:00012de0       ??$addressof@V?$_Deque_val@U?$_Deque_simple_types@UVec2@@@std@@@std@@@std@@YAPAV?$_Deque_val@U?$_Deque_simple_types@UVec2@@@std@@@0@AAV10@@Z 00413de0 f i CaveGenerator.obj
 0001:00012df0       ??$addressof@V?$_List_val@U?$_List_simple_types@UVec2@@@std@@@std@@@std@@YAPAV?$_List_val@U?$_List_simple_types@UVec2@@@std@@@0@AAV10@@Z 00413df0 f i CaveGenerator.obj
 0001:00012e00       ??$addressof@V?$list@UVec2@@V?$allocator@UVec2@@@std@@@std@@@std@@YAPAV?$list@UVec2@@V?$allocator@UVec2@@@std@@@0@AAV10@@Z 00413e00 f i CaveGenerator.obj
 0001:00012e10       ??$addressof@VRoom@@@std@@YAPAVRoom@@AAV1@@Z 00413e10 f i CaveGenerator.obj
 0001:00012e20       ??$advance@V?$_List_const_iterator@V?$_List_val@U?$_List_simple_types@UVec2@@@std@@@std@@@std@@H@std@@YAXAAV?$_List_const_iterator@V?$_List_val@U?$_List_simple_types@UVec2@@@std@@@std@@@0@H@Z 00413e20 f i CaveGenerator.obj
 0001:00012ea0       ??$advance@V?$_List_iterator@V?$_List_val@U?$_List_simple_types@UVec2@@@std@@@std@@@std@@H@std@@YAXAAV?$_List_iterator@V?$_List_val@U?$_List_simple_types@UVec2@@@std@@@std@@@0@H@Z 00413ea0 f i CaveGenerator.obj
 0001:00012f20       ??$construct@PAVRoom@@PAV1@@?$_Default_allocator_traits@V?$allocator@U?$_List_node@PAVRoom@@PAX@std@@@std@@@std@@SAXAAV?$allocator@U?$_List_node@PAVRoom@@PAX@std@@@1@QAPAVRoom@@$$QAPAV3@@Z 00413f20 f i CaveGenerator.obj
 0001:00012f60       ??$construct@UVec2@@ABU1@@?$_Default_allocator_traits@V?$allocator@U?$_List_node@UVec2@@PAX@std@@@std@@@std@@SAXAAV?$allocator@U?$_List_node@UVec2@@PAX@std@@@1@QAUVec2@@ABU3@@Z 00413f60 f i CaveGenerator.obj
 0001:00012fa0       ??$construct@UVec2@@U1@@?$_Default_allocator_traits@V?$allocator@UVec2@@@std@@@std@@SAXAAV?$allocator@UVec2@@@1@QAUVec2@@$$QAU3@@Z 00413fa0 f i CaveGenerator.obj
 0001:00012fe0       ??$construct@V?$list@UVec2@@V?$allocator@UVec2@@@std@@@std@@ABV12@@?$_Default_allocator_traits@V?$allocator@U?$_List_node@V?$list@UVec2@@V?$allocator@UVec2@@@std@@@std@@PAX@std@@@std@@@std@@SAXAAV?$allocator@U?$_List_node@V?$list@UVec2@@V?$allocator@UVec2@@@std@@@std@@PAX@std@@@1@QAV?$list@UVec2@@V?$allocator@UVec2@@@std@@@1@ABV31@@Z 00413fe0 f i CaveGenerator.obj
 0001:00013020       ??$construct@VRoom@@V1@@?$_Default_allocator_traits@V?$allocator@U?$_List_node@VRoom@@PAX@std@@@std@@@std@@SAXAAV?$allocator@U?$_List_node@VRoom@@PAX@std@@@1@QAVRoom@@$$QAV3@@Z 00414020 f i CaveGenerator.obj
 0001:00013060       ??$destroy@PAVRoom@@@?$_Default_allocator_traits@V?$allocator@U?$_List_node@PAVRoom@@PAX@std@@@std@@@std@@SAXAAV?$allocator@U?$_List_node@PAVRoom@@PAX@std@@@1@QAPAVRoom@@@Z 00414060 f i CaveGenerator.obj
 0001:00013070       ??$destroy@UVec2@@@?$_Default_allocator_traits@V?$allocator@U?$_List_node@UVec2@@PAX@std@@@std@@@std@@SAXAAV?$allocator@U?$_List_node@UVec2@@PAX@std@@@1@QAUVec2@@@Z 00414070 f i CaveGenerator.obj
 0001:00013080       ??$destroy@UVec2@@@?$_Default_allocator_traits@V?$allocator@UVec2@@@std@@@std@@SAXAAV?$allocator@UVec2@@@1@QAUVec2@@@Z 00414080 f i CaveGenerator.obj
 0001:00013090       ??$destroy@V?$list@UVec2@@V?$allocator@UVec2@@@std@@@std@@@?$_Default_allocator_traits@V?$allocator@U?$_List_node@V?$list@UVec2@@V?$allocator@UVec2@@@std@@@std@@PAX@std@@@std@@@std@@SAXAAV?$allocator@U?$_List_node@V?$list@UVec2@@V?$allocator@UVec2@@@std@@@std@@PAX@std@@@1@QAV?$list@UVec2@@V?$allocator@UVec2@@@std@@@1@@Z 00414090 f i CaveGenerator.obj
 0001:000130b0       ??$destroy@VRoom@@@?$_Default_allocator_traits@V?$allocator@U?$_List_node@VRoom@@PAX@std@@@std@@@std@@SAXAAV?$allocator@U?$_List_node@VRoom@@PAX@std@@@1@QAVRoom@@@Z 004140b0 f i CaveGenerator.obj
 0001:000130d0       ??$exchange@II@std@@YAIAAI$$QAI@Z 004140d0 f i CaveGenerator.obj
 0001:00013100       ??$exchange@PAU?$_List_node@UVec2@@PAX@std@@$$T@std@@YAPAU?$_List_node@UVec2@@PAX@0@AAPAU10@$$QA$$T@Z 00414100 f i CaveGenerator.obj
 0001:00013130       ??$exchange@PAU?$_List_node@UVec2@@PAX@std@@AAPAU12@@std@@YAPAU?$_List_node@UVec2@@PAX@0@AAPAU10@0@Z 00414130 f i CaveGenerator.obj
 0001:00013160       ??$exchange@PAU?$_List_node@UVec2@@PAX@std@@PAU12@@std@@YAPAU?$_List_node@UVec2@@PAX@0@AAPAU10@$$QAPAU10@@Z 00414160 f i CaveGenerator.obj
 0001:00013190       ??$exchange@PAU_Container_proxy@std@@$$T@std@@YAPAU_Container_proxy@0@AAPAU10@$$QA$$T@Z 00414190 f i CaveGenerator.obj
 0001:000131c0       ??$forward@AAPAU?$_List_node@PAVRoom@@PAX@std@@@std@@YAAAPAU?$_List_node@PAVRoom@@PAX@0@AAPAU10@@Z 004141c0 f i CaveGenerator.obj
 0001:000131d0       ??$forward@AAPAU?$_List_node@UVec2@@PAX@std@@@std@@YAAAPAU?$_List_node@UVec2@@PAX@0@AAPAU10@@Z 004141d0 f i CaveGenerator.obj
 0001:000131e0       ??$forward@AAPAU?$_List_node@V?$list@UVec2@@V?$allocator@UVec2@@@std@@@std@@PAX@std@@@std@@YAAAPAU?$_List_node@V?$list@UVec2@@V?$allocator@UVec2@@@std@@@std@@PAX@0@AAPAU10@@Z 004141e0 f i CaveGenerator.obj
 0001:000131f0       ??$forward@AAPAU?$_List_node@VRoom@@PAX@std@@@std@@YAAAPAU?$_List_node@VRoom@@PAX@0@AAPAU10@@Z 004141f0 f i CaveGenerator.obj
 0001:00013200       ??$forward@ABQAU?$_List_node@PAVRoom@@PAX@std@@@std@@YAABQAU?$_List_node@PAVRoom@@PAX@0@ABQAU10@@Z 00414200 f i CaveGenerator.obj
 0001:00013210       ??$forward@ABQAU?$_List_node@UVec2@@PAX@std@@@std@@YAABQAU?$_List_node@UVec2@@PAX@0@ABQAU10@@Z 00414210 f i CaveGenerator.obj
 0001:00013220       ??$forward@ABQAU?$_List_node@V?$list@UVec2@@V?$allocator@UVec2@@@std@@@std@@PAX@std@@@std@@YAABQAU?$_List_node@V?$list@UVec2@@V?$allocator@UVec2@@@std@@@std@@PAX@0@ABQAU10@@Z 00414220 f i CaveGenerator.obj
 0001:00013230       ??$forward@ABQAU?$_List_node@VRoom@@PAX@std@@@std@@YAABQAU?$_List_node@VRoom@@PAX@0@ABQAU10@@Z 00414230 f i CaveGenerator.obj
 0001:00013240       ??$forward@ABUVec2@@@std@@YAABUVec2@@ABU1@@Z 00414240 f i CaveGenerator.obj
 0001:00013250       ??$forward@ABV?$list@UVec2@@V?$allocator@UVec2@@@std@@@std@@@std@@YAABV?$list@UVec2@@V?$allocator@UVec2@@@std@@@0@ABV10@@Z 00414250 f i CaveGenerator.obj
 0001:00013260       ??$forward@PAU?$_List_node@UVec2@@PAX@std@@@std@@YA$$QAPAU?$_List_node@UVec2@@PAX@0@AAPAU10@@Z 00414260 f i CaveGenerator.obj
 0001:00013270       ??$forward@PAVRoom@@@std@@YA$$QAPAVRoom@@AAPAV1@@Z 00414270 f i CaveGenerator.obj
 0001:00013280       ??$forward@UVec2@@@std@@YA$$QAUVec2@@AAU1@@Z 00414280 f i CaveGenerator.obj
 0001:00013290       ??$forward@V?$allocator@U?$_List_node@UVec2@@PAX@std@@@std@@@std@@YA$$QAV?$allocator@U?$_List_node@UVec2@@PAX@std@@@0@AAV10@@Z 00414290 f i CaveGenerator.obj
 0001:000132a0       ??$forward@V?$allocator@U?$_List_node@VRoom@@PAX@std@@@std@@@std@@YA$$QAV?$allocator@U?$_List_node@VRoom@@PAX@std@@@0@AAV10@@Z 004142a0 f i CaveGenerator.obj
 0001:000132b0       ??$forward@VRoom@@@std@@YA$$QAVRoom@@AAV1@@Z 004142b0 f i CaveGenerator.obj
 0001:000132c0       ??$move@AAI@std@@YA$$QAIAAI@Z 004142c0 f i CaveGenerator.obj
 0001:000132d0       ??$move@AAPAU?$_List_node@UVec2@@PAX@std@@@std@@YA$$QAPAU?$_List_node@UVec2@@PAX@0@AAPAU10@@Z 004142d0 f i CaveGenerator.obj
 0001:000132e0       ??$move@AAPAU?$_List_node@VRoom@@PAX@std@@@std@@YA$$QAPAU?$_List_node@VRoom@@PAX@0@AAPAU10@@Z 004142e0 f i CaveGenerator.obj
 0001:000132f0       ??$move@AAPAVRoom@@@std@@YA$$QAPAVRoom@@AAPAV1@@Z 004142f0 f i CaveGenerator.obj
 0001:00013300       ??$move@AAUVec2@@@std@@YA$$QAUVec2@@AAU1@@Z 00414300 f i CaveGenerator.obj
 0001:00013310       ??$move@AAV?$_List_const_iterator@V?$_List_val@U?$_List_simple_types@UVec2@@@std@@@std@@@std@@@std@@YA$$QAV?$_List_const_iterator@V?$_List_val@U?$_List_simple_types@UVec2@@@std@@@std@@@0@AAV10@@Z 00414310 f i CaveGenerator.obj
 0001:00013320       ??$move@AAV?$_List_iterator@V?$_List_val@U?$_List_simple_types@UVec2@@@std@@@std@@@std@@@std@@YA$$QAV?$_List_iterator@V?$_List_val@U?$_List_simple_types@UVec2@@@std@@@std@@@0@AAV10@@Z 00414320 f i CaveGenerator.obj
 0001:00013330       ??$move@AAV?$allocator@U?$_List_node@UVec2@@PAX@std@@@std@@@std@@YA$$QAV?$allocator@U?$_List_node@UVec2@@PAX@std@@@0@AAV10@@Z 00414330 f i CaveGenerator.obj
 0001:00013340       ??$move@AAV?$allocator@U?$_List_node@VRoom@@PAX@std@@@std@@@std@@YA$$QAV?$allocator@U?$_List_node@VRoom@@PAX@std@@@0@AAV10@@Z 00414340 f i CaveGenerator.obj
 0001:00013350       ??$move@AAVRoom@@@std@@YA$$QAVRoom@@AAV1@@Z 00414350 f i CaveGenerator.obj
 0001:00013360       ??$next@V?$_List_iterator@V?$_List_val@U?$_List_simple_types@UVec2@@@std@@@std@@@std@@@std@@YA?AV?$_List_iterator@V?$_List_val@U?$_List_simple_types@UVec2@@@std@@@std@@@0@V10@H@Z 00414360 f i CaveGenerator.obj
 0001:00013400       ??$pow@HH$0A@@@YANHH@Z     00414400 f i CaveGenerator.obj
 0001:00013430       ??$sort@URoomComparator@@@?$list@VRoom@@V?$allocator@VRoom@@@std@@@std@@QAEXURoomComparator@@@Z 00414430 f i CaveGenerator.obj
 0001:00013480       ??$swap@I$0A@@std@@YAXAAI0@Z 00414480 f i CaveGenerator.obj
 0001:000134d0       ??$swap@PAU?$_List_node@UVec2@@PAX@std@@$0A@@std@@YAXAAPAU?$_List_node@UVec2@@PAX@0@0@Z 004144d0 f i CaveGenerator.obj
 0001:00013520       ??$swap@PAU?$_List_node@VRoom@@PAX@std@@$0A@@std@@YAXAAPAU?$_List_node@VRoom@@PAX@0@0@Z 00414520 f i CaveGenerator.obj
 0001:00013570       ??$uninitialized_copy@PAPAUVec2@@PAPAU1@@std@@YAPAPAUVec2@@QAPAU1@0PAPAU1@@Z 00414570 f i CaveGenerator.obj
 0001:00013620       ??0?$_Alloc_construct_ptr@V?$allocator@U?$_List_node@PAVRoom@@PAX@std@@@std@@@std@@QAE@AAV?$allocator@U?$_List_node@PAVRoom@@PAX@std@@@1@@Z 00414620 f i CaveGenerator.obj
 0001:00013650       ??0?$_Alloc_construct_ptr@V?$allocator@U?$_List_node@UVec2@@PAX@std@@@std@@@std@@QAE@AAV?$allocator@U?$_List_node@UVec2@@PAX@std@@@1@@Z 00414650 f i CaveGenerator.obj
 0001:00013680       ??0?$_Alloc_construct_ptr@V?$allocator@U?$_List_node@V?$list@UVec2@@V?$allocator@UVec2@@@std@@@std@@PAX@std@@@std@@@std@@QAE@AAV?$allocator@U?$_List_node@V?$list@UVec2@@V?$allocator@UVec2@@@std@@@std@@PAX@std@@@1@@Z 00414680 f i CaveGenerator.obj
 0001:000136b0       ??0?$_Alloc_construct_ptr@V?$allocator@U?$_List_node@VRoom@@PAX@std@@@std@@@std@@QAE@AAV?$allocator@U?$_List_node@VRoom@@PAX@std@@@1@@Z 004146b0 f i CaveGenerator.obj
 0001:000136e0       ??0?$_Container_proxy_ptr12@V?$allocator@U_Container_proxy@std@@@std@@@std@@QAE@AAV?$allocator@U_Container_proxy@std@@@1@AAU_Container_base12@1@@Z 004146e0 f i CaveGenerator.obj
 0001:00013760       ??0?$_Deque_unchecked_const_iterator@V?$_Deque_val@U?$_Deque_simple_types@UVec2@@@std@@@std@@@std@@QAE@IPBU_Container_base12@1@@Z 00414760 f i CaveGenerator.obj
 0001:00013790       ??0?$_Deque_unchecked_iterator@V?$_Deque_val@U?$_Deque_simple_types@UVec2@@@std@@@std@@@std@@QAE@IPBU_Container_base12@1@@Z 00414790 f i CaveGenerator.obj
 0001:000137c0       ??0?$_Deque_val@U?$_Deque_simple_types@UVec2@@@std@@@std@@QAE@XZ 004147c0 f i CaveGenerator.obj
 0001:00013810       ??0?$_List_const_iterator@V?$_List_val@U?$_List_simple_types@UVec2@@@std@@@std@@@std@@QAE@$$QAV01@@Z 00414810 f i CaveGenerator.obj
 0001:00013840       ??0?$_List_const_iterator@V?$_List_val@U?$_List_simple_types@UVec2@@@std@@@std@@@std@@QAE@PAU?$_List_node@UVec2@@PAX@1@PBV?$_List_val@U?$_List_simple_types@UVec2@@@std@@@1@@Z 00414840 f i CaveGenerator.obj
 0001:00013870       ??0?$_List_iterator@V?$_List_val@U?$_List_simple_types@UVec2@@@std@@@std@@@std@@QAE@$$QAV01@@Z 00414870 f i CaveGenerator.obj
 0001:000138a0       ??0?$_List_iterator@V?$_List_val@U?$_List_simple_types@UVec2@@@std@@@std@@@std@@QAE@PAU?$_List_node@UVec2@@PAX@1@PBV?$_List_val@U?$_List_simple_types@UVec2@@@std@@@1@@Z 004148a0 f i CaveGenerator.obj
 0001:000138d0       ??0?$_List_node_insert_op2@V?$allocator@U?$_List_node@UVec2@@PAX@std@@@std@@@std@@QAE@AAV?$allocator@U?$_List_node@UVec2@@PAX@std@@@1@@Z 004148d0 f i CaveGenerator.obj
 0001:00013900       ??0?$_List_unchecked_const_iterator@V?$_List_val@U?$_List_simple_types@PAVRoom@@@std@@@std@@U_Iterator_base0@2@@std@@QAE@PAU?$_List_node@PAVRoom@@PAX@1@PBV?$_List_val@U?$_List_simple_types@PAVRoom@@@std@@@1@@Z 00414900 f i CaveGenerator.obj
 0001:00013930       ??0?$_List_unchecked_const_iterator@V?$_List_val@U?$_List_simple_types@UVec2@@@std@@@std@@U_Iterator_base0@2@@std@@QAE@PAU?$_List_node@UVec2@@PAX@1@PBV?$_List_val@U?$_List_simple_types@UVec2@@@std@@@1@@Z 00414930 f i CaveGenerator.obj
 0001:00013960       ??0?$_List_unchecked_const_iterator@V?$_List_val@U?$_List_simple_types@UVec2@@@std@@@std@@U_Iterator_base12@2@@std@@QAE@$$QAV01@@Z 00414960 f i CaveGenerator.obj
 0001:000139a0       ??0?$_List_unchecked_const_iterator@V?$_List_val@U?$_List_simple_types@UVec2@@@std@@@std@@U_Iterator_base12@2@@std@@QAE@PAU?$_List_node@UVec2@@PAX@1@PBV?$_List_val@U?$_List_simple_types@UVec2@@@std@@@1@@Z 004149a0 f i CaveGenerator.obj
 0001:000139e0       ??0?$_List_unchecked_const_iterator@V?$_List_val@U?$_List_simple_types@V?$list@UVec2@@V?$allocator@UVec2@@@std@@@std@@@std@@@std@@U_Iterator_base0@2@@std@@QAE@PAU?$_List_node@V?$list@UVec2@@V?$allocator@UVec2@@@std@@@std@@PAX@1@PBV?$_List_val@U?$_List_simple_types@V?$list@UVec2@@V?$allocator@UVec2@@@std@@@std@@@std@@@1@@Z 004149e0 f i CaveGenerator.obj
 0001:00013a10       ??0?$_List_unchecked_const_iterator@V?$_List_val@U?$_List_simple_types@VRoom@@@std@@@std@@U_Iterator_base0@2@@std@@QAE@PAU?$_List_node@VRoom@@PAX@1@PBV?$_List_val@U?$_List_simple_types@VRoom@@@std@@@1@@Z 00414a10 f i CaveGenerator.obj
 0001:00013a40       ??0?$_List_unchecked_iterator@V?$_List_val@U?$_List_simple_types@PAVRoom@@@std@@@std@@@std@@QAE@PAU?$_List_node@PAVRoom@@PAX@1@PBV?$_List_val@U?$_List_simple_types@PAVRoom@@@std@@@1@@Z 00414a40 f i CaveGenerator.obj
 0001:00013a70       ??0?$_List_unchecked_iterator@V?$_List_val@U?$_List_simple_types@UVec2@@@std@@@std@@@std@@QAE@PAU?$_List_node@UVec2@@PAX@1@PBV?$_List_val@U?$_List_simple_types@UVec2@@@std@@@1@@Z 00414a70 f i CaveGenerator.obj
 0001:00013aa0       ??0?$_List_unchecked_iterator@V?$_List_val@U?$_List_simple_types@V?$list@UVec2@@V?$allocator@UVec2@@@std@@@std@@@std@@@std@@@std@@QAE@PAU?$_List_node@V?$list@UVec2@@V?$allocator@UVec2@@@std@@@std@@PAX@1@PBV?$_List_val@U?$_List_simple_types@V?$list@UVec2@@V?$allocator@UVec2@@@std@@@std@@@std@@@1@@Z 00414aa0 f i CaveGenerator.obj
 0001:00013ad0       ??0?$_List_unchecked_iterator@V?$_List_val@U?$_List_simple_types@VRoom@@@std@@@std@@@std@@QAE@PAU?$_List_node@VRoom@@PAX@1@PBV?$_List_val@U?$_List_simple_types@VRoom@@@std@@@1@@Z 00414ad0 f i CaveGenerator.obj
 0001:00013b00       ??0?$_List_val@U?$_List_simple_types@PAVRoom@@@std@@@std@@QAE@XZ 00414b00 f i CaveGenerator.obj
 0001:00013b40       ??0?$_List_val@U?$_List_simple_types@UVec2@@@std@@@std@@QAE@XZ 00414b40 f i CaveGenerator.obj
 0001:00013b80       ??0?$_List_val@U?$_List_simple_types@V?$list@UVec2@@V?$allocator@UVec2@@@std@@@std@@@std@@@std@@QAE@XZ 00414b80 f i CaveGenerator.obj
 0001:00013bc0       ??0?$_List_val@U?$_List_simple_types@VRoom@@@std@@@std@@QAE@XZ 00414bc0 f i CaveGenerator.obj
 0001:00013c00       ??0?$allocator@U?$_List_node@PAVRoom@@PAX@std@@@std@@QAE@XZ 00414c00 f i CaveGenerator.obj
 0001:00013c20       ??0?$allocator@U?$_List_node@UVec2@@PAX@std@@@std@@QAE@XZ 00414c20 f i CaveGenerator.obj
 0001:00013c40       ??0?$allocator@U?$_List_node@V?$list@UVec2@@V?$allocator@UVec2@@@std@@@std@@PAX@std@@@std@@QAE@XZ 00414c40 f i CaveGenerator.obj
 0001:00013c60       ??0?$allocator@U?$_List_node@VRoom@@PAX@std@@@std@@QAE@XZ 00414c60 f i CaveGenerator.obj
 0001:00013c80       ??0?$allocator@UVec2@@@std@@QAE@XZ 00414c80 f i CaveGenerator.obj
 0001:00013ca0       ??0?$deque@UVec2@@V?$allocator@UVec2@@@std@@@std@@QAE@XZ 00414ca0 f i CaveGenerator.obj
 0001:00013cf0       ??0?$list@PAVRoom@@V?$allocator@PAVRoom@@@std@@@std@@QAE@XZ 00414cf0 f i CaveGenerator.obj
 0001:00013d20       ??0?$list@UVec2@@V?$allocator@UVec2@@@std@@@std@@QAE@$$QAV01@@Z 00414d20 f i CaveGenerator.obj
 0001:00013d80       ??0?$list@UVec2@@V?$allocator@UVec2@@@std@@@std@@QAE@ABV01@@Z 00414d80 f i CaveGenerator.obj
 0001:00013e00       ??0?$list@UVec2@@V?$allocator@UVec2@@@std@@@std@@QAE@XZ 00414e00 f i CaveGenerator.obj
 0001:00013e30       ??0?$list@V?$list@UVec2@@V?$allocator@UVec2@@@std@@@std@@V?$allocator@V?$list@UVec2@@V?$allocator@UVec2@@@std@@@std@@@2@@std@@QAE@XZ 00414e30 f i CaveGenerator.obj
 0001:00013e60       ??0?$list@VRoom@@V?$allocator@VRoom@@@std@@@std@@QAE@$$QAV01@@Z 00414e60 f i CaveGenerator.obj
 0001:00013ec0       ??0?$list@VRoom@@V?$allocator@VRoom@@@std@@@std@@QAE@XZ 00414ec0 f i CaveGenerator.obj
 0001:00013ef0       ??0?$queue@UVec2@@V?$deque@UVec2@@V?$allocator@UVec2@@@std@@@std@@@std@@QAE@XZ 00414ef0 f i CaveGenerator.obj
 0001:00013f50       ??0CaveGenerator@@IAE@HHH@Z 00414f50 f i CaveGenerator.obj
 0001:00014020       ??0Room@@QAE@$$QAV0@@Z     00415020 f i CaveGenerator.obj
 0001:00014100       ??0TileManager@@QAE@HHHH@Z 00415100 f i CaveGenerator.obj
 0001:00014190       ??0Vec2@@QAE@HH@Z          00415190 f i CaveGenerator.obj
 0001:000141c0       ??0Vec2@@QAE@XZ            004151c0 f i CaveGenerator.obj
 0001:000141f0       ??0Zy21586TileManager@@QAE@HHH@Z 004151f0 f i CaveGenerator.obj
 0001:00014230       ??0_Iterator_base12@std@@QAE@ABU01@@Z 00415230 f i CaveGenerator.obj
 0001:00014270       ??0_Iterator_base12@std@@QAE@XZ 00415270 f i CaveGenerator.obj
 0001:000142a0       ??1?$_Alloc_construct_ptr@V?$allocator@U?$_List_node@PAVRoom@@PAX@std@@@std@@@std@@QAE@XZ 004152a0 f i CaveGenerator.obj
 0001:00014310       ??1?$_Alloc_construct_ptr@V?$allocator@U?$_List_node@UVec2@@PAX@std@@@std@@@std@@QAE@XZ 00415310 f i CaveGenerator.obj
 0001:00014380       ??1?$_Alloc_construct_ptr@V?$allocator@U?$_List_node@V?$list@UVec2@@V?$allocator@UVec2@@@std@@@std@@PAX@std@@@std@@@std@@QAE@XZ 00415380 f i CaveGenerator.obj
 0001:000143f0       ??1?$_Alloc_construct_ptr@V?$allocator@U?$_List_node@VRoom@@PAX@std@@@std@@@std@@QAE@XZ 004153f0 f i CaveGenerator.obj
 0001:00014460       ??1?$_Container_proxy_ptr12@V?$allocator@U_Container_proxy@std@@@std@@@std@@QAE@XZ 00415460 f i CaveGenerator.obj
 0001:000144a0       ??1?$_List_const_iterator@V?$_List_val@U?$_List_simple_types@UVec2@@@std@@@std@@@std@@QAE@XZ 004154a0 f i CaveGenerator.obj
 0001:000144c0       ??1?$_List_iterator@V?$_List_val@U?$_List_simple_types@UVec2@@@std@@@std@@@std@@QAE@XZ 004154c0 f i CaveGenerator.obj
 0001:000144e0       ??1?$_List_node_emplace_op2@V?$allocator@U?$_List_node@PAVRoom@@PAX@std@@@std@@@std@@QAE@XZ 004154e0 f i CaveGenerator.obj
 0001:00014570       ??1?$_List_node_emplace_op2@V?$allocator@U?$_List_node@UVec2@@PAX@std@@@std@@@std@@QAE@XZ 00415570 f i CaveGenerator.obj
 0001:00014600       ??1?$_List_node_emplace_op2@V?$allocator@U?$_List_node@V?$list@UVec2@@V?$allocator@UVec2@@@std@@@std@@PAX@std@@@std@@@std@@QAE@XZ 00415600 f i CaveGenerator.obj
 0001:00014690       ??1?$_List_node_emplace_op2@V?$allocator@U?$_List_node@VRoom@@PAX@std@@@std@@@std@@QAE@XZ 00415690 f i CaveGenerator.obj
 0001:00014720       ??1?$_List_node_insert_op2@V?$allocator@U?$_List_node@UVec2@@PAX@std@@@std@@@std@@QAE@XZ 00415720 f i CaveGenerator.obj
 0001:000147c0       ??1?$_List_unchecked_const_iterator@V?$_List_val@U?$_List_simple_types@UVec2@@@std@@@std@@U_Iterator_base12@2@@std@@QAE@XZ 004157c0 f i CaveGenerator.obj
 0001:000147e0       ??1?$deque@UVec2@@V?$allocator@UVec2@@@std@@@std@@QAE@XZ 004157e0 f i CaveGenerator.obj
 0001:00014850       ??1?$list@PAVRoom@@V?$allocator@PAVRoom@@@std@@@std@@QAE@XZ 00415850 f i CaveGenerator.obj
 0001:000148a0       ??1?$list@UVec2@@V?$allocator@UVec2@@@std@@@std@@QAE@XZ 004158a0 f i CaveGenerator.obj
 0001:000148f0       ??1?$list@V?$list@UVec2@@V?$allocator@UVec2@@@std@@@std@@V?$allocator@V?$list@UVec2@@V?$allocator@UVec2@@@std@@@std@@@2@@std@@QAE@XZ 004158f0 f i CaveGenerator.obj
 0001:00014940       ??1?$list@VRoom@@V?$allocator@VRoom@@@std@@@std@@QAE@XZ 00415940 f i CaveGenerator.obj
 0001:00014990       ??1?$queue@UVec2@@V?$deque@UVec2@@V?$allocator@UVec2@@@std@@@std@@@std@@QAE@XZ 00415990 f i CaveGenerator.obj
 0001:000149b0       ??1CaveGenerator@@UAE@XZ   004159b0 f i CaveGenerator.obj
 0001:000149f0       ??1Room@@QAE@XZ            004159f0 f i CaveGenerator.obj
 0001:00014a30       ??1TileManager@@UAE@XZ     00415a30 f i CaveGenerator.obj
 0001:00014a80       ??1Zy21586TileManager@@UAE@XZ 00415a80 f i CaveGenerator.obj
 0001:00014ab0       ??1_Iterator_base12@std@@QAE@XZ 00415ab0 f i CaveGenerator.obj
 0001:00014af0       ??4_Iterator_base12@std@@QAEAAU01@ABU01@@Z 00415af0 f i CaveGenerator.obj
 0001:00014b60       ??8?$_List_const_iterator@V?$_List_val@U?$_List_simple_types@UVec2@@@std@@@std@@@std@@QBE_NABV01@@Z 00415b60 f i CaveGenerator.obj
 0001:00014c20       ??8?$_List_unchecked_const_iterator@V?$_List_val@U?$_List_simple_types@PAVRoom@@@std@@@std@@U_Iterator_base0@2@@std@@QBE_NABV01@@Z 00415c20 f i CaveGenerator.obj
 0001:00014c60       ??8?$_List_unchecked_const_iterator@V?$_List_val@U?$_List_simple_types@UVec2@@@std@@@std@@U_Iterator_base0@2@@std@@QBE_NABV01@@Z 00415c60 f i CaveGenerator.obj
 0001:00014ca0       ??8?$_List_unchecked_const_iterator@V?$_List_val@U?$_List_simple_types@V?$list@UVec2@@V?$allocator@UVec2@@@std@@@std@@@std@@@std@@U_Iterator_base0@2@@std@@QBE_NABV01@@Z 00415ca0 f i CaveGenerator.obj
 0001:00014ce0       ??8?$_List_unchecked_const_iterator@V?$_List_val@U?$_List_simple_types@VRoom@@@std@@@std@@U_Iterator_base0@2@@std@@QBE_NABV01@@Z 00415ce0 f i CaveGenerator.obj
 0001:00014d20       ??9?$_List_const_iterator@V?$_List_val@U?$_List_simple_types@UVec2@@@std@@@std@@@std@@QBE_NABV01@@Z 00415d20 f i CaveGenerator.obj
 0001:00014d70       ??9?$_List_unchecked_const_iterator@V?$_List_val@U?$_List_simple_types@PAVRoom@@@std@@@std@@U_Iterator_base0@2@@std@@QBE_NABV01@@Z 00415d70 f i CaveGenerator.obj
 0001:00014dc0       ??9?$_List_unchecked_const_iterator@V?$_List_val@U?$_List_simple_types@UVec2@@@std@@@std@@U_Iterator_base0@2@@std@@QBE_NABV01@@Z 00415dc0 f i CaveGenerator.obj
 0001:00014e10       ??9?$_List_unchecked_const_iterator@V?$_List_val@U?$_List_simple_types@V?$list@UVec2@@V?$allocator@UVec2@@@std@@@std@@@std@@@std@@U_Iterator_base0@2@@std@@QBE_NABV01@@Z 00415e10 f i CaveGenerator.obj
 0001:00014e60       ??9?$_List_unchecked_const_iterator@V?$_List_val@U?$_List_simple_types@VRoom@@@std@@@std@@U_Iterator_base0@2@@std@@QBE_NABV01@@Z 00415e60 f i CaveGenerator.obj
 0001:00014eb0       ??C?$_List_const_iterator@V?$_List_val@U?$_List_simple_types@UVec2@@@std@@@std@@@std@@QBEPBUVec2@@XZ 00415eb0 f i CaveGenerator.obj
 0001:00014ee0       ??D?$_Deque_unchecked_const_iterator@V?$_Deque_val@U?$_Deque_simple_types@UVec2@@@std@@@std@@@std@@QBEABUVec2@@XZ 00415ee0 f i CaveGenerator.obj
 0001:00014f40       ??D?$_Deque_unchecked_iterator@V?$_Deque_val@U?$_Deque_simple_types@UVec2@@@std@@@std@@@std@@QBEAAUVec2@@XZ 00415f40 f i CaveGenerator.obj
 0001:00014f60       ??D?$_List_const_iterator@V?$_List_val@U?$_List_simple_types@UVec2@@@std@@@std@@@std@@QBEABUVec2@@XZ 00415f60 f i CaveGenerator.obj
 0001:00015070       ??D?$_List_iterator@V?$_List_val@U?$_List_simple_types@UVec2@@@std@@@std@@@std@@QBEAAUVec2@@XZ 00416070 f i CaveGenerator.obj
 0001:00015090       ??D?$_List_unchecked_const_iterator@V?$_List_val@U?$_List_simple_types@PAVRoom@@@std@@@std@@U_Iterator_base0@2@@std@@QBEABQAVRoom@@XZ 00416090 f i CaveGenerator.obj
 0001:000150b0       ??D?$_List_unchecked_const_iterator@V?$_List_val@U?$_List_simple_types@UVec2@@@std@@@std@@U_Iterator_base0@2@@std@@QBEABUVec2@@XZ 004160b0 f i CaveGenerator.obj
 0001:000150d0       ??D?$_List_unchecked_const_iterator@V?$_List_val@U?$_List_simple_types@V?$list@UVec2@@V?$allocator@UVec2@@@std@@@std@@@std@@@std@@U_Iterator_base0@2@@std@@QBEABV?$list@UVec2@@V?$allocator@UVec2@@@std@@@1@XZ 004160d0 f i CaveGenerator.obj
 0001:000150f0       ??D?$_List_unchecked_const_iterator@V?$_List_val@U?$_List_simple_types@VRoom@@@std@@@std@@U_Iterator_base0@2@@std@@QBEABVRoom@@XZ 004160f0 f i CaveGenerator.obj
 0001:00015110       ??D?$_List_unchecked_iterator@V?$_List_val@U?$_List_simple_types@PAVRoom@@@std@@@std@@@std@@QBEAAPAVRoom@@XZ 00416110 f i CaveGenerator.obj
 0001:00015130       ??D?$_List_unchecked_iterator@V?$_List_val@U?$_List_simple_types@UVec2@@@std@@@std@@@std@@QBEAAUVec2@@XZ 00416130 f i CaveGenerator.obj
 0001:00015150       ??D?$_List_unchecked_iterator@V?$_List_val@U?$_List_simple_types@V?$list@UVec2@@V?$allocator@UVec2@@@std@@@std@@@std@@@std@@@std@@QBEAAV?$list@UVec2@@V?$allocator@UVec2@@@std@@@1@XZ 00416150 f i CaveGenerator.obj
 0001:00015170       ??D?$_List_unchecked_iterator@V?$_List_val@U?$_List_simple_types@VRoom@@@std@@@std@@@std@@QBEAAVRoom@@XZ 00416170 f i CaveGenerator.obj
 0001:00015190       ??E?$_List_const_iterator@V?$_List_val@U?$_List_simple_types@UVec2@@@std@@@std@@@std@@QAEAAV01@XZ 00416190 f i CaveGenerator.obj
 0001:000152b0       ??E?$_List_iterator@V?$_List_val@U?$_List_simple_types@UVec2@@@std@@@std@@@std@@QAEAAV01@XZ 004162b0 f i CaveGenerator.obj
 0001:000152d0       ??E?$_List_unchecked_const_iterator@V?$_List_val@U?$_List_simple_types@PAVRoom@@@std@@@std@@U_Iterator_base0@2@@std@@QAEAAV01@XZ 004162d0 f i CaveGenerator.obj
 0001:000152f0       ??E?$_List_unchecked_const_iterator@V?$_List_val@U?$_List_simple_types@UVec2@@@std@@@std@@U_Iterator_base0@2@@std@@QAEAAV01@XZ 004162f0 f i CaveGenerator.obj
 0001:00015310       ??E?$_List_unchecked_const_iterator@V?$_List_val@U?$_List_simple_types@V?$list@UVec2@@V?$allocator@UVec2@@@std@@@std@@@std@@@std@@U_Iterator_base0@2@@std@@QAEAAV01@XZ 00416310 f i CaveGenerator.obj
 0001:00015330       ??E?$_List_unchecked_const_iterator@V?$_List_val@U?$_List_simple_types@VRoom@@@std@@@std@@U_Iterator_base0@2@@std@@QAEAAV01@XZ 00416330 f i CaveGenerator.obj
 0001:00015350       ??E?$_List_unchecked_iterator@V?$_List_val@U?$_List_simple_types@PAVRoom@@@std@@@std@@@std@@QAEAAV01@XZ 00416350 f i CaveGenerator.obj
 0001:00015370       ??E?$_List_unchecked_iterator@V?$_List_val@U?$_List_simple_types@UVec2@@@std@@@std@@@std@@QAEAAV01@XZ 00416370 f i CaveGenerator.obj
 0001:00015390       ??E?$_List_unchecked_iterator@V?$_List_val@U?$_List_simple_types@V?$list@UVec2@@V?$allocator@UVec2@@@std@@@std@@@std@@@std@@@std@@QAEAAV01@XZ 00416390 f i CaveGenerator.obj
 0001:000153b0       ??E?$_List_unchecked_iterator@V?$_List_val@U?$_List_simple_types@VRoom@@@std@@@std@@@std@@QAEAAV01@XZ 004163b0 f i CaveGenerator.obj
 0001:000153d0       ??F?$_List_const_iterator@V?$_List_val@U?$_List_simple_types@UVec2@@@std@@@std@@@std@@QAEAAV01@XZ 004163d0 f i CaveGenerator.obj
 0001:000154f0       ??F?$_List_iterator@V?$_List_val@U?$_List_simple_types@UVec2@@@std@@@std@@@std@@QAEAAV01@XZ 004164f0 f i CaveGenerator.obj
 0001:00015510       ??RRoomComparator@@QAE_NABVRoom@@0@Z 00416510 f i CaveGenerator.obj
 0001:00015590       ??_G?$list@UVec2@@V?$allocator@UVec2@@@std@@@std@@QAEPAXI@Z 00416590 f i CaveGenerator.obj
 0001:000155d0       ??_ECaveGenerator@@UAEPAXI@Z 004165d0 f i CaveGenerator.obj
 0001:000155d0       ??_GCaveGenerator@@UAEPAXI@Z 004165d0 f i CaveGenerator.obj
 0001:00015610       ??_GRoom@@QAEPAXI@Z        00416610 f i CaveGenerator.obj
 0001:00015650       ??_GTileManager@@UAEPAXI@Z 00416650 f i CaveGenerator.obj
 0001:00015650       ??_ETileManager@@UAEPAXI@Z 00416650 f i CaveGenerator.obj
 0001:00015690       ??_GZy21586TileManager@@UAEPAXI@Z 00416690 f i CaveGenerator.obj
 0001:00015690       ??_EZy21586TileManager@@UAEPAXI@Z 00416690 f i CaveGenerator.obj
 0001:000156d0       ?_Adopt@_Iterator_base0@std@@QAEXPBX@Z 004166d0 f i CaveGenerator.obj
 0001:000156e0       ?_Adopt@_Iterator_base12@std@@QAEXPBU_Container_base12@2@@Z 004166e0 f i CaveGenerator.obj
 0001:00015780       ?_Alloc_sentinel_and_proxy@?$list@PAVRoom@@V?$allocator@PAVRoom@@@std@@@std@@AAEXXZ 00416780 f i CaveGenerator.obj
 0001:00015870       ?_Alloc_sentinel_and_proxy@?$list@UVec2@@V?$allocator@UVec2@@@std@@@std@@AAEXXZ 00416870 f i CaveGenerator.obj
 0001:00015960       ?_Alloc_sentinel_and_proxy@?$list@V?$list@UVec2@@V?$allocator@UVec2@@@std@@@std@@V?$allocator@V?$list@UVec2@@V?$allocator@UVec2@@@std@@@std@@@2@@std@@AAEXXZ 00416960 f i CaveGenerator.obj
 0001:00015a50       ?_Alloc_sentinel_and_proxy@?$list@VRoom@@V?$allocator@VRoom@@@std@@@std@@AAEXXZ 00416a50 f i CaveGenerator.obj
 0001:00015b40       ?_Allocate@?$_Alloc_construct_ptr@V?$allocator@U?$_List_node@PAVRoom@@PAX@std@@@std@@@std@@QAEXXZ 00416b40 f i CaveGenerator.obj
 0001:00015b70       ?_Allocate@?$_Alloc_construct_ptr@V?$allocator@U?$_List_node@UVec2@@PAX@std@@@std@@@std@@QAEXXZ 00416b70 f i CaveGenerator.obj
 0001:00015ba0       ?_Allocate@?$_Alloc_construct_ptr@V?$allocator@U?$_List_node@V?$list@UVec2@@V?$allocator@UVec2@@@std@@@std@@PAX@std@@@std@@@std@@QAEXXZ 00416ba0 f i CaveGenerator.obj
 0001:00015bd0       ?_Allocate@?$_Alloc_construct_ptr@V?$allocator@U?$_List_node@VRoom@@PAX@std@@@std@@@std@@QAEXXZ 00416bd0 f i CaveGenerator.obj
 0001:00015c00       ?_Get_data@?$deque@UVec2@@V?$allocator@UVec2@@@std@@@std@@AAEAAV?$_Deque_val@U?$_Deque_simple_types@UVec2@@@std@@@2@XZ 00416c00 f i CaveGenerator.obj
 0001:00015c20       ?_Get_data@?$deque@UVec2@@V?$allocator@UVec2@@@std@@@std@@ABEABV?$_Deque_val@U?$_Deque_simple_types@UVec2@@@std@@@2@XZ 00416c20 f i CaveGenerator.obj
 0001:00015c40       ?_Get_first@?$_Compressed_pair@V?$allocator@U?$_List_node@PAVRoom@@PAX@std@@@std@@V?$_List_val@U?$_List_simple_types@PAVRoom@@@std@@@2@$00@std@@QAEAAV?$allocator@U?$_List_node@PAVRoom@@PAX@std@@@2@XZ 00416c40 f i CaveGenerator.obj
 0001:00015c60       ?_Get_first@?$_Compressed_pair@V?$allocator@U?$_List_node@PAVRoom@@PAX@std@@@std@@V?$_List_val@U?$_List_simple_types@PAVRoom@@@std@@@2@$00@std@@QBEABV?$allocator@U?$_List_node@PAVRoom@@PAX@std@@@2@XZ 00416c60 f i CaveGenerator.obj
 0001:00015c80       ?_Get_first@?$_Compressed_pair@V?$allocator@U?$_List_node@UVec2@@PAX@std@@@std@@V?$_List_val@U?$_List_simple_types@UVec2@@@std@@@2@$00@std@@QAEAAV?$allocator@U?$_List_node@UVec2@@PAX@std@@@2@XZ 00416c80 f i CaveGenerator.obj
 0001:00015ca0       ?_Get_first@?$_Compressed_pair@V?$allocator@U?$_List_node@UVec2@@PAX@std@@@std@@V?$_List_val@U?$_List_simple_types@UVec2@@@std@@@2@$00@std@@QBEABV?$allocator@U?$_List_node@UVec2@@PAX@std@@@2@XZ 00416ca0 f i CaveGenerator.obj
 0001:00015cc0       ?_Get_first@?$_Compressed_pair@V?$allocator@U?$_List_node@V?$list@UVec2@@V?$allocator@UVec2@@@std@@@std@@PAX@std@@@std@@V?$_List_val@U?$_List_simple_types@V?$list@UVec2@@V?$allocator@UVec2@@@std@@@std@@@std@@@2@$00@std@@QAEAAV?$allocator@U?$_List_node@V?$list@UVec2@@V?$allocator@UVec2@@@std@@@std@@PAX@std@@@2@XZ 00416cc0 f i CaveGenerator.obj
 0001:00015ce0       ?_Get_first@?$_Compressed_pair@V?$allocator@U?$_List_node@V?$list@UVec2@@V?$allocator@UVec2@@@std@@@std@@PAX@std@@@std@@V?$_List_val@U?$_List_simple_types@V?$list@UVec2@@V?$allocator@UVec2@@@std@@@std@@@std@@@2@$00@std@@QBEABV?$allocator@U?$_List_node@V?$list@UVec2@@V?$allocator@UVec2@@@std@@@std@@PAX@std@@@2@XZ 00416ce0 f i CaveGenerator.obj
 0001:00015d00       ?_Get_first@?$_Compressed_pair@V?$allocator@U?$_List_node@VRoom@@PAX@std@@@std@@V?$_List_val@U?$_List_simple_types@VRoom@@@std@@@2@$00@std@@QAEAAV?$allocator@U?$_List_node@VRoom@@PAX@std@@@2@XZ 00416d00 f i CaveGenerator.obj
 0001:00015d20       ?_Get_first@?$_Compressed_pair@V?$allocator@U?$_List_node@VRoom@@PAX@std@@@std@@V?$_List_val@U?$_List_simple_types@VRoom@@@std@@@2@$00@std@@QBEABV?$allocator@U?$_List_node@VRoom@@PAX@std@@@2@XZ 00416d20 f i CaveGenerator.obj
 0001:00015d40       ?_Get_first@?$_Compressed_pair@V?$allocator@UVec2@@@std@@V?$_Deque_val@U?$_Deque_simple_types@UVec2@@@std@@@2@$00@std@@QAEAAV?$allocator@UVec2@@@2@XZ 00416d40 f i CaveGenerator.obj
 0001:00015d60       ?_Get_first@?$_Compressed_pair@V?$allocator@UVec2@@@std@@V?$_Deque_val@U?$_Deque_simple_types@UVec2@@@std@@@2@$00@std@@QBEABV?$allocator@UVec2@@@2@XZ 00416d60 f i CaveGenerator.obj
 0001:00015d80       ?_Getal@?$deque@UVec2@@V?$allocator@UVec2@@@std@@@std@@AAEAAV?$allocator@UVec2@@@2@XZ 00416d80 f i CaveGenerator.obj
 0001:00015da0       ?_Getal@?$deque@UVec2@@V?$allocator@UVec2@@@std@@@std@@ABEABV?$allocator@UVec2@@@2@XZ 00416da0 f i CaveGenerator.obj
 0001:00015dc0       ?_Getal@?$list@PAVRoom@@V?$allocator@PAVRoom@@@std@@@std@@AAEAAV?$allocator@U?$_List_node@PAVRoom@@PAX@std@@@2@XZ 00416dc0 f i CaveGenerator.obj
 0001:00015de0       ?_Getal@?$list@PAVRoom@@V?$allocator@PAVRoom@@@std@@@std@@ABEABV?$allocator@U?$_List_node@PAVRoom@@PAX@std@@@2@XZ 00416de0 f i CaveGenerator.obj
 0001:00015e00       ?_Getal@?$list@UVec2@@V?$allocator@UVec2@@@std@@@std@@AAEAAV?$allocator@U?$_List_node@UVec2@@PAX@std@@@2@XZ 00416e00 f i CaveGenerator.obj
 0001:00015e20       ?_Getal@?$list@UVec2@@V?$allocator@UVec2@@@std@@@std@@ABEABV?$allocator@U?$_List_node@UVec2@@PAX@std@@@2@XZ 00416e20 f i CaveGenerator.obj
 0001:00015e40       ?_Getal@?$list@V?$list@UVec2@@V?$allocator@UVec2@@@std@@@std@@V?$allocator@V?$list@UVec2@@V?$allocator@UVec2@@@std@@@std@@@2@@std@@AAEAAV?$allocator@U?$_List_node@V?$list@UVec2@@V?$allocator@UVec2@@@std@@@std@@PAX@std@@@2@XZ 00416e40 f i CaveGenerator.obj
 0001:00015e60       ?_Getal@?$list@V?$list@UVec2@@V?$allocator@UVec2@@@std@@@std@@V?$allocator@V?$list@UVec2@@V?$allocator@UVec2@@@std@@@std@@@2@@std@@ABEABV?$allocator@U?$_List_node@V?$list@UVec2@@V?$allocator@UVec2@@@std@@@std@@PAX@std@@@2@XZ 00416e60 f i CaveGenerator.obj
 0001:00015e80       ?_Getal@?$list@VRoom@@V?$allocator@VRoom@@@std@@@std@@AAEAAV?$allocator@U?$_List_node@VRoom@@PAX@std@@@2@XZ 00416e80 f i CaveGenerator.obj
 0001:00015ea0       ?_Getal@?$list@VRoom@@V?$allocator@VRoom@@@std@@@std@@ABEABV?$allocator@U?$_List_node@VRoom@@PAX@std@@@2@XZ 00416ea0 f i CaveGenerator.obj
 0001:00015ec0       ?_Getblock@?$_Deque_val@U?$_Deque_simple_types@UVec2@@@std@@@std@@QBEII@Z 00416ec0 f i CaveGenerator.obj
 0001:00015ef0       ?_Getblock@?$deque@UVec2@@V?$allocator@UVec2@@@std@@@std@@ABEII@Z 00416ef0 f i CaveGenerator.obj
 0001:00015f20       ?_Getcont@_Iterator_base12@std@@QBEPBU_Container_base12@2@XZ 00416f20 f i CaveGenerator.obj
 0001:00015f60       ?_Growmap@?$deque@UVec2@@V?$allocator@UVec2@@@std@@@std@@AAEXI@Z 00416f60 f i CaveGenerator.obj
 0001:00016240       ?_Map@?$deque@UVec2@@V?$allocator@UVec2@@@std@@@std@@AAEAAPAPAUVec2@@XZ 00417240 f i CaveGenerator.obj
 0001:00016260       ?_Mapsize@?$deque@UVec2@@V?$allocator@UVec2@@@std@@@std@@AAEAAIXZ 00417260 f i CaveGenerator.obj
 0001:00016280       ?_Myoff@?$deque@UVec2@@V?$allocator@UVec2@@@std@@@std@@AAEAAIXZ 00417280 f i CaveGenerator.obj
 0001:000162a0       ?_Myoff@?$deque@UVec2@@V?$allocator@UVec2@@@std@@@std@@ABEABIXZ 004172a0 f i CaveGenerator.obj
 0001:000162c0       ?_Mysize@?$deque@UVec2@@V?$allocator@UVec2@@@std@@@std@@AAEAAIXZ 004172c0 f i CaveGenerator.obj
 0001:000162e0       ?_Mysize@?$deque@UVec2@@V?$allocator@UVec2@@@std@@@std@@ABEABIXZ 004172e0 f i CaveGenerator.obj
 0001:00016300       ?_Orphan_all@?$deque@UVec2@@V?$allocator@UVec2@@@std@@@std@@AAEXXZ 00417300 f i CaveGenerator.obj
 0001:00016320       ?_Orphan_me@_Iterator_base12@std@@QAEXXZ 00417320 f i CaveGenerator.obj
 0001:00016400       ?_Orphan_off@?$deque@UVec2@@V?$allocator@UVec2@@@std@@@std@@ABEXI@Z 00417400 f i CaveGenerator.obj
 0001:00016500       ?_Release@?$_Alloc_construct_ptr@V?$allocator@U?$_List_node@UVec2@@PAX@std@@@std@@@std@@QAEPAU?$_List_node@UVec2@@PAX@2@XZ 00417500 f i CaveGenerator.obj
 0001:00016530       ?_Release@_Basic_container_proxy_ptr12@std@@QAEXXZ 00417530 f i CaveGenerator.obj
 0001:00016550       ?_Swap_proxy_and_iterators@_Container_base12@std@@QAEXAAU12@@Z 00417550 f i CaveGenerator.obj
 0001:000165d0       ?_Swap_val@?$list@UVec2@@V?$allocator@UVec2@@@std@@@std@@AAEXAAV12@@Z 004175d0 f i CaveGenerator.obj
 0001:00016640       ?_Swap_val@?$list@VRoom@@V?$allocator@VRoom@@@std@@@std@@AAEXAAV12@@Z 00417640 f i CaveGenerator.obj
 0001:000166b0       ?_Tidy@?$deque@UVec2@@V?$allocator@UVec2@@@std@@@std@@AAEXXZ 004176b0 f i CaveGenerator.obj
 0001:00016820       ?_Tidy@?$list@PAVRoom@@V?$allocator@PAVRoom@@@std@@@std@@AAEXXZ 00417820 f i CaveGenerator.obj
 0001:00016880       ?_Tidy@?$list@UVec2@@V?$allocator@UVec2@@@std@@@std@@AAEXXZ 00417880 f i CaveGenerator.obj
 0001:000168e0       ?_Tidy@?$list@V?$list@UVec2@@V?$allocator@UVec2@@@std@@@std@@V?$allocator@V?$list@UVec2@@V?$allocator@UVec2@@@std@@@std@@@2@@std@@AAEXXZ 004178e0 f i CaveGenerator.obj
 0001:00016940       ?_Tidy@?$list@VRoom@@V?$allocator@VRoom@@@std@@@std@@AAEXXZ 00417940 f i CaveGenerator.obj
 0001:000169a0       ?_Transfer_before@?$_List_node_emplace_op2@V?$allocator@U?$_List_node@PAVRoom@@PAX@std@@@std@@@std@@QAEPAU?$_List_node@PAVRoom@@PAX@2@QAU32@@Z 004179a0 f i CaveGenerator.obj
 0001:00016a30       ?_Transfer_before@?$_List_node_emplace_op2@V?$allocator@U?$_List_node@UVec2@@PAX@std@@@std@@@std@@QAEPAU?$_List_node@UVec2@@PAX@2@QAU32@@Z 00417a30 f i CaveGenerator.obj
 0001:00016ac0       ?_Transfer_before@?$_List_node_emplace_op2@V?$allocator@U?$_List_node@V?$list@UVec2@@V?$allocator@UVec2@@@std@@@std@@PAX@std@@@std@@@std@@QAEPAU?$_List_node@V?$list@UVec2@@V?$allocator@UVec2@@@std@@@std@@PAX@2@QAU32@@Z 00417ac0 f i CaveGenerator.obj
 0001:00016b50       ?_Transfer_before@?$_List_node_emplace_op2@V?$allocator@U?$_List_node@VRoom@@PAX@std@@@std@@@std@@QAEPAU?$_List_node@VRoom@@PAX@2@QAU32@@Z 00417b50 f i CaveGenerator.obj
 0001:00016be0       ?_Unchecked_begin@?$deque@UVec2@@V?$allocator@UVec2@@@std@@@std@@QAE?AV?$_Deque_unchecked_iterator@V?$_Deque_val@U?$_Deque_simple_types@UVec2@@@std@@@std@@@2@XZ 00417be0 f i CaveGenerator.obj
 0001:00016c30       ?_Unchecked_begin@?$list@PAVRoom@@V?$allocator@PAVRoom@@@std@@@std@@QAE?AV?$_List_unchecked_iterator@V?$_List_val@U?$_List_simple_types@PAVRoom@@@std@@@std@@@2@XZ 00417c30 f i CaveGenerator.obj
 0001:00016c60       ?_Unchecked_begin@?$list@UVec2@@V?$allocator@UVec2@@@std@@@std@@QAE?AV?$_List_unchecked_iterator@V?$_List_val@U?$_List_simple_types@UVec2@@@std@@@std@@@2@XZ 00417c60 f i CaveGenerator.obj
 0001:00016c90       ?_Unchecked_begin@?$list@UVec2@@V?$allocator@UVec2@@@std@@@std@@QBE?AV?$_List_unchecked_const_iterator@V?$_List_val@U?$_List_simple_types@UVec2@@@std@@@std@@U_Iterator_base0@2@@2@XZ 00417c90 f i CaveGenerator.obj
 0001:00016cc0       ?_Unchecked_begin@?$list@V?$list@UVec2@@V?$allocator@UVec2@@@std@@@std@@V?$allocator@V?$list@UVec2@@V?$allocator@UVec2@@@std@@@std@@@2@@std@@QAE?AV?$_List_unchecked_iterator@V?$_List_val@U?$_List_simple_types@V?$list@UVec2@@V?$allocator@UVec2@@@std@@@std@@@std@@@std@@@2@XZ 00417cc0 f i CaveGenerator.obj
 0001:00016cf0       ?_Unchecked_begin@?$list@VRoom@@V?$allocator@VRoom@@@std@@@std@@QAE?AV?$_List_unchecked_iterator@V?$_List_val@U?$_List_simple_types@VRoom@@@std@@@std@@@2@XZ 00417cf0 f i CaveGenerator.obj
 0001:00016d20       ?_Unchecked_end@?$list@PAVRoom@@V?$allocator@PAVRoom@@@std@@@std@@QAE?AV?$_List_unchecked_iterator@V?$_List_val@U?$_List_simple_types@PAVRoom@@@std@@@std@@@2@XZ 00417d20 f i CaveGenerator.obj
 0001:00016d50       ?_Unchecked_end@?$list@UVec2@@V?$allocator@UVec2@@@std@@@std@@QAE?AV?$_List_unchecked_iterator@V?$_List_val@U?$_List_simple_types@UVec2@@@std@@@std@@@2@XZ 00417d50 f i CaveGenerator.obj
 0001:00016d80       ?_Unchecked_end@?$list@UVec2@@V?$allocator@UVec2@@@std@@@std@@QBE?AV?$_List_unchecked_const_iterator@V?$_List_val@U?$_List_simple_types@UVec2@@@std@@@std@@U_Iterator_base0@2@@2@XZ 00417d80 f i CaveGenerator.obj
 0001:00016db0       ?_Unchecked_end@?$list@V?$list@UVec2@@V?$allocator@UVec2@@@std@@@std@@V?$allocator@V?$list@UVec2@@V?$allocator@UVec2@@@std@@@std@@@2@@std@@QAE?AV?$_List_unchecked_iterator@V?$_List_val@U?$_List_simple_types@V?$list@UVec2@@V?$allocator@UVec2@@@std@@@std@@@std@@@std@@@2@XZ 00417db0 f i CaveGenerator.obj
 0001:00016de0       ?_Unchecked_end@?$list@VRoom@@V?$allocator@VRoom@@@std@@@std@@QAE?AV?$_List_unchecked_iterator@V?$_List_val@U?$_List_simple_types@VRoom@@@std@@@std@@@2@XZ 00417de0 f i CaveGenerator.obj
 0001:00016e10       ?_Unchecked_splice@?$_List_val@U?$_List_simple_types@VRoom@@@std@@@std@@SAPAU?$_List_node@VRoom@@PAX@2@QAU32@00@Z 00417e10 f i CaveGenerator.obj
 0001:00016e90       ?_Xlen@?$deque@UVec2@@V?$allocator@UVec2@@@std@@@std@@ABEXXZ 00417e90 f i CaveGenerator.obj
 0001:00016eb0       ?allocate@?$allocator@PAUVec2@@@std@@QAEPAPAUVec2@@I@Z 00417eb0 f i CaveGenerator.obj
 0001:00016ee0       ?allocate@?$allocator@U?$_List_node@PAVRoom@@PAX@std@@@std@@QAEPAU?$_List_node@PAVRoom@@PAX@2@I@Z 00417ee0 f i CaveGenerator.obj
 0001:00016f10       ?allocate@?$allocator@U?$_List_node@UVec2@@PAX@std@@@std@@QAEPAU?$_List_node@UVec2@@PAX@2@I@Z 00417f10 f i CaveGenerator.obj
 0001:00016f40       ?allocate@?$allocator@U?$_List_node@V?$list@UVec2@@V?$allocator@UVec2@@@std@@@std@@PAX@std@@@std@@QAEPAU?$_List_node@V?$list@UVec2@@V?$allocator@UVec2@@@std@@@std@@PAX@2@I@Z 00417f40 f i CaveGenerator.obj
 0001:00016f70       ?allocate@?$allocator@U?$_List_node@VRoom@@PAX@std@@@std@@QAEPAU?$_List_node@VRoom@@PAX@2@I@Z 00417f70 f i CaveGenerator.obj
 0001:00016fa0       ?allocate@?$allocator@UVec2@@@std@@QAEPAUVec2@@I@Z 00417fa0 f i CaveGenerator.obj
 0001:00016fd0       ?back@?$list@VRoom@@V?$allocator@VRoom@@@std@@@std@@QAEAAVRoom@@XZ 00417fd0 f i CaveGenerator.obj
 0001:00017060       ?begin@?$list@UVec2@@V?$allocator@UVec2@@@std@@@std@@QAE?AV?$_List_iterator@V?$_List_val@U?$_List_simple_types@UVec2@@@std@@@std@@@2@XZ 00418060 f i CaveGenerator.obj
 0001:000170a0       ?begin@?$list@UVec2@@V?$allocator@UVec2@@@std@@@std@@QBE?AV?$_List_const_iterator@V?$_List_val@U?$_List_simple_types@UVec2@@@std@@@std@@@2@XZ 004180a0 f i CaveGenerator.obj
 0001:000170e0       ?deallocate@?$_Default_allocator_traits@V?$allocator@U?$_List_node@PAVRoom@@PAX@std@@@std@@@std@@SAXAAV?$allocator@U?$_List_node@PAVRoom@@PAX@std@@@2@QAU?$_List_node@PAVRoom@@PAX@2@I@Z 004180e0 f i CaveGenerator.obj
 0001:00017100       ?deallocate@?$_Default_allocator_traits@V?$allocator@U?$_List_node@UVec2@@PAX@std@@@std@@@std@@SAXAAV?$allocator@U?$_List_node@UVec2@@PAX@std@@@2@QAU?$_List_node@UVec2@@PAX@2@I@Z 00418100 f i CaveGenerator.obj
 0001:00017120       ?deallocate@?$_Default_allocator_traits@V?$allocator@U?$_List_node@V?$list@UVec2@@V?$allocator@UVec2@@@std@@@std@@PAX@std@@@std@@@std@@SAXAAV?$allocator@U?$_List_node@V?$list@UVec2@@V?$allocator@UVec2@@@std@@@std@@PAX@std@@@2@QAU?$_List_node@V?$list@UVec2@@V?$allocator@UVec2@@@std@@@std@@PAX@2@I@Z 00418120 f i CaveGenerator.obj
 0001:00017140       ?deallocate@?$_Default_allocator_traits@V?$allocator@U?$_List_node@VRoom@@PAX@std@@@std@@@std@@SAXAAV?$allocator@U?$_List_node@VRoom@@PAX@std@@@2@QAU?$_List_node@VRoom@@PAX@2@I@Z 00418140 f i CaveGenerator.obj
 0001:00017160       ?deallocate@?$_Default_allocator_traits@V?$allocator@U_Container_proxy@std@@@std@@@std@@SAXAAV?$allocator@U_Container_proxy@std@@@2@QAU_Container_proxy@2@I@Z 00418160 f i CaveGenerator.obj
 0001:00017180       ?deallocate@?$allocator@PAUVec2@@@std@@QAEXQAPAUVec2@@I@Z 00418180 f i CaveGenerator.obj
 0001:000171b0       ?deallocate@?$allocator@U?$_List_node@PAVRoom@@PAX@std@@@std@@QAEXQAU?$_List_node@PAVRoom@@PAX@2@I@Z 004181b0 f i CaveGenerator.obj
 0001:000171e0       ?deallocate@?$allocator@U?$_List_node@UVec2@@PAX@std@@@std@@QAEXQAU?$_List_node@UVec2@@PAX@2@I@Z 004181e0 f i CaveGenerator.obj
 0001:00017210       ?deallocate@?$allocator@U?$_List_node@V?$list@UVec2@@V?$allocator@UVec2@@@std@@@std@@PAX@std@@@std@@QAEXQAU?$_List_node@V?$list@UVec2@@V?$allocator@UVec2@@@std@@@std@@PAX@2@I@Z 00418210 f i CaveGenerator.obj
 0001:00017240       ?deallocate@?$allocator@U?$_List_node@VRoom@@PAX@std@@@std@@QAEXQAU?$_List_node@VRoom@@PAX@2@I@Z 00418240 f i CaveGenerator.obj
 0001:00017270       ?deallocate@?$allocator@UVec2@@@std@@QAEXQAUVec2@@I@Z 00418270 f i CaveGenerator.obj
 0001:000172a0       ?empty@?$deque@UVec2@@V?$allocator@UVec2@@@std@@@std@@QBE_NXZ 004182a0 f i CaveGenerator.obj
 0001:000172e0       ?end@?$list@UVec2@@V?$allocator@UVec2@@@std@@@std@@QAE?AV?$_List_iterator@V?$_List_val@U?$_List_simple_types@UVec2@@@std@@@std@@@2@XZ 004182e0 f i CaveGenerator.obj
 0001:00017320       ?front@?$deque@UVec2@@V?$allocator@UVec2@@@std@@@std@@QAEAAUVec2@@XZ 00418320 f i CaveGenerator.obj
 0001:00017400       ?front@?$queue@UVec2@@V?$deque@UVec2@@V?$allocator@UVec2@@@std@@@std@@@std@@QAEAAUVec2@@XZ 00418400 f i CaveGenerator.obj
 0001:00017420       ?getMapValue@TileManager@@QBEHHH@Z 00418420 f i CaveGenerator.obj
 0001:00017450       ?getTileHeight@TileManager@@QBEHXZ 00418450 f i CaveGenerator.obj
 0001:00017470       ?getTileWidth@TileManager@@QBEHXZ 00418470 f i CaveGenerator.obj
 0001:00017490       ?max_size@?$_Default_allocator_traits@V?$allocator@U?$_List_node@PAVRoom@@PAX@std@@@std@@@std@@SAIABV?$allocator@U?$_List_node@PAVRoom@@PAX@std@@@2@@Z 00418490 f i CaveGenerator.obj
 0001:000174a0       ?max_size@?$_Default_allocator_traits@V?$allocator@U?$_List_node@UVec2@@PAX@std@@@std@@@std@@SAIABV?$allocator@U?$_List_node@UVec2@@PAX@std@@@2@@Z 004184a0 f i CaveGenerator.obj
 0001:000174b0       ?max_size@?$_Default_allocator_traits@V?$allocator@U?$_List_node@V?$list@UVec2@@V?$allocator@UVec2@@@std@@@std@@PAX@std@@@std@@@std@@SAIABV?$allocator@U?$_List_node@V?$list@UVec2@@V?$allocator@UVec2@@@std@@@std@@PAX@std@@@2@@Z 004184b0 f i CaveGenerator.obj
 0001:000174c0       ?max_size@?$_Default_allocator_traits@V?$allocator@U?$_List_node@VRoom@@PAX@std@@@std@@@std@@SAIABV?$allocator@U?$_List_node@VRoom@@PAX@std@@@2@@Z 004184c0 f i CaveGenerator.obj
 0001:000174d0       ?max_size@?$_Default_allocator_traits@V?$allocator@UVec2@@@std@@@std@@SAIABV?$allocator@UVec2@@@2@@Z 004184d0 f i CaveGenerator.obj
 0001:000174e0       ?max_size@?$deque@UVec2@@V?$allocator@UVec2@@@std@@@std@@QBEIXZ 004184e0 f i CaveGenerator.obj
 0001:00017530       ?max_size@?$list@PAVRoom@@V?$allocator@PAVRoom@@@std@@@std@@QBEIXZ 00418530 f i CaveGenerator.obj
 0001:00017580       ?max_size@?$list@UVec2@@V?$allocator@UVec2@@@std@@@std@@QBEIXZ 00418580 f i CaveGenerator.obj
 0001:000175d0       ?max_size@?$list@V?$list@UVec2@@V?$allocator@UVec2@@@std@@@std@@V?$allocator@V?$list@UVec2@@V?$allocator@UVec2@@@std@@@std@@@2@@std@@QBEIXZ 004185d0 f i CaveGenerator.obj
 0001:00017620       ?max_size@?$list@VRoom@@V?$allocator@VRoom@@@std@@@std@@QBEIXZ 00418620 f i CaveGenerator.obj
 0001:00017670       ?pointer_to@?$pointer_traits@PBUVec2@@@std@@SAPBUVec2@@ABU3@@Z 00418670 f i CaveGenerator.obj
 0001:00017690       ?pop@?$queue@UVec2@@V?$deque@UVec2@@V?$allocator@UVec2@@@std@@@std@@@std@@QAEXXZ 00418690 f i CaveGenerator.obj
 0001:000176b0       ?pop_back@?$deque@UVec2@@V?$allocator@UVec2@@@std@@@std@@QAEXXZ 004186b0 f i CaveGenerator.obj
 0001:00017840       ?pop_front@?$deque@UVec2@@V?$allocator@UVec2@@@std@@@std@@QAEXXZ 00418840 f i CaveGenerator.obj
 0001:000179f0       ?push@?$queue@UVec2@@V?$deque@UVec2@@V?$allocator@UVec2@@@std@@@std@@@std@@QAEX$$QAUVec2@@@Z 004189f0 f i CaveGenerator.obj
 0001:00017a20       ?push_back@?$deque@UVec2@@V?$allocator@UVec2@@@std@@@std@@QAEX$$QAUVec2@@@Z 00418a20 f i CaveGenerator.obj
 0001:00017a60       ?push_back@?$list@PAVRoom@@V?$allocator@PAVRoom@@@std@@@std@@QAEX$$QAPAVRoom@@@Z 00418a60 f i CaveGenerator.obj
 0001:00017aa0       ?push_back@?$list@UVec2@@V?$allocator@UVec2@@@std@@@std@@QAEXABUVec2@@@Z 00418aa0 f i CaveGenerator.obj
 0001:00017ad0       ?push_back@?$list@V?$list@UVec2@@V?$allocator@UVec2@@@std@@@std@@V?$allocator@V?$list@UVec2@@V?$allocator@UVec2@@@std@@@std@@@2@@std@@QAEXABV?$list@UVec2@@V?$allocator@UVec2@@@std@@@2@@Z 00418ad0 f i CaveGenerator.obj
 0001:00017b00       ?push_back@?$list@VRoom@@V?$allocator@VRoom@@@std@@@std@@QAEX$$QAVRoom@@@Z 00418b00 f i CaveGenerator.obj
 0001:00017b40       ?select_on_container_copy_construction@?$_Default_allocator_traits@V?$allocator@U?$_List_node@UVec2@@PAX@std@@@std@@@std@@SA?AV?$allocator@U?$_List_node@UVec2@@PAX@std@@@2@ABV32@@Z 00418b40 f i CaveGenerator.obj
 0001:00017b50       ?setMapSize@TileManager@@QAEXHH@Z 00418b50 f i CaveGenerator.obj
 0001:00017c00       ?setMapValue@TileManager@@QAEHHHH@Z 00418c00 f i CaveGenerator.obj
 0001:00017c40       ?setTopLeftPositionOnScreen@TileManager@@QAEXHH@Z 00418c40 f i CaveGenerator.obj
 0001:00017c70       ?size@?$deque@UVec2@@V?$allocator@UVec2@@@std@@@std@@QBEIXZ 00418c70 f i CaveGenerator.obj
 0001:00017c90       ?size@?$list@UVec2@@V?$allocator@UVec2@@@std@@@std@@QBEIXZ 00418c90 f i CaveGenerator.obj
 0001:00017cb0       ?size@?$list@VRoom@@V?$allocator@VRoom@@@std@@@std@@QBEIXZ 00418cb0 f i CaveGenerator.obj
 0001:00017cd0       ?size@?$queue@UVec2@@V?$deque@UVec2@@V?$allocator@UVec2@@@std@@@std@@@std@@QBEIXZ 00418cd0 f i CaveGenerator.obj
 0001:00017cf0       ?checkObstacleBySquare@CollisionSystem@@SA_NHHH@Z 00418cf0 f   CollisionSystem.obj
 0001:00017f50       ?getMapXForScreenX@TileManager@@QBEHH@Z 00418f50 f i CollisionSystem.obj
 0001:00017f80       ?getMapYForScreenY@TileManager@@QBEHH@Z 00418f80 f i CollisionSystem.obj
 0001:00017fb0       ??0ConfirmButton@@IAE@HHHH@Z 00418fb0 f   ConfirmButton.obj
 0001:00018070       ?getInstance@ConfirmButton@@SAPAV1@XZ 00419070 f   ConfirmButton.obj
 0001:00018110       ??1ConfirmButton@@UAE@XZ   00419110 f   ConfirmButton.obj
 0001:00018140       ?virtStart@ConfirmButton@@UAEXXZ 00419140 f   ConfirmButton.obj
 0001:00018340       ?virtDraw@ConfirmButton@@UAEXXZ 00419340 f   ConfirmButton.obj
 0001:000184e0       ?virtDoUpdate@ConfirmButton@@UAEXH@Z 004194e0 f   ConfirmButton.obj
 0001:00018510       ?onClick@ConfirmButton@@UAEXXZ 00419510 f   ConfirmButton.obj
 0001:00018530       ?drawSprite@ConfirmButton@@UAEXXZ 00419530 f   ConfirmButton.obj
 0001:00018770       ??$?0$$V@?$_Compressed_pair@V?$allocator@D@std@@V?$_String_val@U?$_Simple_types@D@std@@@2@$00@std@@QAE@U_Zero_then_variadic_args_t@1@@Z 00419770 f i ConfirmButton.obj
 0001:000187a0       ??$?0$$V@?$_Compressed_pair@V?$allocator@U?$_Tree_node@U?$pair@$$CBV?$basic_string@DU?$char_traits@D@std@@V?$allocator@D@2@@std@@V?$shared_ptr@VRawImageData@@@2@@std@@PAX@std@@@std@@V?$_Tree_val@U?$_Tree_simple_types@U?$pair@$$CBV?$basic_string@DU?$char_traits@D@std@@V?$allocator@D@2@@std@@V?$shared_ptr@VRawImageData@@@2@@std@@@std@@@2@$00@std@@QAE@U_Zero_then_variadic_args_t@1@@Z 004197a0 f i ConfirmButton.obj
 0001:000187d0       ??$?0$$V@?$_Compressed_pair@V?$allocator@U?$_Tree_node@U?$pair@$$CBV?$basic_string@DU?$char_traits@D@std@@V?$allocator@D@2@@std@@V?$weak_ptr@VRawImageData@@@2@@std@@PAX@std@@@std@@V?$_Tree_val@U?$_Tree_simple_types@U?$pair@$$CBV?$basic_string@DU?$char_traits@D@std@@V?$allocator@D@2@@std@@V?$weak_ptr@VRawImageData@@@2@@std@@@std@@@2@$00@std@@QAE@U_Zero_then_variadic_args_t@1@@Z 004197d0 f i ConfirmButton.obj
 0001:00018800       ??$?0$$V@?$_Compressed_pair@V?$allocator@U?$_Tree_node@U?$pair@$$CBW4ButtonState@@V?$shared_ptr@VAnimation@@@std@@@std@@PAX@std@@@std@@V?$_Tree_val@U?$_Tree_simple_types@U?$pair@$$CBW4ButtonState@@V?$shared_ptr@VAnimation@@@std@@@std@@@std@@@2@$00@std@@QAE@U_Zero_then_variadic_args_t@1@@Z 00419800 f i ConfirmButton.obj
 0001:00018830       ??$?0AAPAU?$_Tree_node@U?$pair@$$CBV?$basic_string@DU?$char_traits@D@std@@V?$allocator@D@2@@std@@V?$shared_ptr@VRawImageData@@@2@@std@@PAX@std@@_N$0A@@?$pair@PAU?$_Tree_node@U?$pair@$$CBV?$basic_string@DU?$char_traits@D@std@@V?$allocator@D@2@@std@@V?$shared_ptr@VRawImageData@@@2@@std@@PAX@std@@_N@std@@QAE@AAPAU?$_Tree_node@U?$pair@$$CBV?$basic_string@DU?$char_traits@D@std@@V?$allocator@D@2@@std@@V?$shared_ptr@VRawImageData@@@2@@std@@PAX@1@$$QA_N@Z 00419830 f i ConfirmButton.obj
 0001:00018880       ??$?0AAPAU?$_Tree_node@U?$pair@$$CBV?$basic_string@DU?$char_traits@D@std@@V?$allocator@D@2@@std@@V?$weak_ptr@VRawImageData@@@2@@std@@PAX@std@@_N$0A@@?$pair@PAU?$_Tree_node@U?$pair@$$CBV?$basic_string@DU?$char_traits@D@std@@V?$allocator@D@2@@std@@V?$weak_ptr@VRawImageData@@@2@@std@@PAX@std@@_N@std@@QAE@AAPAU?$_Tree_node@U?$pair@$$CBV?$basic_string@DU?$char_traits@D@std@@V?$allocator@D@2@@std@@V?$weak_ptr@VRawImageData@@@2@@std@@PAX@1@$$QA_N@Z 00419880 f i ConfirmButton.obj
 0001:000188d0       ??$?0AAPAU?$_Tree_node@U?$pair@$$CBW4ButtonState@@V?$shared_ptr@VAnimation@@@std@@@std@@PAX@std@@_N$0A@@?$pair@PAU?$_Tree_node@U?$pair@$$CBW4ButtonState@@V?$shared_ptr@VAnimation@@@std@@@std@@PAX@std@@_N@std@@QAE@AAPAU?$_Tree_node@U?$pair@$$CBW4ButtonState@@V?$shared_ptr@VAnimation@@@std@@@std@@PAX@1@$$QA_N@Z 004198d0 f i ConfirmButton.obj
 0001:00018920       ??$?0AAV?$basic_string@DU?$char_traits@D@std@@V?$allocator@D@2@@std@@AAV?$shared_ptr@VRawImageData@@@1@$0A@@?$pair@V?$basic_string@DU?$char_traits@D@std@@V?$allocator@D@2@@std@@V?$shared_ptr@VRawImageData@@@2@@std@@QAE@AAV?$basic_string@DU?$char_traits@D@std@@V?$allocator@D@2@@1@AAV?$shared_ptr@VRawImageData@@@1@@Z 00419920 f i ConfirmButton.obj
 0001:00018970       ??$?0AAV?$basic_string@DU?$char_traits@D@std@@V?$allocator@D@2@@std@@AAV?$weak_ptr@VRawImageData@@@1@$0A@@?$pair@V?$basic_string@DU?$char_traits@D@std@@V?$allocator@D@2@@std@@V?$weak_ptr@VRawImageData@@@2@@std@@QAE@AAV?$basic_string@DU?$char_traits@D@std@@V?$allocator@D@2@@1@AAV?$weak_ptr@VRawImageData@@@1@@Z 00419970 f i ConfirmButton.obj
 0001:000189c0       ??$?0AAW4ButtonState@@AAV?$shared_ptr@VAnimation@@@std@@$0A@@?$pair@W4ButtonState@@V?$shared_ptr@VAnimation@@@std@@@std@@QAE@AAW4ButtonState@@AAV?$shared_ptr@VAnimation@@@1@@Z 004199c0 f i ConfirmButton.obj
 0001:00018a10       ??$?0ABU?$less@V?$basic_string@DU?$char_traits@D@std@@V?$allocator@D@2@@std@@@std@@U_Zero_then_variadic_args_t@1@@?$_Compressed_pair@U?$less@V?$basic_string@DU?$char_traits@D@std@@V?$allocator@D@2@@std@@@std@@V?$_Compressed_pair@V?$allocator@U?$_Tree_node@U?$pair@$$CBV?$basic_string@DU?$char_traits@D@std@@V?$allocator@D@2@@std@@V?$shared_ptr@VRawImageData@@@2@@std@@PAX@std@@@std@@V?$_Tree_val@U?$_Tree_simple_types@U?$pair@$$CBV?$basic_string@DU?$char_traits@D@std@@V?$allocator@D@2@@std@@V?$shared_ptr@VRawImageData@@@2@@std@@@std@@@2@$00@2@$00@std@@QAE@U_One_then_variadic_args_t@1@ABU?$less@V?$basic_string@DU?$char_traits@D@std@@V?$allocator@D@2@@std@@@1@$$QAU_Zero_then_variadic_args_t@1@@Z 00419a10 f i ConfirmButton.obj
 0001:00018a60       ??$?0ABU?$less@V?$basic_string@DU?$char_traits@D@std@@V?$allocator@D@2@@std@@@std@@U_Zero_then_variadic_args_t@1@@?$_Compressed_pair@U?$less@V?$basic_string@DU?$char_traits@D@std@@V?$allocator@D@2@@std@@@std@@V?$_Compressed_pair@V?$allocator@U?$_Tree_node@U?$pair@$$CBV?$basic_string@DU?$char_traits@D@std@@V?$allocator@D@2@@std@@V?$weak_ptr@VRawImageData@@@2@@std@@PAX@std@@@std@@V?$_Tree_val@U?$_Tree_simple_types@U?$pair@$$CBV?$basic_string@DU?$char_traits@D@std@@V?$allocator@D@2@@std@@V?$weak_ptr@VRawImageData@@@2@@std@@@std@@@2@$00@2@$00@std@@QAE@U_One_then_variadic_args_t@1@ABU?$less@V?$basic_string@DU?$char_traits@D@std@@V?$allocator@D@2@@std@@@1@$$QAU_Zero_then_variadic_args_t@1@@Z 00419a60 f i ConfirmButton.obj
 0001:00018ab0       ??$?0ABU?$less@W4ButtonState@@@std@@U_Zero_then_variadic_args_t@1@@?$_Compressed_pair@U?$less@W4ButtonState@@@std@@V?$_Compressed_pair@V?$allocator@U?$_Tree_node@U?$pair@$$CBW4ButtonState@@V?$shared_ptr@VAnimation@@@std@@@std@@PAX@std@@@std@@V?$_Tree_val@U?$_Tree_simple_types@U?$pair@$$CBW4ButtonState@@V?$shared_ptr@VAnimation@@@std@@@std@@@std@@@2@$00@2@$00@std@@QAE@U_One_then_variadic_args_t@1@ABU?$less@W4ButtonState@@@1@$$QAU_Zero_then_variadic_args_t@1@@Z 00419ab0 f i ConfirmButton.obj
 0001:00018b00       ??$?0D@?$allocator@U_Container_proxy@std@@@std@@QAE@ABV?$allocator@D@1@@Z 00419b00 f i ConfirmButton.obj
 0001:00018b20       ??$?0H@?$_Ref_count_obj2@VAnimation@@@std@@QAE@$$QAH@Z 00419b20 f i ConfirmButton.obj
 0001:00018bd0       ??$?0PAU?$_Tree_node@U?$pair@$$CBV?$basic_string@DU?$char_traits@D@std@@V?$allocator@D@2@@std@@V?$shared_ptr@VRawImageData@@@2@@std@@PAX@std@@_N$0A@@?$pair@PAU?$_Tree_node@U?$pair@$$CBV?$basic_string@DU?$char_traits@D@std@@V?$allocator@D@2@@std@@V?$shared_ptr@VRawImageData@@@2@@std@@PAX@std@@_N@std@@QAE@$$QAPAU?$_Tree_node@U?$pair@$$CBV?$basic_string@DU?$char_traits@D@std@@V?$allocator@D@2@@std@@V?$shared_ptr@VRawImageData@@@2@@std@@PAX@1@$$QA_N@Z 00419bd0 f i ConfirmButton.obj
 0001:00018c20       ??$?0PAU?$_Tree_node@U?$pair@$$CBV?$basic_string@DU?$char_traits@D@std@@V?$allocator@D@2@@std@@V?$weak_ptr@VRawImageData@@@2@@std@@PAX@std@@_N$0A@@?$pair@PAU?$_Tree_node@U?$pair@$$CBV?$basic_string@DU?$char_traits@D@std@@V?$allocator@D@2@@std@@V?$weak_ptr@VRawImageData@@@2@@std@@PAX@std@@_N@std@@QAE@$$QAPAU?$_Tree_node@U?$pair@$$CBV?$basic_string@DU?$char_traits@D@std@@V?$allocator@D@2@@std@@V?$weak_ptr@VRawImageData@@@2@@std@@PAX@1@$$QA_N@Z 00419c20 f i ConfirmButton.obj
 0001:00018c70       ??$?0PAU?$_Tree_node@U?$pair@$$CBW4ButtonState@@V?$shared_ptr@VAnimation@@@std@@@std@@PAX@std@@_N$0A@@?$pair@PAU?$_Tree_node@U?$pair@$$CBW4ButtonState@@V?$shared_ptr@VAnimation@@@std@@@std@@PAX@std@@_N@std@@QAE@$$QAPAU?$_Tree_node@U?$pair@$$CBW4ButtonState@@V?$shared_ptr@VAnimation@@@std@@@std@@PAX@1@$$QA_N@Z 00419c70 f i ConfirmButton.obj
 0001:00018cc0       ??$?0U?$_Tree_node@U?$pair@$$CBV?$basic_string@DU?$char_traits@D@std@@V?$allocator@D@2@@std@@V?$shared_ptr@VRawImageData@@@2@@std@@PAX@std@@@?$allocator@U_Container_proxy@std@@@std@@QAE@ABV?$allocator@U?$_Tree_node@U?$pair@$$CBV?$basic_string@DU?$char_traits@D@std@@V?$allocator@D@2@@std@@V?$shared_ptr@VRawImageData@@@2@@std@@PAX@std@@@1@@Z 00419cc0 f i ConfirmButton.obj
 0001:00018ce0       ??$?0U?$_Tree_node@U?$pair@$$CBV?$basic_string@DU?$char_traits@D@std@@V?$allocator@D@2@@std@@V?$weak_ptr@VRawImageData@@@2@@std@@PAX@std@@@?$allocator@U_Container_proxy@std@@@std@@QAE@ABV?$allocator@U?$_Tree_node@U?$pair@$$CBV?$basic_string@DU?$char_traits@D@std@@V?$allocator@D@2@@std@@V?$weak_ptr@VRawImageData@@@2@@std@@PAX@std@@@1@@Z 00419ce0 f i ConfirmButton.obj
 0001:00018d00       ??$?0U?$_Tree_node@U?$pair@$$CBW4ButtonState@@V?$shared_ptr@VAnimation@@@std@@@std@@PAX@std@@@?$allocator@U_Container_proxy@std@@@std@@QAE@ABV?$allocator@U?$_Tree_node@U?$pair@$$CBW4ButtonState@@V?$shared_ptr@VAnimation@@@std@@@std@@PAX@std@@@1@@Z 00419d00 f i ConfirmButton.obj
 0001:00018d20       ??$?0U?$pair@V?$basic_string@DU?$char_traits@D@std@@V?$allocator@D@2@@std@@V?$shared_ptr@VRawImageData@@@2@@std@@@?$_Tree_temp_node@V?$allocator@U?$_Tree_node@U?$pair@$$CBV?$basic_string@DU?$char_traits@D@std@@V?$allocator@D@2@@std@@V?$shared_ptr@VRawImageData@@@2@@std@@PAX@std@@@std@@@std@@QAE@AAV?$allocator@U?$_Tree_node@U?$pair@$$CBV?$basic_string@DU?$char_traits@D@std@@V?$allocator@D@2@@std@@V?$shared_ptr@VRawImageData@@@2@@std@@PAX@std@@@1@PAU?$_Tree_node@U?$pair@$$CBV?$basic_string@DU?$char_traits@D@std@@V?$allocator@D@2@@std@@V?$shared_ptr@VRawImageData@@@2@@std@@PAX@1@$$QAU?$pair@V?$basic_string@DU?$char_traits@D@std@@V?$allocator@D@2@@std@@V?$shared_ptr@VRawImageData@@@2@@1@@Z 00419d20 f i ConfirmButton.obj
 0001:00018e30       ??$?0U?$pair@V?$basic_string@DU?$char_traits@D@std@@V?$allocator@D@2@@std@@V?$weak_ptr@VRawImageData@@@2@@std@@@?$_Tree_temp_node@V?$allocator@U?$_Tree_node@U?$pair@$$CBV?$basic_string@DU?$char_traits@D@std@@V?$allocator@D@2@@std@@V?$weak_ptr@VRawImageData@@@2@@std@@PAX@std@@@std@@@std@@QAE@AAV?$allocator@U?$_Tree_node@U?$pair@$$CBV?$basic_string@DU?$char_traits@D@std@@V?$allocator@D@2@@std@@V?$weak_ptr@VRawImageData@@@2@@std@@PAX@std@@@1@PAU?$_Tree_node@U?$pair@$$CBV?$basic_string@DU?$char_traits@D@std@@V?$allocator@D@2@@std@@V?$weak_ptr@VRawImageData@@@2@@std@@PAX@1@$$QAU?$pair@V?$basic_string@DU?$char_traits@D@std@@V?$allocator@D@2@@std@@V?$weak_ptr@VRawImageData@@@2@@1@@Z 00419e30 f i ConfirmButton.obj
 0001:00018f40       ??$?0U?$pair@W4ButtonState@@V?$shared_ptr@VAnimation@@@std@@@std@@@?$_Tree_temp_node@V?$allocator@U?$_Tree_node@U?$pair@$$CBW4ButtonState@@V?$shared_ptr@VAnimation@@@std@@@std@@PAX@std@@@std@@@std@@QAE@AAV?$allocator@U?$_Tree_node@U?$pair@$$CBW4ButtonState@@V?$shared_ptr@VAnimation@@@std@@@std@@PAX@std@@@1@PAU?$_Tree_node@U?$pair@$$CBW4ButtonState@@V?$shared_ptr@VAnimation@@@std@@@std@@PAX@1@$$QAU?$pair@W4ButtonState@@V?$shared_ptr@VAnimation@@@std@@@1@@Z 00419f40 f i ConfirmButton.obj
 0001:00019050       ??$?0V?$_Tree_iterator@V?$_Tree_val@U?$_Tree_simple_types@U?$pair@$$CBV?$basic_string@DU?$char_traits@D@std@@V?$allocator@D@2@@std@@V?$shared_ptr@VRawImageData@@@2@@std@@@std@@@std@@@std@@AB_N$0A@@?$pair@V?$_Tree_iterator@V?$_Tree_val@U?$_Tree_simple_types@U?$pair@$$CBV?$basic_string@DU?$char_traits@D@std@@V?$allocator@D@2@@std@@V?$shared_ptr@VRawImageData@@@2@@std@@@std@@@std@@@std@@_N@std@@QAE@$$QAV?$_Tree_iterator@V?$_Tree_val@U?$_Tree_simple_types@U?$pair@$$CBV?$basic_string@DU?$char_traits@D@std@@V?$allocator@D@2@@std@@V?$shared_ptr@VRawImageData@@@2@@std@@@std@@@std@@@1@AB_N@Z 0041a050 f i ConfirmButton.obj
 0001:000190a0       ??$?0V?$_Tree_iterator@V?$_Tree_val@U?$_Tree_simple_types@U?$pair@$$CBV?$basic_string@DU?$char_traits@D@std@@V?$allocator@D@2@@std@@V?$weak_ptr@VRawImageData@@@2@@std@@@std@@@std@@@std@@AB_N$0A@@?$pair@V?$_Tree_iterator@V?$_Tree_val@U?$_Tree_simple_types@U?$pair@$$CBV?$basic_string@DU?$char_traits@D@std@@V?$allocator@D@2@@std@@V?$weak_ptr@VRawImageData@@@2@@std@@@std@@@std@@@std@@_N@std@@QAE@$$QAV?$_Tree_iterator@V?$_Tree_val@U?$_Tree_simple_types@U?$pair@$$CBV?$basic_string@DU?$char_traits@D@std@@V?$allocator@D@2@@std@@V?$weak_ptr@VRawImageData@@@2@@std@@@std@@@std@@@1@AB_N@Z 0041a0a0 f i ConfirmButton.obj
 0001:000190f0       ??$?0V?$_Tree_iterator@V?$_Tree_val@U?$_Tree_simple_types@U?$pair@$$CBW4ButtonState@@V?$shared_ptr@VAnimation@@@std@@@std@@@std@@@std@@@std@@AB_N$0A@@?$pair@V?$_Tree_iterator@V?$_Tree_val@U?$_Tree_simple_types@U?$pair@$$CBW4ButtonState@@V?$shared_ptr@VAnimation@@@std@@@std@@@std@@@std@@@std@@_N@std@@QAE@$$QAV?$_Tree_iterator@V?$_Tree_val@U?$_Tree_simple_types@U?$pair@$$CBW4ButtonState@@V?$shared_ptr@VAnimation@@@std@@@std@@@std@@@std@@@1@AB_N@Z 0041a0f0 f i ConfirmButton.obj
 0001:00019140       ??$?0V?$allocator@D@std@@$$V@?$_Compressed_pair@V?$allocator@D@std@@V?$_String_val@U?$_Simple_types@D@std@@@2@$00@std@@QAE@U_One_then_variadic_args_t@1@$$QAV?$allocator@D@1@@Z 0041a140 f i ConfirmButton.obj
 0001:00019170       ??$?0V?$basic_string@DU?$char_traits@D@std@@V?$allocator@D@2@@std@@V?$shared_ptr@VRawImageData@@@1@$0A@@?$pair@$$CBV?$basic_string@DU?$char_traits@D@std@@V?$allocator@D@2@@std@@V?$shared_ptr@VRawImageData@@@2@@std@@QAE@$$QAU?$pair@V?$basic_string@DU?$char_traits@D@std@@V?$allocator@D@2@@std@@V?$shared_ptr@VRawImageData@@@2@@1@@Z 0041a170 f i ConfirmButton.obj
 0001:000191c0       ??$?0V?$basic_string@DU?$char_traits@D@std@@V?$allocator@D@2@@std@@V?$weak_ptr@VRawImageData@@@1@$0A@@?$pair@$$CBV?$basic_string@DU?$char_traits@D@std@@V?$allocator@D@2@@std@@V?$weak_ptr@VRawImageData@@@2@@std@@QAE@$$QAU?$pair@V?$basic_string@DU?$char_traits@D@std@@V?$allocator@D@2@@std@@V?$weak_ptr@VRawImageData@@@2@@1@@Z 0041a1c0 f i ConfirmButton.obj
 0001:00019210       ??$?0VRawImageData@@$0A@@?$shared_ptr@VRawImageData@@@std@@QAE@PAVRawImageData@@@Z 0041a210 f i ConfirmButton.obj
 0001:00019300       ??$?0VRawImageData@@$0A@@?$weak_ptr@VRawImageData@@@std@@QAE@ABV?$shared_ptr@VRawImageData@@@1@@Z 0041a300 f i ConfirmButton.obj
 0001:00019330       ??$?0W4ButtonState@@V?$shared_ptr@VAnimation@@@std@@$0A@@?$pair@$$CBW4ButtonState@@V?$shared_ptr@VAnimation@@@std@@@std@@QAE@$$QAU?$pair@W4ButtonState@@V?$shared_ptr@VAnimation@@@std@@@1@@Z 0041a330 f i ConfirmButton.obj
 0001:00019380       ??$?0W4ButtonState@@V?$shared_ptr@VAnimation@@@std@@$0A@@?$pair@W4ButtonState@@V?$shared_ptr@VAnimation@@@std@@@std@@QAE@XZ 0041a380 f i ConfirmButton.obj
 0001:000193c0       ??$?6DU?$char_traits@D@std@@V?$allocator@D@1@@std@@YAAAV?$basic_ostream@DU?$char_traits@D@std@@@0@AAV10@ABV?$basic_string@DU?$char_traits@D@std@@V?$allocator@D@2@@0@@Z 0041a3c0 f i ConfirmButton.obj
 0001:000193f0       ??$?6U?$char_traits@D@std@@@std@@YAAAV?$basic_ostream@DU?$char_traits@D@std@@@0@AAV10@PBD@Z 0041a3f0 f i ConfirmButton.obj
 0001:000197f0       ??$?8DU?$char_traits@D@std@@V?$allocator@D@1@@std@@YA_NABV?$basic_string@DU?$char_traits@D@std@@V?$allocator@D@2@@0@QBD@Z 0041a7f0 f i ConfirmButton.obj
 0001:00019810       ??$?9VRawImageData@@@std@@YA_NABV?$shared_ptr@VRawImageData@@@0@$$T@Z 0041a810 f i ConfirmButton.obj
 0001:00019840       ??$?CVAnimation@@$0A@@?$shared_ptr@VAnimation@@@std@@QBEPAVAnimation@@XZ 0041a840 f i ConfirmButton.obj
 0001:00019860       ??$?CVRawImageData@@$0A@@?$shared_ptr@VRawImageData@@@std@@QBEPAVRawImageData@@XZ 0041a860 f i ConfirmButton.obj
 0001:00019880       ??$?MDU?$char_traits@D@std@@V?$allocator@D@1@@std@@YA_NABV?$basic_string@DU?$char_traits@D@std@@V?$allocator@D@2@@0@0@Z 0041a880 f i ConfirmButton.obj
 0001:000198c0       ??$_Atomic_address_as@$$CBJ$$CCJ@std@@YAPDJACJ@Z 0041a8c0 f i ConfirmButton.obj
 0001:000198d0       ??$_Buyheadnode@V?$allocator@U?$_Tree_node@U?$pair@$$CBV?$basic_string@DU?$char_traits@D@std@@V?$allocator@D@2@@std@@V?$shared_ptr@VRawImageData@@@2@@std@@PAX@std@@@std@@@?$_Tree_node@U?$pair@$$CBV?$basic_string@DU?$char_traits@D@std@@V?$allocator@D@2@@std@@V?$shared_ptr@VRawImageData@@@2@@std@@PAX@std@@SAPAU01@AAV?$allocator@U?$_Tree_node@U?$pair@$$CBV?$basic_string@DU?$char_traits@D@std@@V?$allocator@D@2@@std@@V?$shared_ptr@VRawImageData@@@2@@std@@PAX@std@@@1@@Z 0041a8d0 f i ConfirmButton.obj
 0001:00019950       ??$_Buyheadnode@V?$allocator@U?$_Tree_node@U?$pair@$$CBV?$basic_string@DU?$char_traits@D@std@@V?$allocator@D@2@@std@@V?$weak_ptr@VRawImageData@@@2@@std@@PAX@std@@@std@@@?$_Tree_node@U?$pair@$$CBV?$basic_string@DU?$char_traits@D@std@@V?$allocator@D@2@@std@@V?$weak_ptr@VRawImageData@@@2@@std@@PAX@std@@SAPAU01@AAV?$allocator@U?$_Tree_node@U?$pair@$$CBV?$basic_string@DU?$char_traits@D@std@@V?$allocator@D@2@@std@@V?$weak_ptr@VRawImageData@@@2@@std@@PAX@std@@@1@@Z 0041a950 f i ConfirmButton.obj
 0001:000199d0       ??$_Buyheadnode@V?$allocator@U?$_Tree_node@U?$pair@$$CBW4ButtonState@@V?$shared_ptr@VAnimation@@@std@@@std@@PAX@std@@@std@@@?$_Tree_node@U?$pair@$$CBW4ButtonState@@V?$shared_ptr@VAnimation@@@std@@@std@@PAX@std@@SAPAU01@AAV?$allocator@U?$_Tree_node@U?$pair@$$CBW4ButtonState@@V?$shared_ptr@VAnimation@@@std@@@std@@PAX@std@@@1@@Z 0041a9d0 f i ConfirmButton.obj
 0001:00019a50       ??$_Construct_from_weak@VRawImageData@@@?$_Ptr_base@VRawImageData@@@std@@IAE_NABV?$weak_ptr@VRawImageData@@@1@@Z 0041aa50 f i ConfirmButton.obj
 0001:00019ab0       ??$_Construct_in_place@PADABQAD@std@@YAXAAPADABQAD@Z 0041aab0 f i ConfirmButton.obj
 0001:00019b00       ??$_Construct_in_place@PAU?$_Tree_node@U?$pair@$$CBV?$basic_string@DU?$char_traits@D@std@@V?$allocator@D@2@@std@@V?$shared_ptr@VRawImageData@@@2@@std@@PAX@std@@AAPAU12@@std@@YAXAAPAU?$_Tree_node@U?$pair@$$CBV?$basic_string@DU?$char_traits@D@std@@V?$allocator@D@2@@std@@V?$shared_ptr@VRawImageData@@@2@@std@@PAX@0@0@Z 0041ab00 f i ConfirmButton.obj
 0001:00019b50       ??$_Construct_in_place@PAU?$_Tree_node@U?$pair@$$CBV?$basic_string@DU?$char_traits@D@std@@V?$allocator@D@2@@std@@V?$shared_ptr@VRawImageData@@@2@@std@@PAX@std@@ABQAU12@@std@@YAXAAPAU?$_Tree_node@U?$pair@$$CBV?$basic_string@DU?$char_traits@D@std@@V?$allocator@D@2@@std@@V?$shared_ptr@VRawImageData@@@2@@std@@PAX@0@ABQAU10@@Z 0041ab50 f i ConfirmButton.obj
 0001:00019ba0       ??$_Construct_in_place@PAU?$_Tree_node@U?$pair@$$CBV?$basic_string@DU?$char_traits@D@std@@V?$allocator@D@2@@std@@V?$weak_ptr@VRawImageData@@@2@@std@@PAX@std@@AAPAU12@@std@@YAXAAPAU?$_Tree_node@U?$pair@$$CBV?$basic_string@DU?$char_traits@D@std@@V?$allocator@D@2@@std@@V?$weak_ptr@VRawImageData@@@2@@std@@PAX@0@0@Z 0041aba0 f i ConfirmButton.obj
 0001:00019bf0       ??$_Construct_in_place@PAU?$_Tree_node@U?$pair@$$CBV?$basic_string@DU?$char_traits@D@std@@V?$allocator@D@2@@std@@V?$weak_ptr@VRawImageData@@@2@@std@@PAX@std@@ABQAU12@@std@@YAXAAPAU?$_Tree_node@U?$pair@$$CBV?$basic_string@DU?$char_traits@D@std@@V?$allocator@D@2@@std@@V?$weak_ptr@VRawImageData@@@2@@std@@PAX@0@ABQAU10@@Z 0041abf0 f i ConfirmButton.obj
 0001:00019c40       ??$_Construct_in_place@PAU?$_Tree_node@U?$pair@$$CBW4ButtonState@@V?$shared_ptr@VAnimation@@@std@@@std@@PAX@std@@AAPAU12@@std@@YAXAAPAU?$_Tree_node@U?$pair@$$CBW4ButtonState@@V?$shared_ptr@VAnimation@@@std@@@std@@PAX@0@0@Z 0041ac40 f i ConfirmButton.obj
 0001:00019c90       ??$_Construct_in_place@PAU?$_Tree_node@U?$pair@$$CBW4ButtonState@@V?$shared_ptr@VAnimation@@@std@@@std@@PAX@std@@ABQAU12@@std@@YAXAAPAU?$_Tree_node@U?$pair@$$CBW4ButtonState@@V?$shared_ptr@VAnimation@@@std@@@std@@PAX@0@ABQAU10@@Z 0041ac90 f i ConfirmButton.obj
 0001:00019ce0       ??$_Construct_in_place@VAnimation@@H@std@@YAXAAVAnimation@@$$QAH@Z 0041ace0 f i ConfirmButton.obj
 0001:00019d30       ??$_Convert_size@I@std@@YAII@Z 0041ad30 f i ConfirmButton.obj
 0001:00019d40       ??$_Copy_construct_from@VAnimation@@@?$_Ptr_base@VAnimation@@@std@@IAEXABV?$shared_ptr@VAnimation@@@1@@Z 0041ad40 f i ConfirmButton.obj
 0001:00019d80       ??$_Debug_lt_pred@ABU?$less@V?$basic_string@DU?$char_traits@D@std@@V?$allocator@D@2@@std@@@std@@ABV?$basic_string@DU?$char_traits@D@std@@V?$allocator@D@2@@2@ABV32@$0A@@std@@YA_NABU?$less@V?$basic_string@DU?$char_traits@D@std@@V?$allocator@D@2@@std@@@0@ABV?$basic_string@DU?$char_traits@D@std@@V?$allocator@D@2@@0@1@Z 0041ad80 f i ConfirmButton.obj
 0001:00019e30       ??$_Debug_lt_pred@ABU?$less@W4ButtonState@@@std@@ABW4ButtonState@@ABW43@$0A@@std@@YA_NABU?$less@W4ButtonState@@@0@ABW4ButtonState@@1@Z 0041ae30 f i ConfirmButton.obj
 0001:00019ee0       ??$_Destroy_in_place@PAD@std@@YAXAAPAD@Z 0041aee0 f i ConfirmButton.obj
 0001:00019ef0       ??$_Destroy_in_place@PAU?$_Tree_node@U?$pair@$$CBV?$basic_string@DU?$char_traits@D@std@@V?$allocator@D@2@@std@@V?$shared_ptr@VRawImageData@@@2@@std@@PAX@std@@@std@@YAXAAPAU?$_Tree_node@U?$pair@$$CBV?$basic_string@DU?$char_traits@D@std@@V?$allocator@D@2@@std@@V?$shared_ptr@VRawImageData@@@2@@std@@PAX@0@@Z 0041aef0 f i ConfirmButton.obj
 0001:00019f00       ??$_Destroy_in_place@PAU?$_Tree_node@U?$pair@$$CBV?$basic_string@DU?$char_traits@D@std@@V?$allocator@D@2@@std@@V?$weak_ptr@VRawImageData@@@2@@std@@PAX@std@@@std@@YAXAAPAU?$_Tree_node@U?$pair@$$CBV?$basic_string@DU?$char_traits@D@std@@V?$allocator@D@2@@std@@V?$weak_ptr@VRawImageData@@@2@@std@@PAX@0@@Z 0041af00 f i ConfirmButton.obj
 0001:00019f10       ??$_Destroy_in_place@PAU?$_Tree_node@U?$pair@$$CBW4ButtonState@@V?$shared_ptr@VAnimation@@@std@@@std@@PAX@std@@@std@@YAXAAPAU?$_Tree_node@U?$pair@$$CBW4ButtonState@@V?$shared_ptr@VAnimation@@@std@@@std@@PAX@0@@Z 0041af10 f i ConfirmButton.obj
 0001:00019f20       ??$_Destroy_in_place@VAnimation@@@std@@YAXAAVAnimation@@@Z 0041af20 f i ConfirmButton.obj
 0001:00019f40       ??$_Emplace@U?$pair@V?$basic_string@DU?$char_traits@D@std@@V?$allocator@D@2@@std@@V?$shared_ptr@VRawImageData@@@2@@std@@@?$_Tree@V?$_Tmap_traits@V?$basic_string@DU?$char_traits@D@std@@V?$allocator@D@2@@std@@V?$shared_ptr@VRawImageData@@@2@U?$less@V?$basic_string@DU?$char_traits@D@std@@V?$allocator@D@2@@std@@@2@V?$allocator@U?$pair@$$CBV?$basic_string@DU?$char_traits@D@std@@V?$allocator@D@2@@std@@V?$shared_ptr@VRawImageData@@@2@@std@@@2@$0A@@std@@@std@@IAE?AU?$pair@PAU?$_Tree_node@U?$pair@$$CBV?$basic_string@DU?$char_traits@D@std@@V?$allocator@D@2@@std@@V?$shared_ptr@VRawImageData@@@2@@std@@PAX@std@@_N@1@$$QAU?$pair@V?$basic_string@DU?$char_traits@D@std@@V?$allocator@D@2@@std@@V?$shared_ptr@VRawImageData@@@2@@1@@Z 0041af40 f i ConfirmButton.obj
 0001:0001a070       ??$_Emplace@U?$pair@V?$basic_string@DU?$char_traits@D@std@@V?$allocator@D@2@@std@@V?$weak_ptr@VRawImageData@@@2@@std@@@?$_Tree@V?$_Tmap_traits@V?$basic_string@DU?$char_traits@D@std@@V?$allocator@D@2@@std@@V?$weak_ptr@VRawImageData@@@2@U?$less@V?$basic_string@DU?$char_traits@D@std@@V?$allocator@D@2@@std@@@2@V?$allocator@U?$pair@$$CBV?$basic_string@DU?$char_traits@D@std@@V?$allocator@D@2@@std@@V?$weak_ptr@VRawImageData@@@2@@std@@@2@$0A@@std@@@std@@IAE?AU?$pair@PAU?$_Tree_node@U?$pair@$$CBV?$basic_string@DU?$char_traits@D@std@@V?$allocator@D@2@@std@@V?$weak_ptr@VRawImageData@@@2@@std@@PAX@std@@_N@1@$$QAU?$pair@V?$basic_string@DU?$char_traits@D@std@@V?$allocator@D@2@@std@@V?$weak_ptr@VRawImageData@@@2@@1@@Z 0041b070 f i ConfirmButton.obj
 0001:0001a1a0       ??$_Emplace@U?$pair@W4ButtonState@@V?$shared_ptr@VAnimation@@@std@@@std@@@?$_Tree@V?$_Tmap_traits@W4ButtonState@@V?$shared_ptr@VAnimation@@@std@@U?$less@W4ButtonState@@@3@V?$allocator@U?$pair@$$CBW4ButtonState@@V?$shared_ptr@VAnimation@@@std@@@std@@@3@$0A@@std@@@std@@IAE?AU?$pair@PAU?$_Tree_node@U?$pair@$$CBW4ButtonState@@V?$shared_ptr@VAnimation@@@std@@@std@@PAX@std@@_N@1@$$QAU?$pair@W4ButtonState@@V?$shared_ptr@VAnimation@@@std@@@1@@Z 0041b1a0 f i ConfirmButton.obj
 0001:0001a2d0       ??$_Erase_head@V?$allocator@U?$_Tree_node@U?$pair@$$CBV?$basic_string@DU?$char_traits@D@std@@V?$allocator@D@2@@std@@V?$weak_ptr@VRawImageData@@@2@@std@@PAX@std@@@std@@@?$_Tree_val@U?$_Tree_simple_types@U?$pair@$$CBV?$basic_string@DU?$char_traits@D@std@@V?$allocator@D@2@@std@@V?$weak_ptr@VRawImageData@@@2@@std@@@std@@@std@@QAEXAAV?$allocator@U?$_Tree_node@U?$pair@$$CBV?$basic_string@DU?$char_traits@D@std@@V?$allocator@D@2@@std@@V?$weak_ptr@VRawImageData@@@2@@std@@PAX@std@@@1@@Z 0041b2d0 f i ConfirmButton.obj
 0001:0001a320       ??$_Erase_head@V?$allocator@U?$_Tree_node@U?$pair@$$CBW4ButtonState@@V?$shared_ptr@VAnimation@@@std@@@std@@PAX@std@@@std@@@?$_Tree_val@U?$_Tree_simple_types@U?$pair@$$CBW4ButtonState@@V?$shared_ptr@VAnimation@@@std@@@std@@@std@@@std@@QAEXAAV?$allocator@U?$_Tree_node@U?$pair@$$CBW4ButtonState@@V?$shared_ptr@VAnimation@@@std@@@std@@PAX@std@@@1@@Z 0041b320 f i ConfirmButton.obj
 0001:0001a370       ??$_Erase_tree@V?$allocator@U?$_Tree_node@U?$pair@$$CBV?$basic_string@DU?$char_traits@D@std@@V?$allocator@D@2@@std@@V?$weak_ptr@VRawImageData@@@2@@std@@PAX@std@@@std@@@?$_Tree_val@U?$_Tree_simple_types@U?$pair@$$CBV?$basic_string@DU?$char_traits@D@std@@V?$allocator@D@2@@std@@V?$weak_ptr@VRawImageData@@@2@@std@@@std@@@std@@QAEXAAV?$allocator@U?$_Tree_node@U?$pair@$$CBV?$basic_string@DU?$char_traits@D@std@@V?$allocator@D@2@@std@@V?$weak_ptr@VRawImageData@@@2@@std@@PAX@std@@@1@PAU?$_Tree_node@U?$pair@$$CBV?$basic_string@DU?$char_traits@D@std@@V?$allocator@D@2@@std@@V?$weak_ptr@VRawImageData@@@2@@std@@PAX@1@@Z 0041b370 f i ConfirmButton.obj
 0001:0001a3d0       ??$_Erase_tree@V?$allocator@U?$_Tree_node@U?$pair@$$CBW4ButtonState@@V?$shared_ptr@VAnimation@@@std@@@std@@PAX@std@@@std@@@?$_Tree_val@U?$_Tree_simple_types@U?$pair@$$CBW4ButtonState@@V?$shared_ptr@VAnimation@@@std@@@std@@@std@@@std@@QAEXAAV?$allocator@U?$_Tree_node@U?$pair@$$CBW4ButtonState@@V?$shared_ptr@VAnimation@@@std@@@std@@PAX@std@@@1@PAU?$_Tree_node@U?$pair@$$CBW4ButtonState@@V?$shared_ptr@VAnimation@@@std@@@std@@PAX@1@@Z 0041b3d0 f i ConfirmButton.obj
 0001:0001a430       ??$_Find@V?$basic_string@DU?$char_traits@D@std@@V?$allocator@D@2@@std@@@?$_Tree@V?$_Tmap_traits@V?$basic_string@DU?$char_traits@D@std@@V?$allocator@D@2@@std@@V?$weak_ptr@VRawImageData@@@2@U?$less@V?$basic_string@DU?$char_traits@D@std@@V?$allocator@D@2@@std@@@2@V?$allocator@U?$pair@$$CBV?$basic_string@DU?$char_traits@D@std@@V?$allocator@D@2@@std@@V?$weak_ptr@VRawImageData@@@2@@std@@@2@$0A@@std@@@std@@ABEPAU?$_Tree_node@U?$pair@$$CBV?$basic_string@DU?$char_traits@D@std@@V?$allocator@D@2@@std@@V?$weak_ptr@VRawImageData@@@2@@std@@PAX@1@ABV?$basic_string@DU?$char_traits@D@std@@V?$allocator@D@2@@1@@Z 0041b430 f i ConfirmButton.obj
 0001:0001a490       ??$_Find@W4ButtonState@@@?$_Tree@V?$_Tmap_traits@W4ButtonState@@V?$shared_ptr@VAnimation@@@std@@U?$less@W4ButtonState@@@3@V?$allocator@U?$pair@$$CBW4ButtonState@@V?$shared_ptr@VAnimation@@@std@@@std@@@3@$0A@@std@@@std@@ABEPAU?$_Tree_node@U?$pair@$$CBW4ButtonState@@V?$shared_ptr@VAnimation@@@std@@@std@@PAX@1@ABW4ButtonState@@@Z 0041b490 f i ConfirmButton.obj
 0001:0001a4f0       ??$_Find_lower_bound@V?$basic_string@DU?$char_traits@D@std@@V?$allocator@D@2@@std@@@?$_Tree@V?$_Tmap_traits@V?$basic_string@DU?$char_traits@D@std@@V?$allocator@D@2@@std@@V?$shared_ptr@VRawImageData@@@2@U?$less@V?$basic_string@DU?$char_traits@D@std@@V?$allocator@D@2@@std@@@2@V?$allocator@U?$pair@$$CBV?$basic_string@DU?$char_traits@D@std@@V?$allocator@D@2@@std@@V?$shared_ptr@VRawImageData@@@2@@std@@@2@$0A@@std@@@std@@IBE?AU?$_Tree_find_result@PAU?$_Tree_node@U?$pair@$$CBV?$basic_string@DU?$char_traits@D@std@@V?$allocator@D@2@@std@@V?$shared_ptr@VRawImageData@@@2@@std@@PAX@std@@@1@ABV?$basic_string@DU?$char_traits@D@std@@V?$allocator@D@2@@1@@Z 0041b4f0 f i ConfirmButton.obj
 0001:0001a5e0       ??$_Find_lower_bound@V?$basic_string@DU?$char_traits@D@std@@V?$allocator@D@2@@std@@@?$_Tree@V?$_Tmap_traits@V?$basic_string@DU?$char_traits@D@std@@V?$allocator@D@2@@std@@V?$weak_ptr@VRawImageData@@@2@U?$less@V?$basic_string@DU?$char_traits@D@std@@V?$allocator@D@2@@std@@@2@V?$allocator@U?$pair@$$CBV?$basic_string@DU?$char_traits@D@std@@V?$allocator@D@2@@std@@V?$weak_ptr@VRawImageData@@@2@@std@@@2@$0A@@std@@@std@@IBE?AU?$_Tree_find_result@PAU?$_Tree_node@U?$pair@$$CBV?$basic_string@DU?$char_traits@D@std@@V?$allocator@D@2@@std@@V?$weak_ptr@VRawImageData@@@2@@std@@PAX@std@@@1@ABV?$basic_string@DU?$char_traits@D@std@@V?$allocator@D@2@@1@@Z 0041b5e0 f i ConfirmButton.obj
 0001:0001a6d0       ??$_Find_lower_bound@W4ButtonState@@@?$_Tree@V?$_Tmap_traits@W4ButtonState@@V?$shared_ptr@VAnimation@@@std@@U?$less@W4ButtonState@@@3@V?$allocator@U?$pair@$$CBW4ButtonState@@V?$shared_ptr@VAnimation@@@std@@@std@@@3@$0A@@std@@@std@@IBE?AU?$_Tree_find_result@PAU?$_Tree_node@U?$pair@$$CBW4ButtonState@@V?$shared_ptr@VAnimation@@@std@@@std@@PAX@std@@@1@ABW4ButtonState@@@Z 0041b6d0 f i ConfirmButton.obj
 0001:0001a7c0       ??$_Freenode0@V?$allocator@U?$_Tree_node@U?$pair@$$CBV?$basic_string@DU?$char_traits@D@std@@V?$allocator@D@2@@std@@V?$weak_ptr@VRawImageData@@@2@@std@@PAX@std@@@std@@@?$_Tree_node@U?$pair@$$CBV?$basic_string@DU?$char_traits@D@std@@V?$allocator@D@2@@std@@V?$weak_ptr@VRawImageData@@@2@@std@@PAX@std@@SAXAAV?$allocator@U?$_Tree_node@U?$pair@$$CBV?$basic_string@DU?$char_traits@D@std@@V?$allocator@D@2@@std@@V?$weak_ptr@VRawImageData@@@2@@std@@PAX@std@@@1@PAU01@@Z 0041b7c0 f i ConfirmButton.obj
 0001:0001a850       ??$_Freenode0@V?$allocator@U?$_Tree_node@U?$pair@$$CBW4ButtonState@@V?$shared_ptr@VAnimation@@@std@@@std@@PAX@std@@@std@@@?$_Tree_node@U?$pair@$$CBW4ButtonState@@V?$shared_ptr@VAnimation@@@std@@@std@@PAX@std@@SAXAAV?$allocator@U?$_Tree_node@U?$pair@$$CBW4ButtonState@@V?$shared_ptr@VAnimation@@@std@@@std@@PAX@std@@@1@PAU01@@Z 0041b850 f i ConfirmButton.obj
 0001:0001a8e0       ??$_Freenode@V?$allocator@U?$_Tree_node@U?$pair@$$CBV?$basic_string@DU?$char_traits@D@std@@V?$allocator@D@2@@std@@V?$weak_ptr@VRawImageData@@@2@@std@@PAX@std@@@std@@@?$_Tree_node@U?$pair@$$CBV?$basic_string@DU?$char_traits@D@std@@V?$allocator@D@2@@std@@V?$weak_ptr@VRawImageData@@@2@@std@@PAX@std@@SAXAAV?$allocator@U?$_Tree_node@U?$pair@$$CBV?$basic_string@DU?$char_traits@D@std@@V?$allocator@D@2@@std@@V?$weak_ptr@VRawImageData@@@2@@std@@PAX@std@@@1@PAU01@@Z 0041b8e0 f i ConfirmButton.obj
 0001:0001a960       ??$_Freenode@V?$allocator@U?$_Tree_node@U?$pair@$$CBW4ButtonState@@V?$shared_ptr@VAnimation@@@std@@@std@@PAX@std@@@std@@@?$_Tree_node@U?$pair@$$CBW4ButtonState@@V?$shared_ptr@VAnimation@@@std@@@std@@PAX@std@@SAXAAV?$allocator@U?$_Tree_node@U?$pair@$$CBW4ButtonState@@V?$shared_ptr@VAnimation@@@std@@@std@@PAX@std@@@1@PAU01@@Z 0041b960 f i ConfirmButton.obj
 0001:0001a9e0       ??$_Get_size_of_n@$00@std@@YAII@Z 0041b9e0 f i ConfirmButton.obj
 0001:0001aa00       ??$_Get_size_of_n@$0BM@@std@@YAII@Z 0041ba00 f i ConfirmButton.obj
 0001:0001aa30       ??$_Get_size_of_n@$0DE@@std@@YAII@Z 0041ba30 f i ConfirmButton.obj
 0001:0001aa60       ??$_Insert_string@DU?$char_traits@D@std@@I@std@@YAAAV?$basic_ostream@DU?$char_traits@D@std@@@0@AAV10@QBDI@Z 0041ba60 f i ConfirmButton.obj
 0001:0001ade0       ??$_Kfn@$$CBV?$basic_string@DU?$char_traits@D@std@@V?$allocator@D@2@@std@@V?$shared_ptr@VRawImageData@@@2@@?$_Tmap_traits@V?$basic_string@DU?$char_traits@D@std@@V?$allocator@D@2@@std@@V?$shared_ptr@VRawImageData@@@2@U?$less@V?$basic_string@DU?$char_traits@D@std@@V?$allocator@D@2@@std@@@2@V?$allocator@U?$pair@$$CBV?$basic_string@DU?$char_traits@D@std@@V?$allocator@D@2@@std@@V?$shared_ptr@VRawImageData@@@2@@std@@@2@$0A@@std@@SAABV?$basic_string@DU?$char_traits@D@std@@V?$allocator@D@2@@1@ABU?$pair@$$CBV?$basic_string@DU?$char_traits@D@std@@V?$allocator@D@2@@std@@V?$shared_ptr@VRawImageData@@@2@@1@@Z 0041bde0 f i ConfirmButton.obj
 0001:0001adf0       ??$_Kfn@$$CBV?$basic_string@DU?$char_traits@D@std@@V?$allocator@D@2@@std@@V?$weak_ptr@VRawImageData@@@2@@?$_Tmap_traits@V?$basic_string@DU?$char_traits@D@std@@V?$allocator@D@2@@std@@V?$weak_ptr@VRawImageData@@@2@U?$less@V?$basic_string@DU?$char_traits@D@std@@V?$allocator@D@2@@std@@@2@V?$allocator@U?$pair@$$CBV?$basic_string@DU?$char_traits@D@std@@V?$allocator@D@2@@std@@V?$weak_ptr@VRawImageData@@@2@@std@@@2@$0A@@std@@SAABV?$basic_string@DU?$char_traits@D@std@@V?$allocator@D@2@@1@ABU?$pair@$$CBV?$basic_string@DU?$char_traits@D@std@@V?$allocator@D@2@@std@@V?$weak_ptr@VRawImageData@@@2@@1@@Z 0041bdf0 f i ConfirmButton.obj
 0001:0001ae00       ??$_Kfn@$$CBW4ButtonState@@V?$shared_ptr@VAnimation@@@std@@@?$_Tmap_traits@W4ButtonState@@V?$shared_ptr@VAnimation@@@std@@U?$less@W4ButtonState@@@3@V?$allocator@U?$pair@$$CBW4ButtonState@@V?$shared_ptr@VAnimation@@@std@@@std@@@3@$0A@@std@@SAABW4ButtonState@@ABU?$pair@$$CBW4ButtonState@@V?$shared_ptr@VAnimation@@@std@@@1@@Z 0041be00 f i ConfirmButton.obj
 0001:0001ae10       ??$_Lower_bound_duplicate@V?$basic_string@DU?$char_traits@D@std@@V?$allocator@D@2@@std@@@?$_Tree@V?$_Tmap_traits@V?$basic_string@DU?$char_traits@D@std@@V?$allocator@D@2@@std@@V?$shared_ptr@VRawImageData@@@2@U?$less@V?$basic_string@DU?$char_traits@D@std@@V?$allocator@D@2@@std@@@2@V?$allocator@U?$pair@$$CBV?$basic_string@DU?$char_traits@D@std@@V?$allocator@D@2@@std@@V?$shared_ptr@VRawImageData@@@2@@std@@@2@$0A@@std@@@std@@IBE_NQAU?$_Tree_node@U?$pair@$$CBV?$basic_string@DU?$char_traits@D@std@@V?$allocator@D@2@@std@@V?$shared_ptr@VRawImageData@@@2@@std@@PAX@1@ABV?$basic_string@DU?$char_traits@D@std@@V?$allocator@D@2@@1@@Z 0041be10 f i ConfirmButton.obj
 0001:0001ae80       ??$_Lower_bound_duplicate@V?$basic_string@DU?$char_traits@D@std@@V?$allocator@D@2@@std@@@?$_Tree@V?$_Tmap_traits@V?$basic_string@DU?$char_traits@D@std@@V?$allocator@D@2@@std@@V?$weak_ptr@VRawImageData@@@2@U?$less@V?$basic_string@DU?$char_traits@D@std@@V?$allocator@D@2@@std@@@2@V?$allocator@U?$pair@$$CBV?$basic_string@DU?$char_traits@D@std@@V?$allocator@D@2@@std@@V?$weak_ptr@VRawImageData@@@2@@std@@@2@$0A@@std@@@std@@IBE_NQAU?$_Tree_node@U?$pair@$$CBV?$basic_string@DU?$char_traits@D@std@@V?$allocator@D@2@@std@@V?$weak_ptr@VRawImageData@@@2@@std@@PAX@1@ABV?$basic_string@DU?$char_traits@D@std@@V?$allocator@D@2@@1@@Z 0041be80 f i ConfirmButton.obj
 0001:0001aef0       ??$_Lower_bound_duplicate@W4ButtonState@@@?$_Tree@V?$_Tmap_traits@W4ButtonState@@V?$shared_ptr@VAnimation@@@std@@U?$less@W4ButtonState@@@3@V?$allocator@U?$pair@$$CBW4ButtonState@@V?$shared_ptr@VAnimation@@@std@@@std@@@3@$0A@@std@@@std@@IBE_NQAU?$_Tree_node@U?$pair@$$CBW4ButtonState@@V?$shared_ptr@VAnimation@@@std@@@std@@PAX@1@ABW4ButtonState@@@Z 0041bef0 f i ConfirmButton.obj
 0001:0001af60       ??$_Move_construct_from@VAnimation@@@?$_Ptr_base@VAnimation@@@std@@IAEX$$QAV01@@Z 0041bf60 f i ConfirmButton.obj
 0001:0001afb0       ??$_Move_construct_from@VRawImageData@@@?$_Ptr_base@VRawImageData@@@std@@IAEX$$QAV01@@Z 0041bfb0 f i ConfirmButton.obj
 0001:0001b000       ??$_Reallocate_for@V<lambda_9366063389c5f42a00a5088cf24e69de>@@PBD@?$basic_string@DU?$char_traits@D@std@@V?$allocator@D@2@@std@@AAEAAV01@IV<lambda_9366063389c5f42a00a5088cf24e69de>@@PBD@Z 0041c000 f i ConfirmButton.obj
 0001:0001b100       ??$_Set_ptr_rep_and_enable_shared@VAnimation@@@?$shared_ptr@VAnimation@@@std@@AAEXQAVAnimation@@QAV_Ref_count_base@1@@Z 0041c100 f i ConfirmButton.obj
 0001:0001b130       ??$_Set_ptr_rep_and_enable_shared@VRawImageData@@@?$shared_ptr@VRawImageData@@@std@@AAEXQAVRawImageData@@QAV_Ref_count_base@1@@Z 0041c130 f i ConfirmButton.obj
 0001:0001b160       ??$_Traits_compare@U?$char_traits@D@std@@@std@@YAHQBDI0I@Z 0041c160 f i ConfirmButton.obj
 0001:0001b1d0       ??$_Traits_equal@U?$char_traits@D@std@@@std@@YA_NQBDI0I@Z 0041c1d0 f i ConfirmButton.obj
 0001:0001b220       ??$_Unfancy@D@std@@YAPADPAD@Z 0041c220 f i ConfirmButton.obj
 0001:0001b230       ??$_Weakly_construct_from@VRawImageData@@@?$_Ptr_base@VRawImageData@@@std@@IAEXABV01@@Z 0041c230 f i ConfirmButton.obj
 0001:0001b280       ??$addressof@$$CBV?$_String_val@U?$_Simple_types@D@std@@@std@@@std@@YAPBV?$_String_val@U?$_Simple_types@D@std@@@0@ABV10@@Z 0041c280 f i ConfirmButton.obj
 0001:0001b290       ??$addressof@$$CBV?$_Tree_val@U?$_Tree_simple_types@U?$pair@$$CBV?$basic_string@DU?$char_traits@D@std@@V?$allocator@D@2@@std@@V?$shared_ptr@VRawImageData@@@2@@std@@@std@@@std@@@std@@YAPBV?$_Tree_val@U?$_Tree_simple_types@U?$pair@$$CBV?$basic_string@DU?$char_traits@D@std@@V?$allocator@D@2@@std@@V?$shared_ptr@VRawImageData@@@2@@std@@@std@@@0@ABV10@@Z 0041c290 f i ConfirmButton.obj
 0001:0001b2a0       ??$addressof@$$CBV?$_Tree_val@U?$_Tree_simple_types@U?$pair@$$CBV?$basic_string@DU?$char_traits@D@std@@V?$allocator@D@2@@std@@V?$weak_ptr@VRawImageData@@@2@@std@@@std@@@std@@@std@@YAPBV?$_Tree_val@U?$_Tree_simple_types@U?$pair@$$CBV?$basic_string@DU?$char_traits@D@std@@V?$allocator@D@2@@std@@V?$weak_ptr@VRawImageData@@@2@@std@@@std@@@0@ABV10@@Z 0041c2a0 f i ConfirmButton.obj
 0001:0001b2b0       ??$addressof@$$CBV?$_Tree_val@U?$_Tree_simple_types@U?$pair@$$CBW4ButtonState@@V?$shared_ptr@VAnimation@@@std@@@std@@@std@@@std@@@std@@YAPBV?$_Tree_val@U?$_Tree_simple_types@U?$pair@$$CBW4ButtonState@@V?$shared_ptr@VAnimation@@@std@@@std@@@std@@@0@ABV10@@Z 0041c2b0 f i ConfirmButton.obj
 0001:0001b2c0       ??$addressof@PAD@std@@YAPAPADAAPAD@Z 0041c2c0 f i ConfirmButton.obj
 0001:0001b2d0       ??$addressof@PAU?$_Tree_node@U?$pair@$$CBV?$basic_string@DU?$char_traits@D@std@@V?$allocator@D@2@@std@@V?$shared_ptr@VRawImageData@@@2@@std@@PAX@std@@@std@@YAPAPAU?$_Tree_node@U?$pair@$$CBV?$basic_string@DU?$char_traits@D@std@@V?$allocator@D@2@@std@@V?$shared_ptr@VRawImageData@@@2@@std@@PAX@0@AAPAU10@@Z 0041c2d0 f i ConfirmButton.obj
 0001:0001b2e0       ??$addressof@PAU?$_Tree_node@U?$pair@$$CBV?$basic_string@DU?$char_traits@D@std@@V?$allocator@D@2@@std@@V?$weak_ptr@VRawImageData@@@2@@std@@PAX@std@@@std@@YAPAPAU?$_Tree_node@U?$pair@$$CBV?$basic_string@DU?$char_traits@D@std@@V?$allocator@D@2@@std@@V?$weak_ptr@VRawImageData@@@2@@std@@PAX@0@AAPAU10@@Z 0041c2e0 f i ConfirmButton.obj
 0001:0001b2f0       ??$addressof@PAU?$_Tree_node@U?$pair@$$CBW4ButtonState@@V?$shared_ptr@VAnimation@@@std@@@std@@PAX@std@@@std@@YAPAPAU?$_Tree_node@U?$pair@$$CBW4ButtonState@@V?$shared_ptr@VAnimation@@@std@@@std@@PAX@0@AAPAU10@@Z 0041c2f0 f i ConfirmButton.obj
 0001:0001b300       ??$addressof@U?$pair@$$CBV?$basic_string@DU?$char_traits@D@std@@V?$allocator@D@2@@std@@V?$shared_ptr@VRawImageData@@@2@@std@@@std@@YAPAU?$pair@$$CBV?$basic_string@DU?$char_traits@D@std@@V?$allocator@D@2@@std@@V?$shared_ptr@VRawImageData@@@2@@0@AAU10@@Z 0041c300 f i ConfirmButton.obj
 0001:0001b310       ??$addressof@U?$pair@$$CBV?$basic_string@DU?$char_traits@D@std@@V?$allocator@D@2@@std@@V?$weak_ptr@VRawImageData@@@2@@std@@@std@@YAPAU?$pair@$$CBV?$basic_string@DU?$char_traits@D@std@@V?$allocator@D@2@@std@@V?$weak_ptr@VRawImageData@@@2@@0@AAU10@@Z 0041c310 f i ConfirmButton.obj
 0001:0001b320       ??$addressof@U?$pair@$$CBW4ButtonState@@V?$shared_ptr@VAnimation@@@std@@@std@@@std@@YAPAU?$pair@$$CBW4ButtonState@@V?$shared_ptr@VAnimation@@@std@@@0@AAU10@@Z 0041c320 f i ConfirmButton.obj
 0001:0001b330       ??$addressof@V?$_String_val@U?$_Simple_types@D@std@@@std@@@std@@YAPAV?$_String_val@U?$_Simple_types@D@std@@@0@AAV10@@Z 0041c330 f i ConfirmButton.obj
 0001:0001b340       ??$addressof@V?$_Tree_val@U?$_Tree_simple_types@U?$pair@$$CBV?$basic_string@DU?$char_traits@D@std@@V?$allocator@D@2@@std@@V?$shared_ptr@VRawImageData@@@2@@std@@@std@@@std@@@std@@YAPAV?$_Tree_val@U?$_Tree_simple_types@U?$pair@$$CBV?$basic_string@DU?$char_traits@D@std@@V?$allocator@D@2@@std@@V?$shared_ptr@VRawImageData@@@2@@std@@@std@@@0@AAV10@@Z 0041c340 f i ConfirmButton.obj
 0001:0001b350       ??$addressof@V?$_Tree_val@U?$_Tree_simple_types@U?$pair@$$CBV?$basic_string@DU?$char_traits@D@std@@V?$allocator@D@2@@std@@V?$weak_ptr@VRawImageData@@@2@@std@@@std@@@std@@@std@@YAPAV?$_Tree_val@U?$_Tree_simple_types@U?$pair@$$CBV?$basic_string@DU?$char_traits@D@std@@V?$allocator@D@2@@std@@V?$weak_ptr@VRawImageData@@@2@@std@@@std@@@0@AAV10@@Z 0041c350 f i ConfirmButton.obj
 0001:0001b360       ??$addressof@V?$_Tree_val@U?$_Tree_simple_types@U?$pair@$$CBW4ButtonState@@V?$shared_ptr@VAnimation@@@std@@@std@@@std@@@std@@@std@@YAPAV?$_Tree_val@U?$_Tree_simple_types@U?$pair@$$CBW4ButtonState@@V?$shared_ptr@VAnimation@@@std@@@std@@@std@@@0@AAV10@@Z 0041c360 f i ConfirmButton.obj
 0001:0001b370       ??$addressof@VAnimation@@@std@@YAPAVAnimation@@AAV1@@Z 0041c370 f i ConfirmButton.obj
 0001:0001b380       ??$construct@U?$pair@$$CBV?$basic_string@DU?$char_traits@D@std@@V?$allocator@D@2@@std@@V?$shared_ptr@VRawImageData@@@2@@std@@U?$pair@V?$basic_string@DU?$char_traits@D@std@@V?$allocator@D@2@@std@@V?$shared_ptr@VRawImageData@@@2@@2@@?$_Default_allocator_traits@V?$allocator@U?$_Tree_node@U?$pair@$$CBV?$basic_string@DU?$char_traits@D@std@@V?$allocator@D@2@@std@@V?$shared_ptr@VRawImageData@@@2@@std@@PAX@std@@@std@@@std@@SAXAAV?$allocator@U?$_Tree_node@U?$pair@$$CBV?$basic_string@DU?$char_traits@D@std@@V?$allocator@D@2@@std@@V?$shared_ptr@VRawImageData@@@2@@std@@PAX@std@@@1@QAU?$pair@$$CBV?$basic_string@DU?$char_traits@D@std@@V?$allocator@D@2@@std@@V?$shared_ptr@VRawImageData@@@2@@1@$$QAU?$pair@V?$basic_string@DU?$char_traits@D@std@@V?$allocator@D@2@@std@@V?$shared_ptr@VRawImageData@@@2@@1@@Z 0041c380 f i ConfirmButton.obj
 0001:0001b3c0       ??$construct@U?$pair@$$CBV?$basic_string@DU?$char_traits@D@std@@V?$allocator@D@2@@std@@V?$weak_ptr@VRawImageData@@@2@@std@@U?$pair@V?$basic_string@DU?$char_traits@D@std@@V?$allocator@D@2@@std@@V?$weak_ptr@VRawImageData@@@2@@2@@?$_Default_allocator_traits@V?$allocator@U?$_Tree_node@U?$pair@$$CBV?$basic_string@DU?$char_traits@D@std@@V?$allocator@D@2@@std@@V?$weak_ptr@VRawImageData@@@2@@std@@PAX@std@@@std@@@std@@SAXAAV?$allocator@U?$_Tree_node@U?$pair@$$CBV?$basic_string@DU?$char_traits@D@std@@V?$allocator@D@2@@std@@V?$weak_ptr@VRawImageData@@@2@@std@@PAX@std@@@1@QAU?$pair@$$CBV?$basic_string@DU?$char_traits@D@std@@V?$allocator@D@2@@std@@V?$weak_ptr@VRawImageData@@@2@@1@$$QAU?$pair@V?$basic_string@DU?$char_traits@D@std@@V?$allocator@D@2@@std@@V?$weak_ptr@VRawImageData@@@2@@1@@Z 0041c3c0 f i ConfirmButton.obj
 0001:0001b400       ??$construct@U?$pair@$$CBW4ButtonState@@V?$shared_ptr@VAnimation@@@std@@@std@@U?$pair@W4ButtonState@@V?$shared_ptr@VAnimation@@@std@@@2@@?$_Default_allocator_traits@V?$allocator@U?$_Tree_node@U?$pair@$$CBW4ButtonState@@V?$shared_ptr@VAnimation@@@std@@@std@@PAX@std@@@std@@@std@@SAXAAV?$allocator@U?$_Tree_node@U?$pair@$$CBW4ButtonState@@V?$shared_ptr@VAnimation@@@std@@@std@@PAX@std@@@1@QAU?$pair@$$CBW4ButtonState@@V?$shared_ptr@VAnimation@@@std@@@1@$$QAU?$pair@W4ButtonState@@V?$shared_ptr@VAnimation@@@std@@@1@@Z 0041c400 f i ConfirmButton.obj
 0001:0001b440       ??$destroy@U?$pair@$$CBV?$basic_string@DU?$char_traits@D@std@@V?$allocator@D@2@@std@@V?$shared_ptr@VRawImageData@@@2@@std@@@?$_Default_allocator_traits@V?$allocator@U?$_Tree_node@U?$pair@$$CBV?$basic_string@DU?$char_traits@D@std@@V?$allocator@D@2@@std@@V?$shared_ptr@VRawImageData@@@2@@std@@PAX@std@@@std@@@std@@SAXAAV?$allocator@U?$_Tree_node@U?$pair@$$CBV?$basic_string@DU?$char_traits@D@std@@V?$allocator@D@2@@std@@V?$shared_ptr@VRawImageData@@@2@@std@@PAX@std@@@1@QAU?$pair@$$CBV?$basic_string@DU?$char_traits@D@std@@V?$allocator@D@2@@std@@V?$shared_ptr@VRawImageData@@@2@@1@@Z 0041c440 f i ConfirmButton.obj
 0001:0001b460       ??$destroy@U?$pair@$$CBV?$basic_string@DU?$char_traits@D@std@@V?$allocator@D@2@@std@@V?$weak_ptr@VRawImageData@@@2@@std@@@?$_Default_allocator_traits@V?$allocator@U?$_Tree_node@U?$pair@$$CBV?$basic_string@DU?$char_traits@D@std@@V?$allocator@D@2@@std@@V?$weak_ptr@VRawImageData@@@2@@std@@PAX@std@@@std@@@std@@SAXAAV?$allocator@U?$_Tree_node@U?$pair@$$CBV?$basic_string@DU?$char_traits@D@std@@V?$allocator@D@2@@std@@V?$weak_ptr@VRawImageData@@@2@@std@@PAX@std@@@1@QAU?$pair@$$CBV?$basic_string@DU?$char_traits@D@std@@V?$allocator@D@2@@std@@V?$weak_ptr@VRawImageData@@@2@@1@@Z 0041c460 f i ConfirmButton.obj
 0001:0001b480       ??$destroy@U?$pair@$$CBW4ButtonState@@V?$shared_ptr@VAnimation@@@std@@@std@@@?$_Default_allocator_traits@V?$allocator@U?$_Tree_node@U?$pair@$$CBW4ButtonState@@V?$shared_ptr@VAnimation@@@std@@@std@@PAX@std@@@std@@@std@@SAXAAV?$allocator@U?$_Tree_node@U?$pair@$$CBW4ButtonState@@V?$shared_ptr@VAnimation@@@std@@@std@@PAX@std@@@1@QAU?$pair@$$CBW4ButtonState@@V?$shared_ptr@VAnimation@@@std@@@1@@Z 0041c480 f i ConfirmButton.obj
 0001:0001b4a0       ??$emplace@U?$pair@V?$basic_string@DU?$char_traits@D@std@@V?$allocator@D@2@@std@@V?$shared_ptr@VRawImageData@@@2@@std@@@?$_Tree@V?$_Tmap_traits@V?$basic_string@DU?$char_traits@D@std@@V?$allocator@D@2@@std@@V?$shared_ptr@VRawImageData@@@2@U?$less@V?$basic_string@DU?$char_traits@D@std@@V?$allocator@D@2@@std@@@2@V?$allocator@U?$pair@$$CBV?$basic_string@DU?$char_traits@D@std@@V?$allocator@D@2@@std@@V?$shared_ptr@VRawImageData@@@2@@std@@@2@$0A@@std@@@std@@QAE?AU?$pair@V?$_Tree_iterator@V?$_Tree_val@U?$_Tree_simple_types@U?$pair@$$CBV?$basic_string@DU?$char_traits@D@std@@V?$allocator@D@2@@std@@V?$shared_ptr@VRawImageData@@@2@@std@@@std@@@std@@@std@@_N@1@$$QAU?$pair@V?$basic_string@DU?$char_traits@D@std@@V?$allocator@D@2@@std@@V?$shared_ptr@VRawImageData@@@2@@1@@Z 0041c4a0 f i ConfirmButton.obj
 0001:0001b530       ??$emplace@U?$pair@V?$basic_string@DU?$char_traits@D@std@@V?$allocator@D@2@@std@@V?$weak_ptr@VRawImageData@@@2@@std@@@?$_Tree@V?$_Tmap_traits@V?$basic_string@DU?$char_traits@D@std@@V?$allocator@D@2@@std@@V?$weak_ptr@VRawImageData@@@2@U?$less@V?$basic_string@DU?$char_traits@D@std@@V?$allocator@D@2@@std@@@2@V?$allocator@U?$pair@$$CBV?$basic_string@DU?$char_traits@D@std@@V?$allocator@D@2@@std@@V?$weak_ptr@VRawImageData@@@2@@std@@@2@$0A@@std@@@std@@QAE?AU?$pair@V?$_Tree_iterator@V?$_Tree_val@U?$_Tree_simple_types@U?$pair@$$CBV?$basic_string@DU?$char_traits@D@std@@V?$allocator@D@2@@std@@V?$weak_ptr@VRawImageData@@@2@@std@@@std@@@std@@@std@@_N@1@$$QAU?$pair@V?$basic_string@DU?$char_traits@D@std@@V?$allocator@D@2@@std@@V?$weak_ptr@VRawImageData@@@2@@1@@Z 0041c530 f i ConfirmButton.obj
 0001:0001b5c0       ??$emplace@U?$pair@W4ButtonState@@V?$shared_ptr@VAnimation@@@std@@@std@@@?$_Tree@V?$_Tmap_traits@W4ButtonState@@V?$shared_ptr@VAnimation@@@std@@U?$less@W4ButtonState@@@3@V?$allocator@U?$pair@$$CBW4ButtonState@@V?$shared_ptr@VAnimation@@@std@@@std@@@3@$0A@@std@@@std@@QAE?AU?$pair@V?$_Tree_iterator@V?$_Tree_val@U?$_Tree_simple_types@U?$pair@$$CBW4ButtonState@@V?$shared_ptr@VAnimation@@@std@@@std@@@std@@@std@@@std@@_N@1@$$QAU?$pair@W4ButtonState@@V?$shared_ptr@VAnimation@@@std@@@1@@Z 0041c5c0 f i ConfirmButton.obj
 0001:0001b650       ??$endl@DU?$char_traits@D@std@@@std@@YAAAV?$basic_ostream@DU?$char_traits@D@std@@@0@AAV10@@Z 0041c650 f i ConfirmButton.obj
 0001:0001b690       ??$erase@V?$_Tree_iterator@V?$_Tree_val@U?$_Tree_simple_types@U?$pair@$$CBV?$basic_string@DU?$char_traits@D@std@@V?$allocator@D@2@@std@@V?$weak_ptr@VRawImageData@@@2@@std@@@std@@@std@@@std@@$0A@@?$_Tree@V?$_Tmap_traits@V?$basic_string@DU?$char_traits@D@std@@V?$allocator@D@2@@std@@V?$weak_ptr@VRawImageData@@@2@U?$less@V?$basic_string@DU?$char_traits@D@std@@V?$allocator@D@2@@std@@@2@V?$allocator@U?$pair@$$CBV?$basic_string@DU?$char_traits@D@std@@V?$allocator@D@2@@std@@V?$weak_ptr@VRawImageData@@@2@@std@@@2@$0A@@std@@@std@@QAE?AV?$_Tree_iterator@V?$_Tree_val@U?$_Tree_simple_types@U?$pair@$$CBV?$basic_string@DU?$char_traits@D@std@@V?$allocator@D@2@@std@@V?$weak_ptr@VRawImageData@@@2@@std@@@std@@@std@@@1@V21@@Z 0041c690 f i ConfirmButton.obj
 0001:0001b820       ??$exchange@PAU?$_Tree_node@U?$pair@$$CBV?$basic_string@DU?$char_traits@D@std@@V?$allocator@D@2@@std@@V?$shared_ptr@VRawImageData@@@2@@std@@PAX@std@@$$T@std@@YAPAU?$_Tree_node@U?$pair@$$CBV?$basic_string@DU?$char_traits@D@std@@V?$allocator@D@2@@std@@V?$shared_ptr@VRawImageData@@@2@@std@@PAX@0@AAPAU10@$$QA$$T@Z 0041c820 f i ConfirmButton.obj
 0001:0001b850       ??$exchange@PAU?$_Tree_node@U?$pair@$$CBV?$basic_string@DU?$char_traits@D@std@@V?$allocator@D@2@@std@@V?$weak_ptr@VRawImageData@@@2@@std@@PAX@std@@$$T@std@@YAPAU?$_Tree_node@U?$pair@$$CBV?$basic_string@DU?$char_traits@D@std@@V?$allocator@D@2@@std@@V?$weak_ptr@VRawImageData@@@2@@std@@PAX@0@AAPAU10@$$QA$$T@Z 0041c850 f i ConfirmButton.obj
 0001:0001b880       ??$exchange@PAU?$_Tree_node@U?$pair@$$CBV?$basic_string@DU?$char_traits@D@std@@V?$allocator@D@2@@std@@V?$weak_ptr@VRawImageData@@@2@@std@@PAX@std@@AAPAU12@@std@@YAPAU?$_Tree_node@U?$pair@$$CBV?$basic_string@DU?$char_traits@D@std@@V?$allocator@D@2@@std@@V?$weak_ptr@VRawImageData@@@2@@std@@PAX@0@AAPAU10@0@Z 0041c880 f i ConfirmButton.obj
 0001:0001b8b0       ??$exchange@PAU?$_Tree_node@U?$pair@$$CBW4ButtonState@@V?$shared_ptr@VAnimation@@@std@@@std@@PAX@std@@$$T@std@@YAPAU?$_Tree_node@U?$pair@$$CBW4ButtonState@@V?$shared_ptr@VAnimation@@@std@@@std@@PAX@0@AAPAU10@$$QA$$T@Z 0041c8b0 f i ConfirmButton.obj
 0001:0001b8e0       ??$exchange@PAU?$_Tree_node@U?$pair@$$CBW4ButtonState@@V?$shared_ptr@VAnimation@@@std@@@std@@PAX@std@@AAPAU12@@std@@YAPAU?$_Tree_node@U?$pair@$$CBW4ButtonState@@V?$shared_ptr@VAnimation@@@std@@@std@@PAX@0@AAPAU10@0@Z 0041c8e0 f i ConfirmButton.obj
 0001:0001b910       ??$forward@AAPAU?$_Tree_node@U?$pair@$$CBV?$basic_string@DU?$char_traits@D@std@@V?$allocator@D@2@@std@@V?$shared_ptr@VRawImageData@@@2@@std@@PAX@std@@@std@@YAAAPAU?$_Tree_node@U?$pair@$$CBV?$basic_string@DU?$char_traits@D@std@@V?$allocator@D@2@@std@@V?$shared_ptr@VRawImageData@@@2@@std@@PAX@0@AAPAU10@@Z 0041c910 f i ConfirmButton.obj
 0001:0001b920       ??$forward@AAPAU?$_Tree_node@U?$pair@$$CBV?$basic_string@DU?$char_traits@D@std@@V?$allocator@D@2@@std@@V?$weak_ptr@VRawImageData@@@2@@std@@PAX@std@@@std@@YAAAPAU?$_Tree_node@U?$pair@$$CBV?$basic_string@DU?$char_traits@D@std@@V?$allocator@D@2@@std@@V?$weak_ptr@VRawImageData@@@2@@std@@PAX@0@AAPAU10@@Z 0041c920 f i ConfirmButton.obj
 0001:0001b930       ??$forward@AAPAU?$_Tree_node@U?$pair@$$CBW4ButtonState@@V?$shared_ptr@VAnimation@@@std@@@std@@PAX@std@@@std@@YAAAPAU?$_Tree_node@U?$pair@$$CBW4ButtonState@@V?$shared_ptr@VAnimation@@@std@@@std@@PAX@0@AAPAU10@@Z 0041c930 f i ConfirmButton.obj
 0001:0001b940       ??$forward@AAV?$basic_string@DU?$char_traits@D@std@@V?$allocator@D@2@@std@@@std@@YAAAV?$basic_string@DU?$char_traits@D@std@@V?$allocator@D@2@@0@AAV10@@Z 0041c940 f i ConfirmButton.obj
 0001:0001b950       ??$forward@AAV?$shared_ptr@VAnimation@@@std@@@std@@YAAAV?$shared_ptr@VAnimation@@@0@AAV10@@Z 0041c950 f i ConfirmButton.obj
 0001:0001b960       ??$forward@AAV?$shared_ptr@VRawImageData@@@std@@@std@@YAAAV?$shared_ptr@VRawImageData@@@0@AAV10@@Z 0041c960 f i ConfirmButton.obj
 0001:0001b970       ??$forward@AAV?$weak_ptr@VRawImageData@@@std@@@std@@YAAAV?$weak_ptr@VRawImageData@@@0@AAV10@@Z 0041c970 f i ConfirmButton.obj
 0001:0001b980       ??$forward@AAW4ButtonState@@@std@@YAAAW4ButtonState@@AAW41@@Z 0041c980 f i ConfirmButton.obj
 0001:0001b990       ??$forward@ABQAD@std@@YAABQADABQAD@Z 0041c990 f i ConfirmButton.obj
 0001:0001b9a0       ??$forward@ABQAU?$_Tree_node@U?$pair@$$CBV?$basic_string@DU?$char_traits@D@std@@V?$allocator@D@2@@std@@V?$shared_ptr@VRawImageData@@@2@@std@@PAX@std@@@std@@YAABQAU?$_Tree_node@U?$pair@$$CBV?$basic_string@DU?$char_traits@D@std@@V?$allocator@D@2@@std@@V?$shared_ptr@VRawImageData@@@2@@std@@PAX@0@ABQAU10@@Z 0041c9a0 f i ConfirmButton.obj
 0001:0001b9b0       ??$forward@ABQAU?$_Tree_node@U?$pair@$$CBV?$basic_string@DU?$char_traits@D@std@@V?$allocator@D@2@@std@@V?$weak_ptr@VRawImageData@@@2@@std@@PAX@std@@@std@@YAABQAU?$_Tree_node@U?$pair@$$CBV?$basic_string@DU?$char_traits@D@std@@V?$allocator@D@2@@std@@V?$weak_ptr@VRawImageData@@@2@@std@@PAX@0@ABQAU10@@Z 0041c9b0 f i ConfirmButton.obj
 0001:0001b9c0       ??$forward@ABQAU?$_Tree_node@U?$pair@$$CBW4ButtonState@@V?$shared_ptr@VAnimation@@@std@@@std@@PAX@std@@@std@@YAABQAU?$_Tree_node@U?$pair@$$CBW4ButtonState@@V?$shared_ptr@VAnimation@@@std@@@std@@PAX@0@ABQAU10@@Z 0041c9c0 f i ConfirmButton.obj
 0001:0001b9d0       ??$forward@ABU?$less@V?$basic_string@DU?$char_traits@D@std@@V?$allocator@D@2@@std@@@std@@@std@@YAABU?$less@V?$basic_string@DU?$char_traits@D@std@@V?$allocator@D@2@@std@@@0@ABU10@@Z 0041c9d0 f i ConfirmButton.obj
 0001:0001b9e0       ??$forward@ABU?$less@W4ButtonState@@@std@@@std@@YAABU?$less@W4ButtonState@@@0@ABU10@@Z 0041c9e0 f i ConfirmButton.obj
 0001:0001b9f0       ??$forward@AB_N@std@@YAAB_NAB_N@Z 0041c9f0 f i ConfirmButton.obj
 0001:0001ba00       ??$forward@H@std@@YA$$QAHAAH@Z 0041ca00 f i ConfirmButton.obj
 0001:0001ba10       ??$forward@PAU?$_Tree_node@U?$pair@$$CBV?$basic_string@DU?$char_traits@D@std@@V?$allocator@D@2@@std@@V?$shared_ptr@VRawImageData@@@2@@std@@PAX@std@@@std@@YA$$QAPAU?$_Tree_node@U?$pair@$$CBV?$basic_string@DU?$char_traits@D@std@@V?$allocator@D@2@@std@@V?$shared_ptr@VRawImageData@@@2@@std@@PAX@0@AAPAU10@@Z 0041ca10 f i ConfirmButton.obj
 0001:0001ba20       ??$forward@PAU?$_Tree_node@U?$pair@$$CBV?$basic_string@DU?$char_traits@D@std@@V?$allocator@D@2@@std@@V?$weak_ptr@VRawImageData@@@2@@std@@PAX@std@@@std@@YA$$QAPAU?$_Tree_node@U?$pair@$$CBV?$basic_string@DU?$char_traits@D@std@@V?$allocator@D@2@@std@@V?$weak_ptr@VRawImageData@@@2@@std@@PAX@0@AAPAU10@@Z 0041ca20 f i ConfirmButton.obj
 0001:0001ba30       ??$forward@PAU?$_Tree_node@U?$pair@$$CBW4ButtonState@@V?$shared_ptr@VAnimation@@@std@@@std@@PAX@std@@@std@@YA$$QAPAU?$_Tree_node@U?$pair@$$CBW4ButtonState@@V?$shared_ptr@VAnimation@@@std@@@std@@PAX@0@AAPAU10@@Z 0041ca30 f i ConfirmButton.obj
 0001:0001ba40       ??$forward@U?$pair@V?$basic_string@DU?$char_traits@D@std@@V?$allocator@D@2@@std@@V?$shared_ptr@VRawImageData@@@2@@std@@@std@@YA$$QAU?$pair@V?$basic_string@DU?$char_traits@D@std@@V?$allocator@D@2@@std@@V?$shared_ptr@VRawImageData@@@2@@0@AAU10@@Z 0041ca40 f i ConfirmButton.obj
 0001:0001ba50       ??$forward@U?$pair@V?$basic_string@DU?$char_traits@D@std@@V?$allocator@D@2@@std@@V?$weak_ptr@VRawImageData@@@2@@std@@@std@@YA$$QAU?$pair@V?$basic_string@DU?$char_traits@D@std@@V?$allocator@D@2@@std@@V?$weak_ptr@VRawImageData@@@2@@0@AAU10@@Z 0041ca50 f i ConfirmButton.obj
 0001:0001ba60       ??$forward@U?$pair@W4ButtonState@@V?$shared_ptr@VAnimation@@@std@@@std@@@std@@YA$$QAU?$pair@W4ButtonState@@V?$shared_ptr@VAnimation@@@std@@@0@AAU10@@Z 0041ca60 f i ConfirmButton.obj
 0001:0001ba70       ??$forward@U_Zero_then_variadic_args_t@std@@@std@@YA$$QAU_Zero_then_variadic_args_t@0@AAU10@@Z 0041ca70 f i ConfirmButton.obj
 0001:0001ba80       ??$forward@V?$_Tree_iterator@V?$_Tree_val@U?$_Tree_simple_types@U?$pair@$$CBV?$basic_string@DU?$char_traits@D@std@@V?$allocator@D@2@@std@@V?$shared_ptr@VRawImageData@@@2@@std@@@std@@@std@@@std@@@std@@YA$$QAV?$_Tree_iterator@V?$_Tree_val@U?$_Tree_simple_types@U?$pair@$$CBV?$basic_string@DU?$char_traits@D@std@@V?$allocator@D@2@@std@@V?$shared_ptr@VRawImageData@@@2@@std@@@std@@@std@@@0@AAV10@@Z 0041ca80 f i ConfirmButton.obj
 0001:0001ba90       ??$forward@V?$_Tree_iterator@V?$_Tree_val@U?$_Tree_simple_types@U?$pair@$$CBV?$basic_string@DU?$char_traits@D@std@@V?$allocator@D@2@@std@@V?$weak_ptr@VRawImageData@@@2@@std@@@std@@@std@@@std@@@std@@YA$$QAV?$_Tree_iterator@V?$_Tree_val@U?$_Tree_simple_types@U?$pair@$$CBV?$basic_string@DU?$char_traits@D@std@@V?$allocator@D@2@@std@@V?$weak_ptr@VRawImageData@@@2@@std@@@std@@@std@@@0@AAV10@@Z 0041ca90 f i ConfirmButton.obj
 0001:0001baa0       ??$forward@V?$_Tree_iterator@V?$_Tree_val@U?$_Tree_simple_types@U?$pair@$$CBW4ButtonState@@V?$shared_ptr@VAnimation@@@std@@@std@@@std@@@std@@@std@@@std@@YA$$QAV?$_Tree_iterator@V?$_Tree_val@U?$_Tree_simple_types@U?$pair@$$CBW4ButtonState@@V?$shared_ptr@VAnimation@@@std@@@std@@@std@@@std@@@0@AAV10@@Z 0041caa0 f i ConfirmButton.obj
 0001:0001bab0       ??$forward@V?$allocator@D@std@@@std@@YA$$QAV?$allocator@D@0@AAV10@@Z 0041cab0 f i ConfirmButton.obj
 0001:0001bac0       ??$forward@V?$basic_string@DU?$char_traits@D@std@@V?$allocator@D@2@@std@@@std@@YA$$QAV?$basic_string@DU?$char_traits@D@std@@V?$allocator@D@2@@0@AAV10@@Z 0041cac0 f i ConfirmButton.obj
 0001:0001bad0       ??$forward@V?$shared_ptr@VAnimation@@@std@@@std@@YA$$QAV?$shared_ptr@VAnimation@@@0@AAV10@@Z 0041cad0 f i ConfirmButton.obj
 0001:0001bae0       ??$forward@V?$shared_ptr@VRawImageData@@@std@@@std@@YA$$QAV?$shared_ptr@VRawImageData@@@0@AAV10@@Z 0041cae0 f i ConfirmButton.obj
 0001:0001baf0       ??$forward@V?$weak_ptr@VRawImageData@@@std@@@std@@YA$$QAV?$weak_ptr@VRawImageData@@@0@AAV10@@Z 0041caf0 f i ConfirmButton.obj
 0001:0001bb00       ??$forward@W4ButtonState@@@std@@YA$$QAW4ButtonState@@AAW41@@Z 0041cb00 f i ConfirmButton.obj
 0001:0001bb10       ??$forward@_N@std@@YA$$QA_NAA_N@Z 0041cb10 f i ConfirmButton.obj
 0001:0001bb20       ??$insert@U?$pair@V?$basic_string@DU?$char_traits@D@std@@V?$allocator@D@2@@std@@V?$shared_ptr@VRawImageData@@@2@@std@@$0A@@?$map@V?$basic_string@DU?$char_traits@D@std@@V?$allocator@D@2@@std@@V?$shared_ptr@VRawImageData@@@2@U?$less@V?$basic_string@DU?$char_traits@D@std@@V?$allocator@D@2@@std@@@2@V?$allocator@U?$pair@$$CBV?$basic_string@DU?$char_traits@D@std@@V?$allocator@D@2@@std@@V?$shared_ptr@VRawImageData@@@2@@std@@@2@@std@@QAE?AU?$pair@V?$_Tree_iterator@V?$_Tree_val@U?$_Tree_simple_types@U?$pair@$$CBV?$basic_string@DU?$char_traits@D@std@@V?$allocator@D@2@@std@@V?$shared_ptr@VRawImageData@@@2@@std@@@std@@@std@@@std@@_N@1@$$QAU?$pair@V?$basic_string@DU?$char_traits@D@std@@V?$allocator@D@2@@std@@V?$shared_ptr@VRawImageData@@@2@@1@@Z 0041cb20 f i ConfirmButton.obj
 0001:0001bb70       ??$insert@U?$pair@V?$basic_string@DU?$char_traits@D@std@@V?$allocator@D@2@@std@@V?$weak_ptr@VRawImageData@@@2@@std@@$0A@@?$map@V?$basic_string@DU?$char_traits@D@std@@V?$allocator@D@2@@std@@V?$weak_ptr@VRawImageData@@@2@U?$less@V?$basic_string@DU?$char_traits@D@std@@V?$allocator@D@2@@std@@@2@V?$allocator@U?$pair@$$CBV?$basic_string@DU?$char_traits@D@std@@V?$allocator@D@2@@std@@V?$weak_ptr@VRawImageData@@@2@@std@@@2@@std@@QAE?AU?$pair@V?$_Tree_iterator@V?$_Tree_val@U?$_Tree_simple_types@U?$pair@$$CBV?$basic_string@DU?$char_traits@D@std@@V?$allocator@D@2@@std@@V?$weak_ptr@VRawImageData@@@2@@std@@@std@@@std@@@std@@_N@1@$$QAU?$pair@V?$basic_string@DU?$char_traits@D@std@@V?$allocator@D@2@@std@@V?$weak_ptr@VRawImageData@@@2@@1@@Z 0041cb70 f i ConfirmButton.obj
 0001:0001bbc0       ??$insert@U?$pair@W4ButtonState@@V?$shared_ptr@VAnimation@@@std@@@std@@$0A@@?$map@W4ButtonState@@V?$shared_ptr@VAnimation@@@std@@U?$less@W4ButtonState@@@3@V?$allocator@U?$pair@$$CBW4ButtonState@@V?$shared_ptr@VAnimation@@@std@@@std@@@3@@std@@QAE?AU?$pair@V?$_Tree_iterator@V?$_Tree_val@U?$_Tree_simple_types@U?$pair@$$CBW4ButtonState@@V?$shared_ptr@VAnimation@@@std@@@std@@@std@@@std@@@std@@_N@1@$$QAU?$pair@W4ButtonState@@V?$shared_ptr@VAnimation@@@std@@@1@@Z 0041cbc0 f i ConfirmButton.obj
 0001:0001bc10       ??$make_pair@AAW4ButtonState@@AAV?$shared_ptr@VAnimation@@@std@@@std@@YA?AU?$pair@W4ButtonState@@V?$shared_ptr@VAnimation@@@std@@@0@AAW4ButtonState@@AAV?$shared_ptr@VAnimation@@@0@@Z 0041cc10 f i ConfirmButton.obj
 0001:0001bc50       ??$make_shared@VAnimation@@H@std@@YA?AV?$shared_ptr@VAnimation@@@0@$$QAH@Z 0041cc50 f i ConfirmButton.obj
 0001:0001bd50       ??$max@I@std@@YAABIABI0@Z  0041cd50 f i ConfirmButton.obj
 0001:0001bd90       ??$move@AAD@std@@YA$$QADAAD@Z 0041cd90 f i ConfirmButton.obj
 0001:0001bda0       ??$move@AAPAVAnimation@@@std@@YA$$QAPAVAnimation@@AAPAV1@@Z 0041cda0 f i ConfirmButton.obj
 0001:0001bdb0       ??$move@AAPAVRawImageData@@@std@@YA$$QAPAVRawImageData@@AAPAV1@@Z 0041cdb0 f i ConfirmButton.obj
 0001:0001bdc0       ??$move@AAPAV_Ref_count_base@std@@@std@@YA$$QAPAV_Ref_count_base@0@AAPAV10@@Z 0041cdc0 f i ConfirmButton.obj
 0001:0001bdd0       ??$move@AAV?$allocator@D@std@@@std@@YA$$QAV?$allocator@D@0@AAV10@@Z 0041cdd0 f i ConfirmButton.obj
 0001:0001bde0       ??$move@AAV?$shared_ptr@VAnimation@@@std@@@std@@YA$$QAV?$shared_ptr@VAnimation@@@0@AAV10@@Z 0041cde0 f i ConfirmButton.obj
 0001:0001bdf0       ??$move@AAV?$shared_ptr@VRawImageData@@@std@@@std@@YA$$QAV?$shared_ptr@VRawImageData@@@0@AAV10@@Z 0041cdf0 f i ConfirmButton.obj
 0001:0001be00       ??$move@AAV?$weak_ptr@VRawImageData@@@std@@@std@@YA$$QAV?$weak_ptr@VRawImageData@@@0@AAV10@@Z 0041ce00 f i ConfirmButton.obj
 0001:0001be10       ??$swap@D$0A@@std@@YAXAAD0@Z 0041ce10 f i ConfirmButton.obj
 0001:0001be60       ??$swap@PAVAnimation@@$0A@@std@@YAXAAPAVAnimation@@0@Z 0041ce60 f i ConfirmButton.obj
 0001:0001beb0       ??$swap@PAVRawImageData@@$0A@@std@@YAXAAPAVRawImageData@@0@Z 0041ceb0 f i ConfirmButton.obj
 0001:0001bf00       ??$swap@PAV_Ref_count_base@std@@$0A@@std@@YAXAAPAV_Ref_count_base@0@0@Z 0041cf00 f i ConfirmButton.obj
 0001:0001bf50       ??0?$Animator@W4ButtonState@@X@@QAE@XZ 0041cf50 f i ConfirmButton.obj
 0001:0001bf80       ??0?$_Alloc_construct_ptr@V?$allocator@U?$_Tree_node@U?$pair@$$CBV?$basic_string@DU?$char_traits@D@std@@V?$allocator@D@2@@std@@V?$shared_ptr@VRawImageData@@@2@@std@@PAX@std@@@std@@@std@@QAE@AAV?$allocator@U?$_Tree_node@U?$pair@$$CBV?$basic_string@DU?$char_traits@D@std@@V?$allocator@D@2@@std@@V?$shared_ptr@VRawImageData@@@2@@std@@PAX@std@@@1@@Z 0041cf80 f i ConfirmButton.obj
 0001:0001bfb0       ??0?$_Alloc_construct_ptr@V?$allocator@U?$_Tree_node@U?$pair@$$CBV?$basic_string@DU?$char_traits@D@std@@V?$allocator@D@2@@std@@V?$weak_ptr@VRawImageData@@@2@@std@@PAX@std@@@std@@@std@@QAE@AAV?$allocator@U?$_Tree_node@U?$pair@$$CBV?$basic_string@DU?$char_traits@D@std@@V?$allocator@D@2@@std@@V?$weak_ptr@VRawImageData@@@2@@std@@PAX@std@@@1@@Z 0041cfb0 f i ConfirmButton.obj
 0001:0001bfe0       ??0?$_Alloc_construct_ptr@V?$allocator@U?$_Tree_node@U?$pair@$$CBW4ButtonState@@V?$shared_ptr@VAnimation@@@std@@@std@@PAX@std@@@std@@@std@@QAE@AAV?$allocator@U?$_Tree_node@U?$pair@$$CBW4ButtonState@@V?$shared_ptr@VAnimation@@@std@@@std@@PAX@std@@@1@@Z 0041cfe0 f i ConfirmButton.obj
 0001:0001c010       ??0?$_Ptr_base@VAnimation@@@std@@IAE@XZ 0041d010 f i ConfirmButton.obj
 0001:0001c040       ??0?$_Ref_count@VRawImageData@@@std@@QAE@PAVRawImageData@@@Z 0041d040 f i ConfirmButton.obj
 0001:0001c090       ??0?$_String_val@U?$_Simple_types@D@std@@@std@@QAE@XZ 0041d090 f i ConfirmButton.obj
 0001:0001c0e0       ??0?$_Temporary_owner@VRawImageData@@@std@@QAE@QAVRawImageData@@@Z 0041d0e0 f i ConfirmButton.obj
 0001:0001c100       ??0?$_Tree@V?$_Tmap_traits@V?$basic_string@DU?$char_traits@D@std@@V?$allocator@D@2@@std@@V?$shared_ptr@VRawImageData@@@2@U?$less@V?$basic_string@DU?$char_traits@D@std@@V?$allocator@D@2@@std@@@2@V?$allocator@U?$pair@$$CBV?$basic_string@DU?$char_traits@D@std@@V?$allocator@D@2@@std@@V?$shared_ptr@VRawImageData@@@2@@std@@@2@$0A@@std@@@std@@QAE@ABU?$less@V?$basic_string@DU?$char_traits@D@std@@V?$allocator@D@2@@std@@@1@@Z 0041d100 f i ConfirmButton.obj
 0001:0001c140       ??0?$_Tree@V?$_Tmap_traits@V?$basic_string@DU?$char_traits@D@std@@V?$allocator@D@2@@std@@V?$weak_ptr@VRawImageData@@@2@U?$less@V?$basic_string@DU?$char_traits@D@std@@V?$allocator@D@2@@std@@@2@V?$allocator@U?$pair@$$CBV?$basic_string@DU?$char_traits@D@std@@V?$allocator@D@2@@std@@V?$weak_ptr@VRawImageData@@@2@@std@@@2@$0A@@std@@@std@@QAE@ABU?$less@V?$basic_string@DU?$char_traits@D@std@@V?$allocator@D@2@@std@@@1@@Z 0041d140 f i ConfirmButton.obj
 0001:0001c180       ??0?$_Tree@V?$_Tmap_traits@W4ButtonState@@V?$shared_ptr@VAnimation@@@std@@U?$less@W4ButtonState@@@3@V?$allocator@U?$pair@$$CBW4ButtonState@@V?$shared_ptr@VAnimation@@@std@@@std@@@3@$0A@@std@@@std@@QAE@ABU?$less@W4ButtonState@@@1@@Z 0041d180 f i ConfirmButton.obj
 0001:0001c1c0       ??0?$_Tree_const_iterator@V?$_Tree_val@U?$_Tree_simple_types@U?$pair@$$CBV?$basic_string@DU?$char_traits@D@std@@V?$allocator@D@2@@std@@V?$shared_ptr@VRawImageData@@@2@@std@@@std@@@std@@@std@@QAE@$$QAV01@@Z 0041d1c0 f i ConfirmButton.obj
 0001:0001c1f0       ??0?$_Tree_const_iterator@V?$_Tree_val@U?$_Tree_simple_types@U?$pair@$$CBV?$basic_string@DU?$char_traits@D@std@@V?$allocator@D@2@@std@@V?$shared_ptr@VRawImageData@@@2@@std@@@std@@@std@@@std@@QAE@PAU?$_Tree_node@U?$pair@$$CBV?$basic_string@DU?$char_traits@D@std@@V?$allocator@D@2@@std@@V?$shared_ptr@VRawImageData@@@2@@std@@PAX@1@PBV?$_Tree_val@U?$_Tree_simple_types@U?$pair@$$CBV?$basic_string@DU?$char_traits@D@std@@V?$allocator@D@2@@std@@V?$shared_ptr@VRawImageData@@@2@@std@@@std@@@1@@Z 0041d1f0 f i ConfirmButton.obj
 0001:0001c220       ??0?$_Tree_const_iterator@V?$_Tree_val@U?$_Tree_simple_types@U?$pair@$$CBV?$basic_string@DU?$char_traits@D@std@@V?$allocator@D@2@@std@@V?$weak_ptr@VRawImageData@@@2@@std@@@std@@@std@@@std@@QAE@$$QAV01@@Z 0041d220 f i ConfirmButton.obj
 0001:0001c250       ??0?$_Tree_const_iterator@V?$_Tree_val@U?$_Tree_simple_types@U?$pair@$$CBV?$basic_string@DU?$char_traits@D@std@@V?$allocator@D@2@@std@@V?$weak_ptr@VRawImageData@@@2@@std@@@std@@@std@@@std@@QAE@ABV01@@Z 0041d250 f i ConfirmButton.obj
 0001:0001c280       ??0?$_Tree_const_iterator@V?$_Tree_val@U?$_Tree_simple_types@U?$pair@$$CBV?$basic_string@DU?$char_traits@D@std@@V?$allocator@D@2@@std@@V?$weak_ptr@VRawImageData@@@2@@std@@@std@@@std@@@std@@QAE@PAU?$_Tree_node@U?$pair@$$CBV?$basic_string@DU?$char_traits@D@std@@V?$allocator@D@2@@std@@V?$weak_ptr@VRawImageData@@@2@@std@@PAX@1@PBV?$_Tree_val@U?$_Tree_simple_types@U?$pair@$$CBV?$basic_string@DU?$char_traits@D@std@@V?$allocator@D@2@@std@@V?$weak_ptr@VRawImageData@@@2@@std@@@std@@@1@@Z 0041d280 f i ConfirmButton.obj
 0001:0001c2b0       ??0?$_Tree_const_iterator@V?$_Tree_val@U?$_Tree_simple_types@U?$pair@$$CBW4ButtonState@@V?$shared_ptr@VAnimation@@@std@@@std@@@std@@@std@@@std@@QAE@$$QAV01@@Z 0041d2b0 f i ConfirmButton.obj
 0001:0001c2e0       ??0?$_Tree_const_iterator@V?$_Tree_val@U?$_Tree_simple_types@U?$pair@$$CBW4ButtonState@@V?$shared_ptr@VAnimation@@@std@@@std@@@std@@@std@@@std@@QAE@PAU?$_Tree_node@U?$pair@$$CBW4ButtonState@@V?$shared_ptr@VAnimation@@@std@@@std@@PAX@1@PBV?$_Tree_val@U?$_Tree_simple_types@U?$pair@$$CBW4ButtonState@@V?$shared_ptr@VAnimation@@@std@@@std@@@std@@@1@@Z 0041d2e0 f i ConfirmButton.obj
 0001:0001c310       ??0?$_Tree_iterator@V?$_Tree_val@U?$_Tree_simple_types@U?$pair@$$CBV?$basic_string@DU?$char_traits@D@std@@V?$allocator@D@2@@std@@V?$shared_ptr@VRawImageData@@@2@@std@@@std@@@std@@@std@@QAE@$$QAV01@@Z 0041d310 f i ConfirmButton.obj
 0001:0001c340       ??0?$_Tree_iterator@V?$_Tree_val@U?$_Tree_simple_types@U?$pair@$$CBV?$basic_string@DU?$char_traits@D@std@@V?$allocator@D@2@@std@@V?$shared_ptr@VRawImageData@@@2@@std@@@std@@@std@@@std@@QAE@PAU?$_Tree_node@U?$pair@$$CBV?$basic_string@DU?$char_traits@D@std@@V?$allocator@D@2@@std@@V?$shared_ptr@VRawImageData@@@2@@std@@PAX@1@PBV?$_Tree_val@U?$_Tree_simple_types@U?$pair@$$CBV?$basic_string@DU?$char_traits@D@std@@V?$allocator@D@2@@std@@V?$shared_ptr@VRawImageData@@@2@@std@@@std@@@1@@Z 0041d340 f i ConfirmButton.obj
 0001:0001c370       ??0?$_Tree_iterator@V?$_Tree_val@U?$_Tree_simple_types@U?$pair@$$CBV?$basic_string@DU?$char_traits@D@std@@V?$allocator@D@2@@std@@V?$weak_ptr@VRawImageData@@@2@@std@@@std@@@std@@@std@@QAE@$$QAV01@@Z 0041d370 f i ConfirmButton.obj
 0001:0001c3a0       ??0?$_Tree_iterator@V?$_Tree_val@U?$_Tree_simple_types@U?$pair@$$CBV?$basic_string@DU?$char_traits@D@std@@V?$allocator@D@2@@std@@V?$weak_ptr@VRawImageData@@@2@@std@@@std@@@std@@@std@@QAE@ABV01@@Z 0041d3a0 f i ConfirmButton.obj
 0001:0001c3d0       ??0?$_Tree_iterator@V?$_Tree_val@U?$_Tree_simple_types@U?$pair@$$CBV?$basic_string@DU?$char_traits@D@std@@V?$allocator@D@2@@std@@V?$weak_ptr@VRawImageData@@@2@@std@@@std@@@std@@@std@@QAE@PAU?$_Tree_node@U?$pair@$$CBV?$basic_string@DU?$char_traits@D@std@@V?$allocator@D@2@@std@@V?$weak_ptr@VRawImageData@@@2@@std@@PAX@1@PBV?$_Tree_val@U?$_Tree_simple_types@U?$pair@$$CBV?$basic_string@DU?$char_traits@D@std@@V?$allocator@D@2@@std@@V?$weak_ptr@VRawImageData@@@2@@std@@@std@@@1@@Z 0041d3d0 f i ConfirmButton.obj
 0001:0001c400       ??0?$_Tree_iterator@V?$_Tree_val@U?$_Tree_simple_types@U?$pair@$$CBW4ButtonState@@V?$shared_ptr@VAnimation@@@std@@@std@@@std@@@std@@@std@@QAE@$$QAV01@@Z 0041d400 f i ConfirmButton.obj
 0001:0001c430       ??0?$_Tree_iterator@V?$_Tree_val@U?$_Tree_simple_types@U?$pair@$$CBW4ButtonState@@V?$shared_ptr@VAnimation@@@std@@@std@@@std@@@std@@@std@@QAE@PAU?$_Tree_node@U?$pair@$$CBW4ButtonState@@V?$shared_ptr@VAnimation@@@std@@@std@@PAX@1@PBV?$_Tree_val@U?$_Tree_simple_types@U?$pair@$$CBW4ButtonState@@V?$shared_ptr@VAnimation@@@std@@@std@@@std@@@1@@Z 0041d430 f i ConfirmButton.obj
 0001:0001c460       ??0?$_Tree_temp_node_alloc@V?$allocator@U?$_Tree_node@U?$pair@$$CBV?$basic_string@DU?$char_traits@D@std@@V?$allocator@D@2@@std@@V?$shared_ptr@VRawImageData@@@2@@std@@PAX@std@@@std@@@std@@QAE@AAV?$allocator@U?$_Tree_node@U?$pair@$$CBV?$basic_string@DU?$char_traits@D@std@@V?$allocator@D@2@@std@@V?$shared_ptr@VRawImageData@@@2@@std@@PAX@std@@@1@@Z 0041d460 f i ConfirmButton.obj
 0001:0001c4e0       ??0?$_Tree_temp_node_alloc@V?$allocator@U?$_Tree_node@U?$pair@$$CBV?$basic_string@DU?$char_traits@D@std@@V?$allocator@D@2@@std@@V?$weak_ptr@VRawImageData@@@2@@std@@PAX@std@@@std@@@std@@QAE@AAV?$allocator@U?$_Tree_node@U?$pair@$$CBV?$basic_string@DU?$char_traits@D@std@@V?$allocator@D@2@@std@@V?$weak_ptr@VRawImageData@@@2@@std@@PAX@std@@@1@@Z 0041d4e0 f i ConfirmButton.obj
 0001:0001c560       ??0?$_Tree_temp_node_alloc@V?$allocator@U?$_Tree_node@U?$pair@$$CBW4ButtonState@@V?$shared_ptr@VAnimation@@@std@@@std@@PAX@std@@@std@@@std@@QAE@AAV?$allocator@U?$_Tree_node@U?$pair@$$CBW4ButtonState@@V?$shared_ptr@VAnimation@@@std@@@std@@PAX@std@@@1@@Z 0041d560 f i ConfirmButton.obj
 0001:0001c5e0       ??0?$_Tree_unchecked_const_iterator@V?$_Tree_val@U?$_Tree_simple_types@U?$pair@$$CBV?$basic_string@DU?$char_traits@D@std@@V?$allocator@D@2@@std@@V?$shared_ptr@VRawImageData@@@2@@std@@@std@@@std@@U_Iterator_base12@2@@std@@QAE@$$QAV01@@Z 0041d5e0 f i ConfirmButton.obj
 0001:0001c620       ??0?$_Tree_unchecked_const_iterator@V?$_Tree_val@U?$_Tree_simple_types@U?$pair@$$CBV?$basic_string@DU?$char_traits@D@std@@V?$allocator@D@2@@std@@V?$shared_ptr@VRawImageData@@@2@@std@@@std@@@std@@U_Iterator_base12@2@@std@@QAE@PAU?$_Tree_node@U?$pair@$$CBV?$basic_string@DU?$char_traits@D@std@@V?$allocator@D@2@@std@@V?$shared_ptr@VRawImageData@@@2@@std@@PAX@1@PBV?$_Tree_val@U?$_Tree_simple_types@U?$pair@$$CBV?$basic_string@DU?$char_traits@D@std@@V?$allocator@D@2@@std@@V?$shared_ptr@VRawImageData@@@2@@std@@@std@@@1@@Z 0041d620 f i ConfirmButton.obj
 0001:0001c660       ??0?$_Tree_unchecked_const_iterator@V?$_Tree_val@U?$_Tree_simple_types@U?$pair@$$CBV?$basic_string@DU?$char_traits@D@std@@V?$allocator@D@2@@std@@V?$weak_ptr@VRawImageData@@@2@@std@@@std@@@std@@U_Iterator_base0@2@@std@@QAE@PAU?$_Tree_node@U?$pair@$$CBV?$basic_string@DU?$char_traits@D@std@@V?$allocator@D@2@@std@@V?$weak_ptr@VRawImageData@@@2@@std@@PAX@1@PBV?$_Tree_val@U?$_Tree_simple_types@U?$pair@$$CBV?$basic_string@DU?$char_traits@D@std@@V?$allocator@D@2@@std@@V?$weak_ptr@VRawImageData@@@2@@std@@@std@@@1@@Z 0041d660 f i ConfirmButton.obj
 0001:0001c690       ??0?$_Tree_unchecked_const_iterator@V?$_Tree_val@U?$_Tree_simple_types@U?$pair@$$CBV?$basic_string@DU?$char_traits@D@std@@V?$allocator@D@2@@std@@V?$weak_ptr@VRawImageData@@@2@@std@@@std@@@std@@U_Iterator_base12@2@@std@@QAE@$$QAV01@@Z 0041d690 f i ConfirmButton.obj
 0001:0001c6d0       ??0?$_Tree_unchecked_const_iterator@V?$_Tree_val@U?$_Tree_simple_types@U?$pair@$$CBV?$basic_string@DU?$char_traits@D@std@@V?$allocator@D@2@@std@@V?$weak_ptr@VRawImageData@@@2@@std@@@std@@@std@@U_Iterator_base12@2@@std@@QAE@ABV01@@Z 0041d6d0 f i ConfirmButton.obj
 0001:0001c710       ??0?$_Tree_unchecked_const_iterator@V?$_Tree_val@U?$_Tree_simple_types@U?$pair@$$CBV?$basic_string@DU?$char_traits@D@std@@V?$allocator@D@2@@std@@V?$weak_ptr@VRawImageData@@@2@@std@@@std@@@std@@U_Iterator_base12@2@@std@@QAE@PAU?$_Tree_node@U?$pair@$$CBV?$basic_string@DU?$char_traits@D@std@@V?$allocator@D@2@@std@@V?$weak_ptr@VRawImageData@@@2@@std@@PAX@1@PBV?$_Tree_val@U?$_Tree_simple_types@U?$pair@$$CBV?$basic_string@DU?$char_traits@D@std@@V?$allocator@D@2@@std@@V?$weak_ptr@VRawImageData@@@2@@std@@@std@@@1@@Z 0041d710 f i ConfirmButton.obj
 0001:0001c750       ??0?$_Tree_unchecked_const_iterator@V?$_Tree_val@U?$_Tree_simple_types@U?$pair@$$CBW4ButtonState@@V?$shared_ptr@VAnimation@@@std@@@std@@@std@@@std@@U_Iterator_base12@2@@std@@QAE@$$QAV01@@Z 0041d750 f i ConfirmButton.obj
 0001:0001c790       ??0?$_Tree_unchecked_const_iterator@V?$_Tree_val@U?$_Tree_simple_types@U?$pair@$$CBW4ButtonState@@V?$shared_ptr@VAnimation@@@std@@@std@@@std@@@std@@U_Iterator_base12@2@@std@@QAE@PAU?$_Tree_node@U?$pair@$$CBW4ButtonState@@V?$shared_ptr@VAnimation@@@std@@@std@@PAX@1@PBV?$_Tree_val@U?$_Tree_simple_types@U?$pair@$$CBW4ButtonState@@V?$shared_ptr@VAnimation@@@std@@@std@@@std@@@1@@Z 0041d790 f i ConfirmButton.obj
 0001:0001c7d0       ??0?$_Tree_unchecked_iterator@V?$_Tree_val@U?$_Tree_simple_types@U?$pair@$$CBV?$basic_string@DU?$char_traits@D@std@@V?$allocator@D@2@@std@@V?$weak_ptr@VRawImageData@@@2@@std@@@std@@@std@@@std@@QAE@PAU?$_Tree_node@U?$pair@$$CBV?$basic_string@DU?$char_traits@D@std@@V?$allocator@D@2@@std@@V?$weak_ptr@VRawImageData@@@2@@std@@PAX@1@PBV?$_Tree_val@U?$_Tree_simple_types@U?$pair@$$CBV?$basic_string@DU?$char_traits@D@std@@V?$allocator@D@2@@std@@V?$weak_ptr@VRawImageData@@@2@@std@@@std@@@1@@Z 0041d7d0 f i ConfirmButton.obj
 0001:0001c800       ??0?$_Tree_val@U?$_Tree_simple_types@U?$pair@$$CBV?$basic_string@DU?$char_traits@D@std@@V?$allocator@D@2@@std@@V?$shared_ptr@VRawImageData@@@2@@std@@@std@@@std@@QAE@XZ 0041d800 f i ConfirmButton.obj
 0001:0001c840       ??0?$_Tree_val@U?$_Tree_simple_types@U?$pair@$$CBV?$basic_string@DU?$char_traits@D@std@@V?$allocator@D@2@@std@@V?$weak_ptr@VRawImageData@@@2@@std@@@std@@@std@@QAE@XZ 0041d840 f i ConfirmButton.obj
 0001:0001c880       ??0?$_Tree_val@U?$_Tree_simple_types@U?$pair@$$CBW4ButtonState@@V?$shared_ptr@VAnimation@@@std@@@std@@@std@@@std@@QAE@XZ 0041d880 f i ConfirmButton.obj
 0001:0001c8c0       ??0?$allocator@D@std@@QAE@XZ 0041d8c0 f i ConfirmButton.obj
 0001:0001c8e0       ??0?$allocator@U?$_Tree_node@U?$pair@$$CBV?$basic_string@DU?$char_traits@D@std@@V?$allocator@D@2@@std@@V?$shared_ptr@VRawImageData@@@2@@std@@PAX@std@@@std@@QAE@XZ 0041d8e0 f i ConfirmButton.obj
 0001:0001c900       ??0?$allocator@U?$_Tree_node@U?$pair@$$CBV?$basic_string@DU?$char_traits@D@std@@V?$allocator@D@2@@std@@V?$weak_ptr@VRawImageData@@@2@@std@@PAX@std@@@std@@QAE@XZ 0041d900 f i ConfirmButton.obj
 0001:0001c920       ??0?$allocator@U?$_Tree_node@U?$pair@$$CBW4ButtonState@@V?$shared_ptr@VAnimation@@@std@@@std@@PAX@std@@@std@@QAE@XZ 0041d920 f i ConfirmButton.obj
 0001:0001c940       ??0?$basic_string@DU?$char_traits@D@std@@V?$allocator@D@2@@std@@QAE@$$QAV01@@Z 0041d940 f i ConfirmButton.obj
 0001:0001ca00       ??0?$basic_string@DU?$char_traits@D@std@@V?$allocator@D@2@@std@@QAE@ABV01@@Z 0041da00 f i ConfirmButton.obj
 0001:0001caf0       ??0?$basic_string@DU?$char_traits@D@std@@V?$allocator@D@2@@std@@QAE@QBD@Z 0041daf0 f i ConfirmButton.obj
 0001:0001cbd0       ??0?$map@V?$basic_string@DU?$char_traits@D@std@@V?$allocator@D@2@@std@@V?$shared_ptr@VRawImageData@@@2@U?$less@V?$basic_string@DU?$char_traits@D@std@@V?$allocator@D@2@@std@@@2@V?$allocator@U?$pair@$$CBV?$basic_string@DU?$char_traits@D@std@@V?$allocator@D@2@@std@@V?$shared_ptr@VRawImageData@@@2@@std@@@2@@std@@QAE@XZ 0041dbd0 f i ConfirmButton.obj
 0001:0001cc00       ??0?$map@V?$basic_string@DU?$char_traits@D@std@@V?$allocator@D@2@@std@@V?$weak_ptr@VRawImageData@@@2@U?$less@V?$basic_string@DU?$char_traits@D@std@@V?$allocator@D@2@@std@@@2@V?$allocator@U?$pair@$$CBV?$basic_string@DU?$char_traits@D@std@@V?$allocator@D@2@@std@@V?$weak_ptr@VRawImageData@@@2@@std@@@2@@std@@QAE@XZ 0041dc00 f i ConfirmButton.obj
 0001:0001cc30       ??0?$map@W4ButtonState@@V?$shared_ptr@VAnimation@@@std@@U?$less@W4ButtonState@@@3@V?$allocator@U?$pair@$$CBW4ButtonState@@V?$shared_ptr@VAnimation@@@std@@@std@@@3@@std@@QAE@XZ 0041dc30 f i ConfirmButton.obj
 0001:0001cc60       ??0?$shared_ptr@VAnimation@@@std@@QAE@$$QAV01@@Z 0041dc60 f i ConfirmButton.obj
 0001:0001cca0       ??0?$shared_ptr@VAnimation@@@std@@QAE@ABV01@@Z 0041dca0 f i ConfirmButton.obj
 0001:0001ccd0       ??0?$shared_ptr@VAnimation@@@std@@QAE@XZ 0041dcd0 f i ConfirmButton.obj
 0001:0001ccf0       ??0?$shared_ptr@VRawImageData@@@std@@QAE@$$QAV01@@Z 0041dcf0 f i ConfirmButton.obj
 0001:0001cd30       ??0?$shared_ptr@VRawImageData@@@std@@QAE@$$T@Z 0041dd30 f i ConfirmButton.obj
 0001:0001cd50       ??0?$shared_ptr@VRawImageData@@@std@@QAE@XZ 0041dd50 f i ConfirmButton.obj
 0001:0001cd70       ??0?$weak_ptr@VRawImageData@@@std@@QAE@$$QAV01@@Z 0041dd70 f i ConfirmButton.obj
 0001:0001cdb0       ??0?$weak_ptr@VRawImageData@@@std@@QAE@ABV01@@Z 0041ddb0 f i ConfirmButton.obj
 0001:0001cde0       ??0BaseButton@@QAE@HHHH@Z  0041dde0 f i ConfirmButton.obj
 0001:0001ce50       ??0GameObject@@QAE@HHHH_N@Z 0041de50 f i ConfirmButton.obj
 0001:0001cf90       ??0ImageManager@@QAE@XZ    0041df90 f i ConfirmButton.obj
 0001:0001d000       ??0ImageMappingGeneralist@@QAE@NHH@Z 0041e000 f i ConfirmButton.obj
 0001:0001d0c0       ??0ImagePixelMapping@@QAE@XZ 0041e0c0 f i ConfirmButton.obj
 0001:0001d0e0       ??0ImagePixelMappingRotate@@QAE@N@Z 0041e0e0 f i ConfirmButton.obj
 0001:0001d120       ??0RawImageData@@QAE@V?$basic_string@DU?$char_traits@D@std@@V?$allocator@D@2@@std@@@Z 0041e120 f i ConfirmButton.obj
 0001:0001d1d0       ??0_Bxty@?$_String_val@U?$_Simple_types@D@std@@@std@@QAE@XZ 0041e1d0 f i ConfirmButton.obj
 0001:0001d1f0       ??0_Ref_count_base@std@@IAE@XZ 0041e1f0 f i ConfirmButton.obj
 0001:0001d220       ??0_Sentry_base@?$basic_ostream@DU?$char_traits@D@std@@@std@@QAE@AAV12@@Z 0041e220 f i ConfirmButton.obj
 0001:0001d280       ??0sentry@?$basic_ostream@DU?$char_traits@D@std@@@std@@QAE@AAV12@@Z 0041e280 f i ConfirmButton.obj
 0001:0001d380       ??1?$Animator@W4ButtonState@@X@@QAE@XZ 0041e380 f i ConfirmButton.obj
 0001:0001d3b0       ??1?$_Alloc_construct_ptr@V?$allocator@U?$_Tree_node@U?$pair@$$CBV?$basic_string@DU?$char_traits@D@std@@V?$allocator@D@2@@std@@V?$shared_ptr@VRawImageData@@@2@@std@@PAX@std@@@std@@@std@@QAE@XZ 0041e3b0 f i ConfirmButton.obj
 0001:0001d420       ??1?$_Alloc_construct_ptr@V?$allocator@U?$_Tree_node@U?$pair@$$CBV?$basic_string@DU?$char_traits@D@std@@V?$allocator@D@2@@std@@V?$weak_ptr@VRawImageData@@@2@@std@@PAX@std@@@std@@@std@@QAE@XZ 0041e420 f i ConfirmButton.obj
 0001:0001d490       ??1?$_Alloc_construct_ptr@V?$allocator@U?$_Tree_node@U?$pair@$$CBW4ButtonState@@V?$shared_ptr@VAnimation@@@std@@@std@@PAX@std@@@std@@@std@@QAE@XZ 0041e490 f i ConfirmButton.obj
 0001:0001d500       ??1?$_Compressed_pair@V?$allocator@D@std@@V?$_String_val@U?$_Simple_types@D@std@@@2@$00@std@@QAE@XZ 0041e500 f i ConfirmButton.obj
 0001:0001d520       ??1?$_Ref_count@VRawImageData@@@std@@UAE@XZ 0041e520 f i ConfirmButton.obj
 0001:0001d540       ??1?$_Ref_count_obj2@VAnimation@@@std@@UAE@XZ 0041e540 f i ConfirmButton.obj
 0001:0001d570       ??1?$_String_val@U?$_Simple_types@D@std@@@std@@QAE@XZ 0041e570 f i ConfirmButton.obj
 0001:0001d590       ??1?$_Temporary_owner@VRawImageData@@@std@@QAE@XZ 0041e590 f i ConfirmButton.obj
 0001:0001d5d0       ??1?$_Tree@V?$_Tmap_traits@V?$basic_string@DU?$char_traits@D@std@@V?$allocator@D@2@@std@@V?$weak_ptr@VRawImageData@@@2@U?$less@V?$basic_string@DU?$char_traits@D@std@@V?$allocator@D@2@@std@@@2@V?$allocator@U?$pair@$$CBV?$basic_string@DU?$char_traits@D@std@@V?$allocator@D@2@@std@@V?$weak_ptr@VRawImageData@@@2@@std@@@2@$0A@@std@@@std@@QAE@XZ 0041e5d0 f i ConfirmButton.obj
 0001:0001d640       ??1?$_Tree@V?$_Tmap_traits@W4ButtonState@@V?$shared_ptr@VAnimation@@@std@@U?$less@W4ButtonState@@@3@V?$allocator@U?$pair@$$CBW4ButtonState@@V?$shared_ptr@VAnimation@@@std@@@std@@@3@$0A@@std@@@std@@QAE@XZ 0041e640 f i ConfirmButton.obj
 0001:0001d6b0       ??1?$_Tree_const_iterator@V?$_Tree_val@U?$_Tree_simple_types@U?$pair@$$CBV?$basic_string@DU?$char_traits@D@std@@V?$allocator@D@2@@std@@V?$shared_ptr@VRawImageData@@@2@@std@@@std@@@std@@@std@@QAE@XZ 0041e6b0 f i ConfirmButton.obj
 0001:0001d6d0       ??1?$_Tree_const_iterator@V?$_Tree_val@U?$_Tree_simple_types@U?$pair@$$CBV?$basic_string@DU?$char_traits@D@std@@V?$allocator@D@2@@std@@V?$weak_ptr@VRawImageData@@@2@@std@@@std@@@std@@@std@@QAE@XZ 0041e6d0 f i ConfirmButton.obj
 0001:0001d6f0       ??1?$_Tree_const_iterator@V?$_Tree_val@U?$_Tree_simple_types@U?$pair@$$CBW4ButtonState@@V?$shared_ptr@VAnimation@@@std@@@std@@@std@@@std@@@std@@QAE@XZ 0041e6f0 f i ConfirmButton.obj
 0001:0001d710       ??1?$_Tree_iterator@V?$_Tree_val@U?$_Tree_simple_types@U?$pair@$$CBV?$basic_string@DU?$char_traits@D@std@@V?$allocator@D@2@@std@@V?$shared_ptr@VRawImageData@@@2@@std@@@std@@@std@@@std@@QAE@XZ 0041e710 f i ConfirmButton.obj
 0001:0001d730       ??1?$_Tree_iterator@V?$_Tree_val@U?$_Tree_simple_types@U?$pair@$$CBV?$basic_string@DU?$char_traits@D@std@@V?$allocator@D@2@@std@@V?$weak_ptr@VRawImageData@@@2@@std@@@std@@@std@@@std@@QAE@XZ 0041e730 f i ConfirmButton.obj
 0001:0001d750       ??1?$_Tree_iterator@V?$_Tree_val@U?$_Tree_simple_types@U?$pair@$$CBW4ButtonState@@V?$shared_ptr@VAnimation@@@std@@@std@@@std@@@std@@@std@@QAE@XZ 0041e750 f i ConfirmButton.obj
 0001:0001d770       ??1?$_Tree_temp_node@V?$allocator@U?$_Tree_node@U?$pair@$$CBV?$basic_string@DU?$char_traits@D@std@@V?$allocator@D@2@@std@@V?$shared_ptr@VRawImageData@@@2@@std@@PAX@std@@@std@@@std@@QAE@XZ 0041e770 f i ConfirmButton.obj
 0001:0001d840       ??1?$_Tree_temp_node@V?$allocator@U?$_Tree_node@U?$pair@$$CBV?$basic_string@DU?$char_traits@D@std@@V?$allocator@D@2@@std@@V?$weak_ptr@VRawImageData@@@2@@std@@PAX@std@@@std@@@std@@QAE@XZ 0041e840 f i ConfirmButton.obj
 0001:0001d910       ??1?$_Tree_temp_node@V?$allocator@U?$_Tree_node@U?$pair@$$CBW4ButtonState@@V?$shared_ptr@VAnimation@@@std@@@std@@PAX@std@@@std@@@std@@QAE@XZ 0041e910 f i ConfirmButton.obj
 0001:0001d9e0       ??1?$_Tree_temp_node_alloc@V?$allocator@U?$_Tree_node@U?$pair@$$CBV?$basic_string@DU?$char_traits@D@std@@V?$allocator@D@2@@std@@V?$shared_ptr@VRawImageData@@@2@@std@@PAX@std@@@std@@@std@@QAE@XZ 0041e9e0 f i ConfirmButton.obj
 0001:0001da00       ??1?$_Tree_temp_node_alloc@V?$allocator@U?$_Tree_node@U?$pair@$$CBV?$basic_string@DU?$char_traits@D@std@@V?$allocator@D@2@@std@@V?$weak_ptr@VRawImageData@@@2@@std@@PAX@std@@@std@@@std@@QAE@XZ 0041ea00 f i ConfirmButton.obj
 0001:0001da20       ??1?$_Tree_temp_node_alloc@V?$allocator@U?$_Tree_node@U?$pair@$$CBW4ButtonState@@V?$shared_ptr@VAnimation@@@std@@@std@@PAX@std@@@std@@@std@@QAE@XZ 0041ea20 f i ConfirmButton.obj
 0001:0001da40       ??1?$_Tree_unchecked_const_iterator@V?$_Tree_val@U?$_Tree_simple_types@U?$pair@$$CBV?$basic_string@DU?$char_traits@D@std@@V?$allocator@D@2@@std@@V?$shared_ptr@VRawImageData@@@2@@std@@@std@@@std@@U_Iterator_base12@2@@std@@QAE@XZ 0041ea40 f i ConfirmButton.obj
 0001:0001da60       ??1?$_Tree_unchecked_const_iterator@V?$_Tree_val@U?$_Tree_simple_types@U?$pair@$$CBV?$basic_string@DU?$char_traits@D@std@@V?$allocator@D@2@@std@@V?$weak_ptr@VRawImageData@@@2@@std@@@std@@@std@@U_Iterator_base12@2@@std@@QAE@XZ 0041ea60 f i ConfirmButton.obj
 0001:0001da80       ??1?$_Tree_unchecked_const_iterator@V?$_Tree_val@U?$_Tree_simple_types@U?$pair@$$CBW4ButtonState@@V?$shared_ptr@VAnimation@@@std@@@std@@@std@@@std@@U_Iterator_base12@2@@std@@QAE@XZ 0041ea80 f i ConfirmButton.obj
 0001:0001daa0       ??1?$basic_string@DU?$char_traits@D@std@@V?$allocator@D@2@@std@@QAE@XZ 0041eaa0 f i ConfirmButton.obj
 0001:0001db10       ??1?$map@V?$basic_string@DU?$char_traits@D@std@@V?$allocator@D@2@@std@@V?$weak_ptr@VRawImageData@@@2@U?$less@V?$basic_string@DU?$char_traits@D@std@@V?$allocator@D@2@@std@@@2@V?$allocator@U?$pair@$$CBV?$basic_string@DU?$char_traits@D@std@@V?$allocator@D@2@@std@@V?$weak_ptr@VRawImageData@@@2@@std@@@2@@std@@QAE@XZ 0041eb10 f i ConfirmButton.obj
 0001:0001db30       ??1?$map@W4ButtonState@@V?$shared_ptr@VAnimation@@@std@@U?$less@W4ButtonState@@@3@V?$allocator@U?$pair@$$CBW4ButtonState@@V?$shared_ptr@VAnimation@@@std@@@std@@@3@@std@@QAE@XZ 0041eb30 f i ConfirmButton.obj
 0001:0001db50       ??1?$pair@$$CBV?$basic_string@DU?$char_traits@D@std@@V?$allocator@D@2@@std@@V?$shared_ptr@VRawImageData@@@2@@std@@QAE@XZ 0041eb50 f i ConfirmButton.obj
 0001:0001db80       ??1?$pair@$$CBV?$basic_string@DU?$char_traits@D@std@@V?$allocator@D@2@@std@@V?$weak_ptr@VRawImageData@@@2@@std@@QAE@XZ 0041eb80 f i ConfirmButton.obj
 0001:0001dbb0       ??1?$pair@$$CBW4ButtonState@@V?$shared_ptr@VAnimation@@@std@@@std@@QAE@XZ 0041ebb0 f i ConfirmButton.obj
 0001:0001dbd0       ??1?$pair@V?$_Tree_iterator@V?$_Tree_val@U?$_Tree_simple_types@U?$pair@$$CBV?$basic_string@DU?$char_traits@D@std@@V?$allocator@D@2@@std@@V?$shared_ptr@VRawImageData@@@2@@std@@@std@@@std@@@std@@_N@std@@QAE@XZ 0041ebd0 f i ConfirmButton.obj
 0001:0001dbf0       ??1?$pair@V?$_Tree_iterator@V?$_Tree_val@U?$_Tree_simple_types@U?$pair@$$CBV?$basic_string@DU?$char_traits@D@std@@V?$allocator@D@2@@std@@V?$weak_ptr@VRawImageData@@@2@@std@@@std@@@std@@@std@@_N@std@@QAE@XZ 0041ebf0 f i ConfirmButton.obj
 0001:0001dc10       ??1?$pair@V?$_Tree_iterator@V?$_Tree_val@U?$_Tree_simple_types@U?$pair@$$CBW4ButtonState@@V?$shared_ptr@VAnimation@@@std@@@std@@@std@@@std@@@std@@_N@std@@QAE@XZ 0041ec10 f i ConfirmButton.obj
 0001:0001dc30       ??1?$pair@V?$basic_string@DU?$char_traits@D@std@@V?$allocator@D@2@@std@@V?$shared_ptr@VRawImageData@@@2@@std@@QAE@XZ 0041ec30 f i ConfirmButton.obj
 0001:0001dc60       ??1?$pair@V?$basic_string@DU?$char_traits@D@std@@V?$allocator@D@2@@std@@V?$weak_ptr@VRawImageData@@@2@@std@@QAE@XZ 0041ec60 f i ConfirmButton.obj
 0001:0001dc90       ??1?$pair@W4ButtonState@@V?$shared_ptr@VAnimation@@@std@@@std@@QAE@XZ 0041ec90 f i ConfirmButton.obj
 0001:0001dcb0       ??1?$shared_ptr@VAnimation@@@std@@QAE@XZ 0041ecb0 f i ConfirmButton.obj
 0001:0001dcd0       ??1?$vector@VSimpleImage@@V?$allocator@VSimpleImage@@@std@@@std@@QAE@XZ 0041ecd0 f i ConfirmButton.obj
 0001:0001dd40       ??1?$weak_ptr@VRawImageData@@@std@@QAE@XZ 0041ed40 f i ConfirmButton.obj
 0001:0001dd60       ??1Animation@@QAE@XZ       0041ed60 f i ConfirmButton.obj
 0001:0001dd80       ??1BaseButton@@UAE@XZ      0041ed80 f i ConfirmButton.obj
 0001:0001dde0       ??1GameObject@@UAE@XZ      0041ede0 f i ConfirmButton.obj
 0001:0001de50       ??1ImageMappingGeneralist@@UAE@XZ 0041ee50 f i ConfirmButton.obj
 0001:0001de70       ??1RawImageData@@QAE@XZ    0041ee70 f i ConfirmButton.obj
 0001:0001ded0       ??1_Bxty@?$_String_val@U?$_Simple_types@D@std@@@std@@QAE@XZ 0041eed0 f i ConfirmButton.obj
 0001:0001dee0       ??1_Ref_count_base@std@@UAE@XZ 0041eee0 f i ConfirmButton.obj
 0001:0001def0       ??1_Sentry_base@?$basic_ostream@DU?$char_traits@D@std@@@std@@QAE@XZ 0041eef0 f i ConfirmButton.obj
 0001:0001df80       ??1sentry@?$basic_ostream@DU?$char_traits@D@std@@@std@@QAE@XZ 0041ef80 f i ConfirmButton.obj
 0001:0001e010       ??4?$shared_ptr@VAnimation@@@std@@QAEAAV01@ABV01@@Z 0041f010 f i ConfirmButton.obj
 0001:0001e050       ??4?$shared_ptr@VRawImageData@@@std@@QAEAAV01@ABV01@@Z 0041f050 f i ConfirmButton.obj
 0001:0001e090       ??4SimpleImage@@QAEAAV0@ABV0@@Z 0041f090 f i ConfirmButton.obj
 0001:0001e0e0       ??8?$_Tree_const_iterator@V?$_Tree_val@U?$_Tree_simple_types@U?$pair@$$CBV?$basic_string@DU?$char_traits@D@std@@V?$allocator@D@2@@std@@V?$weak_ptr@VRawImageData@@@2@@std@@@std@@@std@@@std@@QBE_NABV01@@Z 0041f0e0 f i ConfirmButton.obj
 0001:0001e1a0       ??8?$_Tree_const_iterator@V?$_Tree_val@U?$_Tree_simple_types@U?$pair@$$CBW4ButtonState@@V?$shared_ptr@VAnimation@@@std@@@std@@@std@@@std@@@std@@QBE_NABV01@@Z 0041f1a0 f i ConfirmButton.obj
 0001:0001e260       ??9?$_Tree_const_iterator@V?$_Tree_val@U?$_Tree_simple_types@U?$pair@$$CBV?$basic_string@DU?$char_traits@D@std@@V?$allocator@D@2@@std@@V?$weak_ptr@VRawImageData@@@2@@std@@@std@@@std@@@std@@QBE_NABV01@@Z 0041f260 f i ConfirmButton.obj
 0001:0001e2b0       ??9?$_Tree_const_iterator@V?$_Tree_val@U?$_Tree_simple_types@U?$pair@$$CBW4ButtonState@@V?$shared_ptr@VAnimation@@@std@@@std@@@std@@@std@@@std@@QBE_NABV01@@Z 0041f2b0 f i ConfirmButton.obj
 0001:0001e300       ??Bsentry@?$basic_ostream@DU?$char_traits@D@std@@@std@@QBE_NXZ 0041f300 f i ConfirmButton.obj
 0001:0001e320       ??C?$_Tree_iterator@V?$_Tree_val@U?$_Tree_simple_types@U?$pair@$$CBV?$basic_string@DU?$char_traits@D@std@@V?$allocator@D@2@@std@@V?$weak_ptr@VRawImageData@@@2@@std@@@std@@@std@@@std@@QBEPAU?$pair@$$CBV?$basic_string@DU?$char_traits@D@std@@V?$allocator@D@2@@std@@V?$weak_ptr@VRawImageData@@@2@@1@XZ 0041f320 f i ConfirmButton.obj
 0001:0001e350       ??C?$_Tree_iterator@V?$_Tree_val@U?$_Tree_simple_types@U?$pair@$$CBW4ButtonState@@V?$shared_ptr@VAnimation@@@std@@@std@@@std@@@std@@@std@@QBEPAU?$pair@$$CBW4ButtonState@@V?$shared_ptr@VAnimation@@@std@@@1@XZ 0041f350 f i ConfirmButton.obj
 0001:0001e380       ??D?$_Tree_const_iterator@V?$_Tree_val@U?$_Tree_simple_types@U?$pair@$$CBV?$basic_string@DU?$char_traits@D@std@@V?$allocator@D@2@@std@@V?$weak_ptr@VRawImageData@@@2@@std@@@std@@@std@@@std@@QBEABU?$pair@$$CBV?$basic_string@DU?$char_traits@D@std@@V?$allocator@D@2@@std@@V?$weak_ptr@VRawImageData@@@2@@1@XZ 0041f380 f i ConfirmButton.obj
 0001:0001e490       ??D?$_Tree_const_iterator@V?$_Tree_val@U?$_Tree_simple_types@U?$pair@$$CBW4ButtonState@@V?$shared_ptr@VAnimation@@@std@@@std@@@std@@@std@@@std@@QBEABU?$pair@$$CBW4ButtonState@@V?$shared_ptr@VAnimation@@@std@@@1@XZ 0041f490 f i ConfirmButton.obj
 0001:0001e5a0       ??D?$_Tree_iterator@V?$_Tree_val@U?$_Tree_simple_types@U?$pair@$$CBV?$basic_string@DU?$char_traits@D@std@@V?$allocator@D@2@@std@@V?$weak_ptr@VRawImageData@@@2@@std@@@std@@@std@@@std@@QBEAAU?$pair@$$CBV?$basic_string@DU?$char_traits@D@std@@V?$allocator@D@2@@std@@V?$weak_ptr@VRawImageData@@@2@@1@XZ 0041f5a0 f i ConfirmButton.obj
 0001:0001e5c0       ??D?$_Tree_iterator@V?$_Tree_val@U?$_Tree_simple_types@U?$pair@$$CBW4ButtonState@@V?$shared_ptr@VAnimation@@@std@@@std@@@std@@@std@@@std@@QBEAAU?$pair@$$CBW4ButtonState@@V?$shared_ptr@VAnimation@@@std@@@1@XZ 0041f5c0 f i ConfirmButton.obj
 0001:0001e5e0       ??E?$_Tree_unchecked_const_iterator@V?$_Tree_val@U?$_Tree_simple_types@U?$pair@$$CBV?$basic_string@DU?$char_traits@D@std@@V?$allocator@D@2@@std@@V?$weak_ptr@VRawImageData@@@2@@std@@@std@@@std@@U_Iterator_base0@2@@std@@QAEAAV01@XZ 0041f5e0 f i ConfirmButton.obj
 0001:0001e670       ??R<lambda_9366063389c5f42a00a5088cf24e69de>@@QBE@QADIQBD@Z 0041f670 f i ConfirmButton.obj
 0001:0001e6c0       ??R?$less@V?$basic_string@DU?$char_traits@D@std@@V?$allocator@D@2@@std@@@std@@QBE_NABV?$basic_string@DU?$char_traits@D@std@@V?$allocator@D@2@@1@0@Z 0041f6c0 f i ConfirmButton.obj
 0001:0001e6f0       ??R?$less@W4ButtonState@@@std@@QBE_NABW4ButtonState@@0@Z 0041f6f0 f i ConfirmButton.obj
 0001:0001e730       ??_G?$Animator@W4ButtonState@@X@@QAEPAXI@Z 0041f730 f i ConfirmButton.obj
 0001:0001e770       ??_G?$_Ref_count@VRawImageData@@@std@@UAEPAXI@Z 0041f770 f i ConfirmButton.obj
 0001:0001e770       ??_E?$_Ref_count@VRawImageData@@@std@@UAEPAXI@Z 0041f770 f i ConfirmButton.obj
 0001:0001e7b0       ??_E?$_Ref_count_obj2@VAnimation@@@std@@UAEPAXI@Z 0041f7b0 f i ConfirmButton.obj
 0001:0001e7b0       ??_G?$_Ref_count_obj2@VAnimation@@@std@@UAEPAXI@Z 0041f7b0 f i ConfirmButton.obj
 0001:0001e7f0       ??_G?$pair@$$CBV?$basic_string@DU?$char_traits@D@std@@V?$allocator@D@2@@std@@V?$shared_ptr@VRawImageData@@@2@@std@@QAEPAXI@Z 0041f7f0 f i ConfirmButton.obj
 0001:0001e830       ??_G?$pair@$$CBV?$basic_string@DU?$char_traits@D@std@@V?$allocator@D@2@@std@@V?$weak_ptr@VRawImageData@@@2@@std@@QAEPAXI@Z 0041f830 f i ConfirmButton.obj
 0001:0001e870       ??_G?$pair@$$CBW4ButtonState@@V?$shared_ptr@VAnimation@@@std@@@std@@QAEPAXI@Z 0041f870 f i ConfirmButton.obj
 0001:0001e8b0       ??_GAnimation@@QAEPAXI@Z   0041f8b0 f i ConfirmButton.obj
 0001:0001e8f0       ??_EBaseButton@@UAEPAXI@Z  0041f8f0 f i ConfirmButton.obj
 0001:0001e8f0       ??_GBaseButton@@UAEPAXI@Z  0041f8f0 f i ConfirmButton.obj
 0001:0001e930       ??_GConfirmButton@@UAEPAXI@Z 0041f930 f i ConfirmButton.obj
 0001:0001e930       ??_EConfirmButton@@UAEPAXI@Z 0041f930 f i ConfirmButton.obj
 0001:0001e970       ??_GGameObject@@UAEPAXI@Z  0041f970 f i ConfirmButton.obj
 0001:0001e970       ??_EGameObject@@UAEPAXI@Z  0041f970 f i ConfirmButton.obj
 0001:0001e9b0       ??_GImageMappingGeneralist@@UAEPAXI@Z 0041f9b0 f i ConfirmButton.obj
 0001:0001e9b0       ??_EImageMappingGeneralist@@UAEPAXI@Z 0041f9b0 f i ConfirmButton.obj
 0001:0001e9f0       ??_GRawImageData@@QAEPAXI@Z 0041f9f0 f i ConfirmButton.obj
 0001:0001ea30       ?_Alloc_sentinel_and_proxy@?$_Tree@V?$_Tmap_traits@V?$basic_string@DU?$char_traits@D@std@@V?$allocator@D@2@@std@@V?$shared_ptr@VRawImageData@@@2@U?$less@V?$basic_string@DU?$char_traits@D@std@@V?$allocator@D@2@@std@@@2@V?$allocator@U?$pair@$$CBV?$basic_string@DU?$char_traits@D@std@@V?$allocator@D@2@@std@@V?$shared_ptr@VRawImageData@@@2@@std@@@2@$0A@@std@@@std@@IAEXXZ 0041fa30 f i ConfirmButton.obj
 0001:0001eb00       ?_Alloc_sentinel_and_proxy@?$_Tree@V?$_Tmap_traits@V?$basic_string@DU?$char_traits@D@std@@V?$allocator@D@2@@std@@V?$weak_ptr@VRawImageData@@@2@U?$less@V?$basic_string@DU?$char_traits@D@std@@V?$allocator@D@2@@std@@@2@V?$allocator@U?$pair@$$CBV?$basic_string@DU?$char_traits@D@std@@V?$allocator@D@2@@std@@V?$weak_ptr@VRawImageData@@@2@@std@@@2@$0A@@std@@@std@@IAEXXZ 0041fb00 f i ConfirmButton.obj
 0001:0001ebd0       ?_Alloc_sentinel_and_proxy@?$_Tree@V?$_Tmap_traits@W4ButtonState@@V?$shared_ptr@VAnimation@@@std@@U?$less@W4ButtonState@@@3@V?$allocator@U?$pair@$$CBW4ButtonState@@V?$shared_ptr@VAnimation@@@std@@@std@@@3@$0A@@std@@@std@@IAEXXZ 0041fbd0 f i ConfirmButton.obj
 0001:0001eca0       ?_Allocate@?$_Alloc_construct_ptr@V?$allocator@U?$_Tree_node@U?$pair@$$CBV?$basic_string@DU?$char_traits@D@std@@V?$allocator@D@2@@std@@V?$shared_ptr@VRawImageData@@@2@@std@@PAX@std@@@std@@@std@@QAEXXZ 0041fca0 f i ConfirmButton.obj
 0001:0001ecd0       ?_Allocate@?$_Alloc_construct_ptr@V?$allocator@U?$_Tree_node@U?$pair@$$CBV?$basic_string@DU?$char_traits@D@std@@V?$allocator@D@2@@std@@V?$weak_ptr@VRawImageData@@@2@@std@@PAX@std@@@std@@@std@@QAEXXZ 0041fcd0 f i ConfirmButton.obj
 0001:0001ed00       ?_Allocate@?$_Alloc_construct_ptr@V?$allocator@U?$_Tree_node@U?$pair@$$CBW4ButtonState@@V?$shared_ptr@VAnimation@@@std@@@std@@PAX@std@@@std@@@std@@QAEXXZ 0041fd00 f i ConfirmButton.obj
 0001:0001ed30       ?_Calculate_growth@?$basic_string@DU?$char_traits@D@std@@V?$allocator@D@2@@std@@ABEII@Z 0041fd30 f i ConfirmButton.obj
 0001:0001ed70       ?_Calculate_growth@?$basic_string@DU?$char_traits@D@std@@V?$allocator@D@2@@std@@CAIIII@Z 0041fd70 f i ConfirmButton.obj
 0001:0001ede0       ?_Check_grow_by_1@?$_Tree@V?$_Tmap_traits@V?$basic_string@DU?$char_traits@D@std@@V?$allocator@D@2@@std@@V?$shared_ptr@VRawImageData@@@2@U?$less@V?$basic_string@DU?$char_traits@D@std@@V?$allocator@D@2@@std@@@2@V?$allocator@U?$pair@$$CBV?$basic_string@DU?$char_traits@D@std@@V?$allocator@D@2@@std@@V?$shared_ptr@VRawImageData@@@2@@std@@@2@$0A@@std@@@std@@IAEXXZ 0041fde0 f i ConfirmButton.obj
 0001:0001ee20       ?_Check_grow_by_1@?$_Tree@V?$_Tmap_traits@V?$basic_string@DU?$char_traits@D@std@@V?$allocator@D@2@@std@@V?$weak_ptr@VRawImageData@@@2@U?$less@V?$basic_string@DU?$char_traits@D@std@@V?$allocator@D@2@@std@@@2@V?$allocator@U?$pair@$$CBV?$basic_string@DU?$char_traits@D@std@@V?$allocator@D@2@@std@@V?$weak_ptr@VRawImageData@@@2@@std@@@2@$0A@@std@@@std@@IAEXXZ 0041fe20 f i ConfirmButton.obj
 0001:0001ee60       ?_Check_grow_by_1@?$_Tree@V?$_Tmap_traits@W4ButtonState@@V?$shared_ptr@VAnimation@@@std@@U?$less@W4ButtonState@@@3@V?$allocator@U?$pair@$$CBW4ButtonState@@V?$shared_ptr@VAnimation@@@std@@@std@@@3@$0A@@std@@@std@@IAEXXZ 0041fe60 f i ConfirmButton.obj
 0001:0001eea0       ?_Construct_lv_contents@?$basic_string@DU?$char_traits@D@std@@V?$allocator@D@2@@std@@AAEXABV12@@Z 0041fea0 f i ConfirmButton.obj
 0001:0001efd0       ?_Decref@?$_Ptr_base@VAnimation@@@std@@IAEXXZ 0041ffd0 f i ConfirmButton.obj
 0001:0001f000       ?_Decwref@?$_Ptr_base@VRawImageData@@@std@@IAEXXZ 00420000 f i ConfirmButton.obj
 0001:0001f030       ?_Delete_this@?$_Ref_count@VRawImageData@@@std@@EAEXXZ 00420030 f i ConfirmButton.obj
 0001:0001f080       ?_Delete_this@?$_Ref_count_obj2@VAnimation@@@std@@EAEXXZ 00420080 f i ConfirmButton.obj
 0001:0001f0d0       ?_Destroy@?$_Ref_count@VRawImageData@@@std@@EAEXXZ 004200d0 f i ConfirmButton.obj
 0001:0001f110       ?_Destroy@?$_Ref_count_obj2@VAnimation@@@std@@EAEXXZ 00420110 f i ConfirmButton.obj
 0001:0001f130       ?_Equal@?$basic_string@DU?$char_traits@D@std@@V?$allocator@D@2@@std@@QBE_NQBD@Z 00420130 f i ConfirmButton.obj
 0001:0001f180       ?_Erase_unchecked@?$_Tree@V?$_Tmap_traits@V?$basic_string@DU?$char_traits@D@std@@V?$allocator@D@2@@std@@V?$weak_ptr@VRawImageData@@@2@U?$less@V?$basic_string@DU?$char_traits@D@std@@V?$allocator@D@2@@std@@@2@V?$allocator@U?$pair@$$CBV?$basic_string@DU?$char_traits@D@std@@V?$allocator@D@2@@std@@V?$weak_ptr@VRawImageData@@@2@@std@@@2@$0A@@std@@@std@@AAEPAU?$_Tree_node@U?$pair@$$CBV?$basic_string@DU?$char_traits@D@std@@V?$allocator@D@2@@std@@V?$weak_ptr@VRawImageData@@@2@@std@@PAX@2@V?$_Tree_unchecked_const_iterator@V?$_Tree_val@U?$_Tree_simple_types@U?$pair@$$CBV?$basic_string@DU?$char_traits@D@std@@V?$allocator@D@2@@std@@V?$weak_ptr@VRawImageData@@@2@@std@@@std@@@std@@U_Iterator_base0@2@@2@@Z 00420180 f i ConfirmButton.obj
 0001:0001f230       ?_Extract@?$_In_place_key_extract_map@V?$basic_string@DU?$char_traits@D@std@@V?$allocator@D@2@@std@@U?$pair@V?$basic_string@DU?$char_traits@D@std@@V?$allocator@D@2@@std@@V?$shared_ptr@VRawImageData@@@2@@2@@std@@SAABV?$basic_string@DU?$char_traits@D@std@@V?$allocator@D@2@@2@ABU?$pair@V?$basic_string@DU?$char_traits@D@std@@V?$allocator@D@2@@std@@V?$shared_ptr@VRawImageData@@@2@@2@@Z 00420230 f i ConfirmButton.obj
 0001:0001f240       ?_Extract@?$_In_place_key_extract_map@V?$basic_string@DU?$char_traits@D@std@@V?$allocator@D@2@@std@@U?$pair@V?$basic_string@DU?$char_traits@D@std@@V?$allocator@D@2@@std@@V?$weak_ptr@VRawImageData@@@2@@2@@std@@SAABV?$basic_string@DU?$char_traits@D@std@@V?$allocator@D@2@@2@ABU?$pair@V?$basic_string@DU?$char_traits@D@std@@V?$allocator@D@2@@std@@V?$weak_ptr@VRawImageData@@@2@@2@@Z 00420240 f i ConfirmButton.obj
 0001:0001f250       ?_Extract@?$_In_place_key_extract_map@W4ButtonState@@U?$pair@W4ButtonState@@V?$shared_ptr@VAnimation@@@std@@@std@@@std@@SAABW4ButtonState@@ABU?$pair@W4ButtonState@@V?$shared_ptr@VAnimation@@@std@@@2@@Z 00420250 f i ConfirmButton.obj
 0001:0001f260       ?_Extract@?$_Tree_val@U?$_Tree_simple_types@U?$pair@$$CBV?$basic_string@DU?$char_traits@D@std@@V?$allocator@D@2@@std@@V?$weak_ptr@VRawImageData@@@2@@std@@@std@@@std@@QAEPAU?$_Tree_node@U?$pair@$$CBV?$basic_string@DU?$char_traits@D@std@@V?$allocator@D@2@@std@@V?$weak_ptr@VRawImageData@@@2@@std@@PAX@2@V?$_Tree_unchecked_const_iterator@V?$_Tree_val@U?$_Tree_simple_types@U?$pair@$$CBV?$basic_string@DU?$char_traits@D@std@@V?$allocator@D@2@@std@@V?$weak_ptr@VRawImageData@@@2@@std@@@std@@@std@@U_Iterator_base0@2@@2@@Z 00420260 f i ConfirmButton.obj
 0001:0001f7e0       ?_Get_deleter@_Ref_count_base@std@@UBEPAXABVtype_info@@@Z 004207e0 f i ConfirmButton.obj
 0001:0001f800       ?_Get_first@?$_Compressed_pair@U?$less@V?$basic_string@DU?$char_traits@D@std@@V?$allocator@D@2@@std@@@std@@V?$_Compressed_pair@V?$allocator@U?$_Tree_node@U?$pair@$$CBV?$basic_string@DU?$char_traits@D@std@@V?$allocator@D@2@@std@@V?$shared_ptr@VRawImageData@@@2@@std@@PAX@std@@@std@@V?$_Tree_val@U?$_Tree_simple_types@U?$pair@$$CBV?$basic_string@DU?$char_traits@D@std@@V?$allocator@D@2@@std@@V?$shared_ptr@VRawImageData@@@2@@std@@@std@@@2@$00@2@$00@std@@QBEABU?$less@V?$basic_string@DU?$char_traits@D@std@@V?$allocator@D@2@@std@@@2@XZ 00420800 f i ConfirmButton.obj
 0001:0001f820       ?_Get_first@?$_Compressed_pair@U?$less@V?$basic_string@DU?$char_traits@D@std@@V?$allocator@D@2@@std@@@std@@V?$_Compressed_pair@V?$allocator@U?$_Tree_node@U?$pair@$$CBV?$basic_string@DU?$char_traits@D@std@@V?$allocator@D@2@@std@@V?$weak_ptr@VRawImageData@@@2@@std@@PAX@std@@@std@@V?$_Tree_val@U?$_Tree_simple_types@U?$pair@$$CBV?$basic_string@DU?$char_traits@D@std@@V?$allocator@D@2@@std@@V?$weak_ptr@VRawImageData@@@2@@std@@@std@@@2@$00@2@$00@std@@QBEABU?$less@V?$basic_string@DU?$char_traits@D@std@@V?$allocator@D@2@@std@@@2@XZ 00420820 f i ConfirmButton.obj
 0001:0001f840       ?_Get_first@?$_Compressed_pair@U?$less@W4ButtonState@@@std@@V?$_Compressed_pair@V?$allocator@U?$_Tree_node@U?$pair@$$CBW4ButtonState@@V?$shared_ptr@VAnimation@@@std@@@std@@PAX@std@@@std@@V?$_Tree_val@U?$_Tree_simple_types@U?$pair@$$CBW4ButtonState@@V?$shared_ptr@VAnimation@@@std@@@std@@@std@@@2@$00@2@$00@std@@QBEABU?$less@W4ButtonState@@@2@XZ 00420840 f i ConfirmButton.obj
 0001:0001f860       ?_Get_first@?$_Compressed_pair@V?$allocator@D@std@@V?$_String_val@U?$_Simple_types@D@std@@@2@$00@std@@QAEAAV?$allocator@D@2@XZ 00420860 f i ConfirmButton.obj
 0001:0001f880       ?_Get_first@?$_Compressed_pair@V?$allocator@D@std@@V?$_String_val@U?$_Simple_types@D@std@@@2@$00@std@@QBEABV?$allocator@D@2@XZ 00420880 f i ConfirmButton.obj
 0001:0001f8a0       ?_Get_first@?$_Compressed_pair@V?$allocator@U?$_Tree_node@U?$pair@$$CBV?$basic_string@DU?$char_traits@D@std@@V?$allocator@D@2@@std@@V?$shared_ptr@VRawImageData@@@2@@std@@PAX@std@@@std@@V?$_Tree_val@U?$_Tree_simple_types@U?$pair@$$CBV?$basic_string@DU?$char_traits@D@std@@V?$allocator@D@2@@std@@V?$shared_ptr@VRawImageData@@@2@@std@@@std@@@2@$00@std@@QAEAAV?$allocator@U?$_Tree_node@U?$pair@$$CBV?$basic_string@DU?$char_traits@D@std@@V?$allocator@D@2@@std@@V?$shared_ptr@VRawImageData@@@2@@std@@PAX@std@@@2@XZ 004208a0 f i ConfirmButton.obj
 0001:0001f8c0       ?_Get_first@?$_Compressed_pair@V?$allocator@U?$_Tree_node@U?$pair@$$CBV?$basic_string@DU?$char_traits@D@std@@V?$allocator@D@2@@std@@V?$shared_ptr@VRawImageData@@@2@@std@@PAX@std@@@std@@V?$_Tree_val@U?$_Tree_simple_types@U?$pair@$$CBV?$basic_string@DU?$char_traits@D@std@@V?$allocator@D@2@@std@@V?$shared_ptr@VRawImageData@@@2@@std@@@std@@@2@$00@std@@QBEABV?$allocator@U?$_Tree_node@U?$pair@$$CBV?$basic_string@DU?$char_traits@D@std@@V?$allocator@D@2@@std@@V?$shared_ptr@VRawImageData@@@2@@std@@PAX@std@@@2@XZ 004208c0 f i ConfirmButton.obj
 0001:0001f8e0       ?_Get_first@?$_Compressed_pair@V?$allocator@U?$_Tree_node@U?$pair@$$CBV?$basic_string@DU?$char_traits@D@std@@V?$allocator@D@2@@std@@V?$weak_ptr@VRawImageData@@@2@@std@@PAX@std@@@std@@V?$_Tree_val@U?$_Tree_simple_types@U?$pair@$$CBV?$basic_string@DU?$char_traits@D@std@@V?$allocator@D@2@@std@@V?$weak_ptr@VRawImageData@@@2@@std@@@std@@@2@$00@std@@QAEAAV?$allocator@U?$_Tree_node@U?$pair@$$CBV?$basic_string@DU?$char_traits@D@std@@V?$allocator@D@2@@std@@V?$weak_ptr@VRawImageData@@@2@@std@@PAX@std@@@2@XZ 004208e0 f i ConfirmButton.obj
 0001:0001f900       ?_Get_first@?$_Compressed_pair@V?$allocator@U?$_Tree_node@U?$pair@$$CBV?$basic_string@DU?$char_traits@D@std@@V?$allocator@D@2@@std@@V?$weak_ptr@VRawImageData@@@2@@std@@PAX@std@@@std@@V?$_Tree_val@U?$_Tree_simple_types@U?$pair@$$CBV?$basic_string@DU?$char_traits@D@std@@V?$allocator@D@2@@std@@V?$weak_ptr@VRawImageData@@@2@@std@@@std@@@2@$00@std@@QBEABV?$allocator@U?$_Tree_node@U?$pair@$$CBV?$basic_string@DU?$char_traits@D@std@@V?$allocator@D@2@@std@@V?$weak_ptr@VRawImageData@@@2@@std@@PAX@std@@@2@XZ 00420900 f i ConfirmButton.obj
 0001:0001f920       ?_Get_first@?$_Compressed_pair@V?$allocator@U?$_Tree_node@U?$pair@$$CBW4ButtonState@@V?$shared_ptr@VAnimation@@@std@@@std@@PAX@std@@@std@@V?$_Tree_val@U?$_Tree_simple_types@U?$pair@$$CBW4ButtonState@@V?$shared_ptr@VAnimation@@@std@@@std@@@std@@@2@$00@std@@QAEAAV?$allocator@U?$_Tree_node@U?$pair@$$CBW4ButtonState@@V?$shared_ptr@VAnimation@@@std@@@std@@PAX@std@@@2@XZ 00420920 f i ConfirmButton.obj
 0001:0001f940       ?_Get_first@?$_Compressed_pair@V?$allocator@U?$_Tree_node@U?$pair@$$CBW4ButtonState@@V?$shared_ptr@VAnimation@@@std@@@std@@PAX@std@@@std@@V?$_Tree_val@U?$_Tree_simple_types@U?$pair@$$CBW4ButtonState@@V?$shared_ptr@VAnimation@@@std@@@std@@@std@@@2@$00@std@@QBEABV?$allocator@U?$_Tree_node@U?$pair@$$CBW4ButtonState@@V?$shared_ptr@VAnimation@@@std@@@std@@PAX@std@@@2@XZ 00420940 f i ConfirmButton.obj
 0001:0001f960       ?_Get_scary@?$_Tree@V?$_Tmap_traits@V?$basic_string@DU?$char_traits@D@std@@V?$allocator@D@2@@std@@V?$shared_ptr@VRawImageData@@@2@U?$less@V?$basic_string@DU?$char_traits@D@std@@V?$allocator@D@2@@std@@@2@V?$allocator@U?$pair@$$CBV?$basic_string@DU?$char_traits@D@std@@V?$allocator@D@2@@std@@V?$shared_ptr@VRawImageData@@@2@@std@@@2@$0A@@std@@@std@@IAEPAV?$_Tree_val@U?$_Tree_simple_types@U?$pair@$$CBV?$basic_string@DU?$char_traits@D@std@@V?$allocator@D@2@@std@@V?$shared_ptr@VRawImageData@@@2@@std@@@std@@@2@XZ 00420960 f i ConfirmButton.obj
 0001:0001f980       ?_Get_scary@?$_Tree@V?$_Tmap_traits@V?$basic_string@DU?$char_traits@D@std@@V?$allocator@D@2@@std@@V?$shared_ptr@VRawImageData@@@2@U?$less@V?$basic_string@DU?$char_traits@D@std@@V?$allocator@D@2@@std@@@2@V?$allocator@U?$pair@$$CBV?$basic_string@DU?$char_traits@D@std@@V?$allocator@D@2@@std@@V?$shared_ptr@VRawImageData@@@2@@std@@@2@$0A@@std@@@std@@IBEPBV?$_Tree_val@U?$_Tree_simple_types@U?$pair@$$CBV?$basic_string@DU?$char_traits@D@std@@V?$allocator@D@2@@std@@V?$shared_ptr@VRawImageData@@@2@@std@@@std@@@2@XZ 00420980 f i ConfirmButton.obj
 0001:0001f9a0       ?_Get_scary@?$_Tree@V?$_Tmap_traits@V?$basic_string@DU?$char_traits@D@std@@V?$allocator@D@2@@std@@V?$weak_ptr@VRawImageData@@@2@U?$less@V?$basic_string@DU?$char_traits@D@std@@V?$allocator@D@2@@std@@@2@V?$allocator@U?$pair@$$CBV?$basic_string@DU?$char_traits@D@std@@V?$allocator@D@2@@std@@V?$weak_ptr@VRawImageData@@@2@@std@@@2@$0A@@std@@@std@@IAEPAV?$_Tree_val@U?$_Tree_simple_types@U?$pair@$$CBV?$basic_string@DU?$char_traits@D@std@@V?$allocator@D@2@@std@@V?$weak_ptr@VRawImageData@@@2@@std@@@std@@@2@XZ 004209a0 f i ConfirmButton.obj
 0001:0001f9c0       ?_Get_scary@?$_Tree@V?$_Tmap_traits@V?$basic_string@DU?$char_traits@D@std@@V?$allocator@D@2@@std@@V?$weak_ptr@VRawImageData@@@2@U?$less@V?$basic_string@DU?$char_traits@D@std@@V?$allocator@D@2@@std@@@2@V?$allocator@U?$pair@$$CBV?$basic_string@DU?$char_traits@D@std@@V?$allocator@D@2@@std@@V?$weak_ptr@VRawImageData@@@2@@std@@@2@$0A@@std@@@std@@IBEPBV?$_Tree_val@U?$_Tree_simple_types@U?$pair@$$CBV?$basic_string@DU?$char_traits@D@std@@V?$allocator@D@2@@std@@V?$weak_ptr@VRawImageData@@@2@@std@@@std@@@2@XZ 004209c0 f i ConfirmButton.obj
 0001:0001f9e0       ?_Get_scary@?$_Tree@V?$_Tmap_traits@W4ButtonState@@V?$shared_ptr@VAnimation@@@std@@U?$less@W4ButtonState@@@3@V?$allocator@U?$pair@$$CBW4ButtonState@@V?$shared_ptr@VAnimation@@@std@@@std@@@3@$0A@@std@@@std@@IAEPAV?$_Tree_val@U?$_Tree_simple_types@U?$pair@$$CBW4ButtonState@@V?$shared_ptr@VAnimation@@@std@@@std@@@std@@@2@XZ 004209e0 f i ConfirmButton.obj
 0001:0001fa00       ?_Get_scary@?$_Tree@V?$_Tmap_traits@W4ButtonState@@V?$shared_ptr@VAnimation@@@std@@U?$less@W4ButtonState@@@3@V?$allocator@U?$pair@$$CBW4ButtonState@@V?$shared_ptr@VAnimation@@@std@@@std@@@3@$0A@@std@@@std@@IBEPBV?$_Tree_val@U?$_Tree_simple_types@U?$pair@$$CBW4ButtonState@@V?$shared_ptr@VAnimation@@@std@@@std@@@std@@@2@XZ 00420a00 f i ConfirmButton.obj
 0001:0001fa20       ?_Getal@?$_Tree@V?$_Tmap_traits@V?$basic_string@DU?$char_traits@D@std@@V?$allocator@D@2@@std@@V?$shared_ptr@VRawImageData@@@2@U?$less@V?$basic_string@DU?$char_traits@D@std@@V?$allocator@D@2@@std@@@2@V?$allocator@U?$pair@$$CBV?$basic_string@DU?$char_traits@D@std@@V?$allocator@D@2@@std@@V?$shared_ptr@VRawImageData@@@2@@std@@@2@$0A@@std@@@std@@IAEAAV?$allocator@U?$_Tree_node@U?$pair@$$CBV?$basic_string@DU?$char_traits@D@std@@V?$allocator@D@2@@std@@V?$shared_ptr@VRawImageData@@@2@@std@@PAX@std@@@2@XZ 00420a20 f i ConfirmButton.obj
 0001:0001fa40       ?_Getal@?$_Tree@V?$_Tmap_traits@V?$basic_string@DU?$char_traits@D@std@@V?$allocator@D@2@@std@@V?$shared_ptr@VRawImageData@@@2@U?$less@V?$basic_string@DU?$char_traits@D@std@@V?$allocator@D@2@@std@@@2@V?$allocator@U?$pair@$$CBV?$basic_string@DU?$char_traits@D@std@@V?$allocator@D@2@@std@@V?$shared_ptr@VRawImageData@@@2@@std@@@2@$0A@@std@@@std@@IBEABV?$allocator@U?$_Tree_node@U?$pair@$$CBV?$basic_string@DU?$char_traits@D@std@@V?$allocator@D@2@@std@@V?$shared_ptr@VRawImageData@@@2@@std@@PAX@std@@@2@XZ 00420a40 f i ConfirmButton.obj
 0001:0001fa60       ?_Getal@?$_Tree@V?$_Tmap_traits@V?$basic_string@DU?$char_traits@D@std@@V?$allocator@D@2@@std@@V?$weak_ptr@VRawImageData@@@2@U?$less@V?$basic_string@DU?$char_traits@D@std@@V?$allocator@D@2@@std@@@2@V?$allocator@U?$pair@$$CBV?$basic_string@DU?$char_traits@D@std@@V?$allocator@D@2@@std@@V?$weak_ptr@VRawImageData@@@2@@std@@@2@$0A@@std@@@std@@IAEAAV?$allocator@U?$_Tree_node@U?$pair@$$CBV?$basic_string@DU?$char_traits@D@std@@V?$allocator@D@2@@std@@V?$weak_ptr@VRawImageData@@@2@@std@@PAX@std@@@2@XZ 00420a60 f i ConfirmButton.obj
 0001:0001fa80       ?_Getal@?$_Tree@V?$_Tmap_traits@V?$basic_string@DU?$char_traits@D@std@@V?$allocator@D@2@@std@@V?$weak_ptr@VRawImageData@@@2@U?$less@V?$basic_string@DU?$char_traits@D@std@@V?$allocator@D@2@@std@@@2@V?$allocator@U?$pair@$$CBV?$basic_string@DU?$char_traits@D@std@@V?$allocator@D@2@@std@@V?$weak_ptr@VRawImageData@@@2@@std@@@2@$0A@@std@@@std@@IBEABV?$allocator@U?$_Tree_node@U?$pair@$$CBV?$basic_string@DU?$char_traits@D@std@@V?$allocator@D@2@@std@@V?$weak_ptr@VRawImageData@@@2@@std@@PAX@std@@@2@XZ 00420a80 f i ConfirmButton.obj
 0001:0001faa0       ?_Getal@?$_Tree@V?$_Tmap_traits@W4ButtonState@@V?$shared_ptr@VAnimation@@@std@@U?$less@W4ButtonState@@@3@V?$allocator@U?$pair@$$CBW4ButtonState@@V?$shared_ptr@VAnimation@@@std@@@std@@@3@$0A@@std@@@std@@IAEAAV?$allocator@U?$_Tree_node@U?$pair@$$CBW4ButtonState@@V?$shared_ptr@VAnimation@@@std@@@std@@PAX@std@@@2@XZ 00420aa0 f i ConfirmButton.obj
 0001:0001fac0       ?_Getal@?$_Tree@V?$_Tmap_traits@W4ButtonState@@V?$shared_ptr@VAnimation@@@std@@U?$less@W4ButtonState@@@3@V?$allocator@U?$pair@$$CBW4ButtonState@@V?$shared_ptr@VAnimation@@@std@@@std@@@3@$0A@@std@@@std@@IBEABV?$allocator@U?$_Tree_node@U?$pair@$$CBW4ButtonState@@V?$shared_ptr@VAnimation@@@std@@@std@@PAX@std@@@2@XZ 00420ac0 f i ConfirmButton.obj
 0001:0001fae0       ?_Getal@?$basic_string@DU?$char_traits@D@std@@V?$allocator@D@2@@std@@AAEAAV?$allocator@D@2@XZ 00420ae0 f i ConfirmButton.obj
 0001:0001fb00       ?_Getal@?$basic_string@DU?$char_traits@D@std@@V?$allocator@D@2@@std@@ABEABV?$allocator@D@2@XZ 00420b00 f i ConfirmButton.obj
 0001:0001fb20       ?_Getcomp@?$_Tree@V?$_Tmap_traits@V?$basic_string@DU?$char_traits@D@std@@V?$allocator@D@2@@std@@V?$shared_ptr@VRawImageData@@@2@U?$less@V?$basic_string@DU?$char_traits@D@std@@V?$allocator@D@2@@std@@@2@V?$allocator@U?$pair@$$CBV?$basic_string@DU?$char_traits@D@std@@V?$allocator@D@2@@std@@V?$shared_ptr@VRawImageData@@@2@@std@@@2@$0A@@std@@@std@@IBEABU?$less@V?$basic_string@DU?$char_traits@D@std@@V?$allocator@D@2@@std@@@2@XZ 00420b20 f i ConfirmButton.obj
 0001:0001fb40       ?_Getcomp@?$_Tree@V?$_Tmap_traits@V?$basic_string@DU?$char_traits@D@std@@V?$allocator@D@2@@std@@V?$weak_ptr@VRawImageData@@@2@U?$less@V?$basic_string@DU?$char_traits@D@std@@V?$allocator@D@2@@std@@@2@V?$allocator@U?$pair@$$CBV?$basic_string@DU?$char_traits@D@std@@V?$allocator@D@2@@std@@V?$weak_ptr@VRawImageData@@@2@@std@@@2@$0A@@std@@@std@@IBEABU?$less@V?$basic_string@DU?$char_traits@D@std@@V?$allocator@D@2@@std@@@2@XZ 00420b40 f i ConfirmButton.obj
 0001:0001fb60       ?_Getcomp@?$_Tree@V?$_Tmap_traits@W4ButtonState@@V?$shared_ptr@VAnimation@@@std@@U?$less@W4ButtonState@@@3@V?$allocator@U?$pair@$$CBW4ButtonState@@V?$shared_ptr@VAnimation@@@std@@@std@@@3@$0A@@std@@@std@@IBEABU?$less@W4ButtonState@@@2@XZ 00420b60 f i ConfirmButton.obj
 0001:0001fb80       ?_Incref@?$_Ptr_base@VAnimation@@@std@@IBEXXZ 00420b80 f i ConfirmButton.obj
 0001:0001fbb0       ?_Incref_nz@_Ref_count_base@std@@QAE_NXZ 00420bb0 f i ConfirmButton.obj
 0001:0001fc20       ?_Incwref@_Ref_count_base@std@@QAEXXZ 00420c20 f i ConfirmButton.obj
 0001:0001fc40       ?_Insert_node@?$_Tree_val@U?$_Tree_simple_types@U?$pair@$$CBV?$basic_string@DU?$char_traits@D@std@@V?$allocator@D@2@@std@@V?$shared_ptr@VRawImageData@@@2@@std@@@std@@@std@@QAEPAU?$_Tree_node@U?$pair@$$CBV?$basic_string@DU?$char_traits@D@std@@V?$allocator@D@2@@std@@V?$shared_ptr@VRawImageData@@@2@@std@@PAX@2@U?$_Tree_id@PAU?$_Tree_node@U?$pair@$$CBV?$basic_string@DU?$char_traits@D@std@@V?$allocator@D@2@@std@@V?$shared_ptr@VRawImageData@@@2@@std@@PAX@std@@@2@QAU32@@Z 00420c40 f i ConfirmButton.obj
 0001:0001fed0       ?_Insert_node@?$_Tree_val@U?$_Tree_simple_types@U?$pair@$$CBV?$basic_string@DU?$char_traits@D@std@@V?$allocator@D@2@@std@@V?$weak_ptr@VRawImageData@@@2@@std@@@std@@@std@@QAEPAU?$_Tree_node@U?$pair@$$CBV?$basic_string@DU?$char_traits@D@std@@V?$allocator@D@2@@std@@V?$weak_ptr@VRawImageData@@@2@@std@@PAX@2@U?$_Tree_id@PAU?$_Tree_node@U?$pair@$$CBV?$basic_string@DU?$char_traits@D@std@@V?$allocator@D@2@@std@@V?$weak_ptr@VRawImageData@@@2@@std@@PAX@std@@@2@QAU32@@Z 00420ed0 f i ConfirmButton.obj
 0001:00020160       ?_Insert_node@?$_Tree_val@U?$_Tree_simple_types@U?$pair@$$CBW4ButtonState@@V?$shared_ptr@VAnimation@@@std@@@std@@@std@@@std@@QAEPAU?$_Tree_node@U?$pair@$$CBW4ButtonState@@V?$shared_ptr@VAnimation@@@std@@@std@@PAX@2@U?$_Tree_id@PAU?$_Tree_node@U?$pair@$$CBW4ButtonState@@V?$shared_ptr@VAnimation@@@std@@@std@@PAX@std@@@2@QAU32@@Z 00421160 f i ConfirmButton.obj
 0001:000203f0       ?_Large_string_engaged@?$_String_val@U?$_Simple_types@D@std@@@std@@QBE_NXZ 004213f0 f i ConfirmButton.obj
 0001:00020430       ?_Lrotate@?$_Tree_val@U?$_Tree_simple_types@U?$pair@$$CBV?$basic_string@DU?$char_traits@D@std@@V?$allocator@D@2@@std@@V?$shared_ptr@VRawImageData@@@2@@std@@@std@@@std@@QAEXPAU?$_Tree_node@U?$pair@$$CBV?$basic_string@DU?$char_traits@D@std@@V?$allocator@D@2@@std@@V?$shared_ptr@VRawImageData@@@2@@std@@PAX@2@@Z 00421430 f i ConfirmButton.obj
 0001:000204f0       ?_Lrotate@?$_Tree_val@U?$_Tree_simple_types@U?$pair@$$CBV?$basic_string@DU?$char_traits@D@std@@V?$allocator@D@2@@std@@V?$weak_ptr@VRawImageData@@@2@@std@@@std@@@std@@QAEXPAU?$_Tree_node@U?$pair@$$CBV?$basic_string@DU?$char_traits@D@std@@V?$allocator@D@2@@std@@V?$weak_ptr@VRawImageData@@@2@@std@@PAX@2@@Z 004214f0 f i ConfirmButton.obj
 0001:000205b0       ?_Lrotate@?$_Tree_val@U?$_Tree_simple_types@U?$pair@$$CBW4ButtonState@@V?$shared_ptr@VAnimation@@@std@@@std@@@std@@@std@@QAEXPAU?$_Tree_node@U?$pair@$$CBW4ButtonState@@V?$shared_ptr@VAnimation@@@std@@@std@@PAX@2@@Z 004215b0 f i ConfirmButton.obj
 0001:00020670       ?_Max@?$_Tree_val@U?$_Tree_simple_types@U?$pair@$$CBV?$basic_string@DU?$char_traits@D@std@@V?$allocator@D@2@@std@@V?$weak_ptr@VRawImageData@@@2@@std@@@std@@@std@@SAPAU?$_Tree_node@U?$pair@$$CBV?$basic_string@DU?$char_traits@D@std@@V?$allocator@D@2@@std@@V?$weak_ptr@VRawImageData@@@2@@std@@PAX@2@PAU32@@Z 00421670 f i ConfirmButton.obj
 0001:000206a0       ?_Memcpy_val_from@?$basic_string@DU?$char_traits@D@std@@V?$allocator@D@2@@std@@AAEXABV12@@Z 004216a0 f i ConfirmButton.obj
 0001:00020700       ?_Min@?$_Tree_val@U?$_Tree_simple_types@U?$pair@$$CBV?$basic_string@DU?$char_traits@D@std@@V?$allocator@D@2@@std@@V?$weak_ptr@VRawImageData@@@2@@std@@@std@@@std@@SAPAU?$_Tree_node@U?$pair@$$CBV?$basic_string@DU?$char_traits@D@std@@V?$allocator@D@2@@std@@V?$weak_ptr@VRawImageData@@@2@@std@@PAX@2@PAU32@@Z 00421700 f i ConfirmButton.obj
 0001:00020730       ?_Myptr@?$_String_val@U?$_Simple_types@D@std@@@std@@QAEPADXZ 00421730 f i ConfirmButton.obj
 0001:00020780       ?_Myptr@?$_String_val@U?$_Simple_types@D@std@@@std@@QBEPBDXZ 00421780 f i ConfirmButton.obj
 0001:000207d0       ?_Orphan_ptr@?$_Tree_val@U?$_Tree_simple_types@U?$pair@$$CBV?$basic_string@DU?$char_traits@D@std@@V?$allocator@D@2@@std@@V?$weak_ptr@VRawImageData@@@2@@std@@@std@@@std@@QAEXQAU?$_Tree_node@U?$pair@$$CBV?$basic_string@DU?$char_traits@D@std@@V?$allocator@D@2@@std@@V?$weak_ptr@VRawImageData@@@2@@std@@PAX@2@@Z 004217d0 f i ConfirmButton.obj
 0001:00020880       ?_Release@?$_Alloc_construct_ptr@V?$allocator@U?$_Tree_node@U?$pair@$$CBV?$basic_string@DU?$char_traits@D@std@@V?$allocator@D@2@@std@@V?$shared_ptr@VRawImageData@@@2@@std@@PAX@std@@@std@@@std@@QAEPAU?$_Tree_node@U?$pair@$$CBV?$basic_string@DU?$char_traits@D@std@@V?$allocator@D@2@@std@@V?$shared_ptr@VRawImageData@@@2@@std@@PAX@2@XZ 00421880 f i ConfirmButton.obj
 0001:000208b0       ?_Release@?$_Alloc_construct_ptr@V?$allocator@U?$_Tree_node@U?$pair@$$CBV?$basic_string@DU?$char_traits@D@std@@V?$allocator@D@2@@std@@V?$weak_ptr@VRawImageData@@@2@@std@@PAX@std@@@std@@@std@@QAEPAU?$_Tree_node@U?$pair@$$CBV?$basic_string@DU?$char_traits@D@std@@V?$allocator@D@2@@std@@V?$weak_ptr@VRawImageData@@@2@@std@@PAX@2@XZ 004218b0 f i ConfirmButton.obj
 0001:000208e0       ?_Release@?$_Alloc_construct_ptr@V?$allocator@U?$_Tree_node@U?$pair@$$CBW4ButtonState@@V?$shared_ptr@VAnimation@@@std@@@std@@PAX@std@@@std@@@std@@QAEPAU?$_Tree_node@U?$pair@$$CBW4ButtonState@@V?$shared_ptr@VAnimation@@@std@@@std@@PAX@2@XZ 004218e0 f i ConfirmButton.obj
 0001:00020910       ?_Rrotate@?$_Tree_val@U?$_Tree_simple_types@U?$pair@$$CBV?$basic_string@DU?$char_traits@D@std@@V?$allocator@D@2@@std@@V?$shared_ptr@VRawImageData@@@2@@std@@@std@@@std@@QAEXPAU?$_Tree_node@U?$pair@$$CBV?$basic_string@DU?$char_traits@D@std@@V?$allocator@D@2@@std@@V?$shared_ptr@VRawImageData@@@2@@std@@PAX@2@@Z 00421910 f i ConfirmButton.obj
 0001:000209e0       ?_Rrotate@?$_Tree_val@U?$_Tree_simple_types@U?$pair@$$CBV?$basic_string@DU?$char_traits@D@std@@V?$allocator@D@2@@std@@V?$weak_ptr@VRawImageData@@@2@@std@@@std@@@std@@QAEXPAU?$_Tree_node@U?$pair@$$CBV?$basic_string@DU?$char_traits@D@std@@V?$allocator@D@2@@std@@V?$weak_ptr@VRawImageData@@@2@@std@@PAX@2@@Z 004219e0 f i ConfirmButton.obj
 0001:00020ab0       ?_Rrotate@?$_Tree_val@U?$_Tree_simple_types@U?$pair@$$CBW4ButtonState@@V?$shared_ptr@VAnimation@@@std@@@std@@@std@@@std@@QAEXPAU?$_Tree_node@U?$pair@$$CBW4ButtonState@@V?$shared_ptr@VAnimation@@@std@@@std@@PAX@2@@Z 00421ab0 f i ConfirmButton.obj
 0001:00020b80       ?_Swap@?$_Ptr_base@VAnimation@@@std@@IAEXAAV12@@Z 00421b80 f i ConfirmButton.obj
 0001:00020bc0       ?_Swap@?$_Ptr_base@VRawImageData@@@std@@IAEXAAV12@@Z 00421bc0 f i ConfirmButton.obj
 0001:00020c00       ?_Swap_proxy_and_iterators@?$basic_string@DU?$char_traits@D@std@@V?$allocator@D@2@@std@@AAEXAAV12@@Z 00421c00 f i ConfirmButton.obj
 0001:00020c20       ?_Take_contents@?$basic_string@DU?$char_traits@D@std@@V?$allocator@D@2@@std@@AAEXAAV12@U?$integral_constant@_N$00@2@@Z 00421c20 f i ConfirmButton.obj
 0001:00020cc0       ?_Throw_tree_length_error@std@@YAXXZ 00421cc0 f i ConfirmButton.obj
 0001:00020ce0       ?_Tidy@?$vector@VSimpleImage@@V?$allocator@VSimpleImage@@@std@@@std@@AAEXXZ 00421ce0 f i ConfirmButton.obj
 0001:00020dd0       ?_Tidy_deallocate@?$basic_string@DU?$char_traits@D@std@@V?$allocator@D@2@@std@@AAEXXZ 00421dd0 f i ConfirmButton.obj
 0001:00020ec0       ?_Tidy_init@?$basic_string@DU?$char_traits@D@std@@V?$allocator@D@2@@std@@AAEXXZ 00421ec0 f i ConfirmButton.obj
 0001:00020f20       ?_Unwrapped@?$_Tree_iterator@V?$_Tree_val@U?$_Tree_simple_types@U?$pair@$$CBV?$basic_string@DU?$char_traits@D@std@@V?$allocator@D@2@@std@@V?$weak_ptr@VRawImageData@@@2@@std@@@std@@@std@@@std@@QBE?AV?$_Tree_unchecked_iterator@V?$_Tree_val@U?$_Tree_simple_types@U?$pair@$$CBV?$basic_string@DU?$char_traits@D@std@@V?$allocator@D@2@@std@@V?$weak_ptr@VRawImageData@@@2@@std@@@std@@@std@@@2@XZ 00421f20 f i ConfirmButton.obj
 0001:00020f60       ?_Use_count@_Ref_count_base@std@@QBEJXZ 00421f60 f i ConfirmButton.obj
 0001:00020f80       ?_Xlen_string@std@@YAXXZ   00421f80 f i ConfirmButton.obj
 0001:00020fa0       ?addAnimation@?$Animator@W4ButtonState@@X@@QAEXW4ButtonState@@V?$shared_ptr@VAnimation@@@std@@@Z 00421fa0 f i ConfirmButton.obj
 0001:00021060       ?allocate@?$allocator@D@std@@QAEPADI@Z 00422060 f i ConfirmButton.obj
 0001:00021090       ?allocate@?$allocator@U?$_Tree_node@U?$pair@$$CBV?$basic_string@DU?$char_traits@D@std@@V?$allocator@D@2@@std@@V?$shared_ptr@VRawImageData@@@2@@std@@PAX@std@@@std@@QAEPAU?$_Tree_node@U?$pair@$$CBV?$basic_string@DU?$char_traits@D@std@@V?$allocator@D@2@@std@@V?$shared_ptr@VRawImageData@@@2@@std@@PAX@2@I@Z 00422090 f i ConfirmButton.obj
 0001:000210c0       ?allocate@?$allocator@U?$_Tree_node@U?$pair@$$CBV?$basic_string@DU?$char_traits@D@std@@V?$allocator@D@2@@std@@V?$weak_ptr@VRawImageData@@@2@@std@@PAX@std@@@std@@QAEPAU?$_Tree_node@U?$pair@$$CBV?$basic_string@DU?$char_traits@D@std@@V?$allocator@D@2@@std@@V?$weak_ptr@VRawImageData@@@2@@std@@PAX@2@I@Z 004220c0 f i ConfirmButton.obj
 0001:000210f0       ?allocate@?$allocator@U?$_Tree_node@U?$pair@$$CBW4ButtonState@@V?$shared_ptr@VAnimation@@@std@@@std@@PAX@std@@@std@@QAEPAU?$_Tree_node@U?$pair@$$CBW4ButtonState@@V?$shared_ptr@VAnimation@@@std@@@std@@PAX@2@I@Z 004220f0 f i ConfirmButton.obj
 0001:00021120       ?assign@?$_Narrow_char_traits@DH@std@@SAXAADABD@Z 00422120 f i ConfirmButton.obj
 0001:00021140       ?assign@?$basic_string@DU?$char_traits@D@std@@V?$allocator@D@2@@std@@QAEAAV12@QBD@Z 00422140 f i ConfirmButton.obj
 0001:00021180       ?assign@?$basic_string@DU?$char_traits@D@std@@V?$allocator@D@2@@std@@QAEAAV12@QBDI@Z 00422180 f i ConfirmButton.obj
 0001:00021220       ?c_str@?$basic_string@DU?$char_traits@D@std@@V?$allocator@D@2@@std@@QBEPBDXZ 00422220 f i ConfirmButton.obj
 0001:00021240       ?changePixelColour@ImageMappingGeneralist@@UAE_NHHAAHPAVDrawingSurface@@@Z 00422240 f i ConfirmButton.obj
 0001:00021620       ?changePixelColour@ImagePixelMapping@@UAE_NHHAAHPAVDrawingSurface@@@Z 00422620 f i ConfirmButton.obj
 0001:00021640       ?compare@?$_Narrow_char_traits@DH@std@@SAHQBD0I@Z 00422640 f i ConfirmButton.obj
 0001:00021660       ?compare@?$basic_string@DU?$char_traits@D@std@@V?$allocator@D@2@@std@@QBEHABV12@@Z 00422660 f i ConfirmButton.obj
 0001:000216b0       ?copy@?$_Narrow_char_traits@DH@std@@SAPADQADQBDI@Z 004226b0 f i ConfirmButton.obj
 0001:000216d0       ?data@?$basic_string@DU?$char_traits@D@std@@V?$allocator@D@2@@std@@QBEPBDXZ 004226d0 f i ConfirmButton.obj
 0001:000216f0       ?deallocate@?$_Default_allocator_traits@V?$allocator@U?$_Tree_node@U?$pair@$$CBV?$basic_string@DU?$char_traits@D@std@@V?$allocator@D@2@@std@@V?$weak_ptr@VRawImageData@@@2@@std@@PAX@std@@@std@@@std@@SAXAAV?$allocator@U?$_Tree_node@U?$pair@$$CBV?$basic_string@DU?$char_traits@D@std@@V?$allocator@D@2@@std@@V?$weak_ptr@VRawImageData@@@2@@std@@PAX@std@@@2@QAU?$_Tree_node@U?$pair@$$CBV?$basic_string@DU?$char_traits@D@std@@V?$allocator@D@2@@std@@V?$weak_ptr@VRawImageData@@@2@@std@@PAX@2@I@Z 004226f0 f i ConfirmButton.obj
 0001:00021710       ?deallocate@?$_Default_allocator_traits@V?$allocator@U?$_Tree_node@U?$pair@$$CBW4ButtonState@@V?$shared_ptr@VAnimation@@@std@@@std@@PAX@std@@@std@@@std@@SAXAAV?$allocator@U?$_Tree_node@U?$pair@$$CBW4ButtonState@@V?$shared_ptr@VAnimation@@@std@@@std@@PAX@std@@@2@QAU?$_Tree_node@U?$pair@$$CBW4ButtonState@@V?$shared_ptr@VAnimation@@@std@@@std@@PAX@2@I@Z 00422710 f i ConfirmButton.obj
 0001:00021730       ?deallocate@?$allocator@D@std@@QAEXQADI@Z 00422730 f i ConfirmButton.obj
 0001:00021760       ?deallocate@?$allocator@U?$_Tree_node@U?$pair@$$CBV?$basic_string@DU?$char_traits@D@std@@V?$allocator@D@2@@std@@V?$shared_ptr@VRawImageData@@@2@@std@@PAX@std@@@std@@QAEXQAU?$_Tree_node@U?$pair@$$CBV?$basic_string@DU?$char_traits@D@std@@V?$allocator@D@2@@std@@V?$shared_ptr@VRawImageData@@@2@@std@@PAX@2@I@Z 00422760 f i ConfirmButton.obj
 0001:00021790       ?deallocate@?$allocator@U?$_Tree_node@U?$pair@$$CBV?$basic_string@DU?$char_traits@D@std@@V?$allocator@D@2@@std@@V?$weak_ptr@VRawImageData@@@2@@std@@PAX@std@@@std@@QAEXQAU?$_Tree_node@U?$pair@$$CBV?$basic_string@DU?$char_traits@D@std@@V?$allocator@D@2@@std@@V?$weak_ptr@VRawImageData@@@2@@std@@PAX@2@I@Z 00422790 f i ConfirmButton.obj
 0001:000217c0       ?deallocate@?$allocator@U?$_Tree_node@U?$pair@$$CBW4ButtonState@@V?$shared_ptr@VAnimation@@@std@@@std@@PAX@std@@@std@@QAEXQAU?$_Tree_node@U?$pair@$$CBW4ButtonState@@V?$shared_ptr@VAnimation@@@std@@@std@@PAX@2@I@Z 004227c0 f i ConfirmButton.obj
 0001:000217f0       ?deleteOnRemoval@DisplayableObject@@UBE_NXZ 004227f0 f i ConfirmButton.obj
 0001:00021810       ?drawForegroundString@BaseEngine@@QAEXHHPBDIPAVFont@@@Z 00422810 f i ConfirmButton.obj
 0001:00021850       ?drawSprite@GameObject@@UAEXXZ 00422850 f i ConfirmButton.obj
 0001:00021860       ?end@?$_Tree@V?$_Tmap_traits@V?$basic_string@DU?$char_traits@D@std@@V?$allocator@D@2@@std@@V?$weak_ptr@VRawImageData@@@2@U?$less@V?$basic_string@DU?$char_traits@D@std@@V?$allocator@D@2@@std@@@2@V?$allocator@U?$pair@$$CBV?$basic_string@DU?$char_traits@D@std@@V?$allocator@D@2@@std@@V?$weak_ptr@VRawImageData@@@2@@std@@@2@$0A@@std@@@std@@QAE?AV?$_Tree_iterator@V?$_Tree_val@U?$_Tree_simple_types@U?$pair@$$CBV?$basic_string@DU?$char_traits@D@std@@V?$allocator@D@2@@std@@V?$weak_ptr@VRawImageData@@@2@@std@@@std@@@std@@@2@XZ 00422860 f i ConfirmButton.obj
 0001:000218a0       ?end@?$_Tree@V?$_Tmap_traits@W4ButtonState@@V?$shared_ptr@VAnimation@@@std@@U?$less@W4ButtonState@@@3@V?$allocator@U?$pair@$$CBW4ButtonState@@V?$shared_ptr@VAnimation@@@std@@@std@@@3@$0A@@std@@@std@@QAE?AV?$_Tree_iterator@V?$_Tree_val@U?$_Tree_simple_types@U?$pair@$$CBW4ButtonState@@V?$shared_ptr@VAnimation@@@std@@@std@@@std@@@std@@@2@XZ 004228a0 f i ConfirmButton.obj
 0001:000218e0       ?eof@?$_Narrow_char_traits@DH@std@@SAHXZ 004228e0 f i ConfirmButton.obj
 0001:000218f0       ?eq_int_type@?$_Narrow_char_traits@DH@std@@SA_NABH0@Z 004228f0 f i ConfirmButton.obj
 0001:00021920       ?expired@?$weak_ptr@VRawImageData@@@std@@QBE_NXZ 00422920 f i ConfirmButton.obj
 0001:00021960       ?find@?$_Tree@V?$_Tmap_traits@V?$basic_string@DU?$char_traits@D@std@@V?$allocator@D@2@@std@@V?$weak_ptr@VRawImageData@@@2@U?$less@V?$basic_string@DU?$char_traits@D@std@@V?$allocator@D@2@@std@@@2@V?$allocator@U?$pair@$$CBV?$basic_string@DU?$char_traits@D@std@@V?$allocator@D@2@@std@@V?$weak_ptr@VRawImageData@@@2@@std@@@2@$0A@@std@@@std@@QAE?AV?$_Tree_iterator@V?$_Tree_val@U?$_Tree_simple_types@U?$pair@$$CBV?$basic_string@DU?$char_traits@D@std@@V?$allocator@D@2@@std@@V?$weak_ptr@VRawImageData@@@2@@std@@@std@@@std@@@2@ABV?$basic_string@DU?$char_traits@D@std@@V?$allocator@D@2@@2@@Z 00422960 f i ConfirmButton.obj
 0001:000219b0       ?find@?$_Tree@V?$_Tmap_traits@W4ButtonState@@V?$shared_ptr@VAnimation@@@std@@U?$less@W4ButtonState@@@3@V?$allocator@U?$pair@$$CBW4ButtonState@@V?$shared_ptr@VAnimation@@@std@@@std@@@3@$0A@@std@@@std@@QAE?AV?$_Tree_iterator@V?$_Tree_val@U?$_Tree_simple_types@U?$pair@$$CBW4ButtonState@@V?$shared_ptr@VAnimation@@@std@@@std@@@std@@@std@@@2@ABW4ButtonState@@@Z 004229b0 f i ConfirmButton.obj
 0001:00021a00       ?freeSurface@RawImageData@@QAEXXZ 00422a00 f i ConfirmButton.obj
 0001:00021a80       ?get@?$_Ptr_base@VAnimation@@@std@@IBEPAVAnimation@@XZ 00422a80 f i ConfirmButton.obj
 0001:00021aa0       ?get@?$_Ptr_base@VRawImageData@@@std@@IBEPAVRawImageData@@XZ 00422aa0 f i ConfirmButton.obj
 0001:00021ac0       ?get@ImageManager@@SAPAV1@XZ 00422ac0 f i ConfirmButton.obj
 0001:00021b70       ?getFont@BaseEngine@@QAEPAVFont@@PBDH@Z 00422b70 f i ConfirmButton.obj
 0001:00021ba0       ?getForegroundSurface@BaseEngine@@QAEPAVDrawingSurface@@XZ 00422ba0 f i ConfirmButton.obj
 0001:00021bc0       ?getHeight@RawImageData@@QBEHXZ 00422bc0 f i ConfirmButton.obj
 0001:00021be0       ?getHeight@SimpleImage@@QBEHXZ 00422be0 f i ConfirmButton.obj
 0001:00021c10       ?getImagePtrbyURL@ImageManager@@QAE?AV?$shared_ptr@VRawImageData@@@std@@V?$basic_string@DU?$char_traits@D@std@@V?$allocator@D@2@@3@_N1@Z 00422c10 f i ConfirmButton.obj
 0001:00022060       ?getImagebyURL@ImageManager@@QAE?AVSimpleImage@@V?$basic_string@DU?$char_traits@D@std@@V?$allocator@D@2@@std@@_N1@Z 00423060 f i ConfirmButton.obj
 0001:00022130       ?getIntsPerWindowRow@DrawingSurface@@QBEIXZ 00423130 f i ConfirmButton.obj
 0001:00022150       ?getPixel@DrawingSurface@@QAEIHH@Z 00423150 f i ConfirmButton.obj
 0001:000221c0       ?getPixelColour@SimpleImage@@QBEHHH@Z 004231c0 f i ConfirmButton.obj
 0001:000221f0       ?getPosition@GameObject@@QBE?AUVec2@@XZ 004231f0 f i ConfirmButton.obj
 0001:00022220       ?getRawPixelColour@RawImageData@@QBEHHH@Z 00423220 f i ConfirmButton.obj
 0001:00022270       ?getSurfaceHeight@DrawingSurface@@QBEHXZ 00423270 f i ConfirmButton.obj
 0001:00022290       ?getSurfaceWidth@DrawingSurface@@QBEHXZ 00423290 f i ConfirmButton.obj
 0001:000222b0       ?getWidth@RawImageData@@QBEHXZ 004232b0 f i ConfirmButton.obj
 0001:000222d0       ?getWidth@SimpleImage@@QBEHXZ 004232d0 f i ConfirmButton.obj
 0001:00022300       ?getXForRotationAndCrop@RawImageData@@SAHHHHHHH@Z 00423300 f i ConfirmButton.obj
 0001:00022370       ?getYForRotationAndCrop@RawImageData@@SAHHHHHHH@Z 00423370 f i ConfirmButton.obj
 0001:000223e0       ?isVisible@DisplayableObject@@QBE_NXZ 004233e0 f i ConfirmButton.obj
 0001:00022400       ?length@?$_Narrow_char_traits@DH@std@@SAIQBD@Z 00423400 f i ConfirmButton.obj
 0001:00022420       ?loadAsNew@ImageManager@@QAE?AV?$shared_ptr@VRawImageData@@@std@@V?$basic_string@DU?$char_traits@D@std@@V?$allocator@D@2@@3@@Z 00423420 f i ConfirmButton.obj
 0001:000225f0       ?loadImage@RawImageData@@QAE_NV?$basic_string@DU?$char_traits@D@std@@V?$allocator@D@2@@std@@HHHHH_N@Z 004235f0 f i ConfirmButton.obj
 0001:00022900       ?lock@?$weak_ptr@VRawImageData@@@std@@QBE?AV?$shared_ptr@VRawImageData@@@2@XZ 00423900 f i ConfirmButton.obj
 0001:00022950       ?mapCoordinates@ImageMappingGeneralist@@UAE_NAAN0ABVSimpleImage@@@Z 00423950 f i ConfirmButton.obj
 0001:00022cd0       ?mapCoordinates@ImagePixelMappingRotate@@UAE_NAAN0ABVSimpleImage@@@Z 00423cd0 f i ConfirmButton.obj
 0001:00022fc0       ?max_size@?$_Default_allocator_traits@V?$allocator@D@std@@@std@@SAIABV?$allocator@D@2@@Z 00423fc0 f i ConfirmButton.obj
 0001:00022fd0       ?max_size@?$_Default_allocator_traits@V?$allocator@U?$_Tree_node@U?$pair@$$CBV?$basic_string@DU?$char_traits@D@std@@V?$allocator@D@2@@std@@V?$shared_ptr@VRawImageData@@@2@@std@@PAX@std@@@std@@@std@@SAIABV?$allocator@U?$_Tree_node@U?$pair@$$CBV?$basic_string@DU?$char_traits@D@std@@V?$allocator@D@2@@std@@V?$shared_ptr@VRawImageData@@@2@@std@@PAX@std@@@2@@Z 00423fd0 f i ConfirmButton.obj
 0001:00022fe0       ?max_size@?$_Default_allocator_traits@V?$allocator@U?$_Tree_node@U?$pair@$$CBV?$basic_string@DU?$char_traits@D@std@@V?$allocator@D@2@@std@@V?$weak_ptr@VRawImageData@@@2@@std@@PAX@std@@@std@@@std@@SAIABV?$allocator@U?$_Tree_node@U?$pair@$$CBV?$basic_string@DU?$char_traits@D@std@@V?$allocator@D@2@@std@@V?$weak_ptr@VRawImageData@@@2@@std@@PAX@std@@@2@@Z 00423fe0 f i ConfirmButton.obj
 0001:00022ff0       ?max_size@?$_Default_allocator_traits@V?$allocator@U?$_Tree_node@U?$pair@$$CBW4ButtonState@@V?$shared_ptr@VAnimation@@@std@@@std@@PAX@std@@@std@@@std@@SAIABV?$allocator@U?$_Tree_node@U?$pair@$$CBW4ButtonState@@V?$shared_ptr@VAnimation@@@std@@@std@@PAX@std@@@2@@Z 00423ff0 f i ConfirmButton.obj
 0001:00023000       ?max_size@?$_Tree@V?$_Tmap_traits@V?$basic_string@DU?$char_traits@D@std@@V?$allocator@D@2@@std@@V?$shared_ptr@VRawImageData@@@2@U?$less@V?$basic_string@DU?$char_traits@D@std@@V?$allocator@D@2@@std@@@2@V?$allocator@U?$pair@$$CBV?$basic_string@DU?$char_traits@D@std@@V?$allocator@D@2@@std@@V?$shared_ptr@VRawImageData@@@2@@std@@@2@$0A@@std@@@std@@QBEIXZ 00424000 f i ConfirmButton.obj
 0001:00023050       ?max_size@?$_Tree@V?$_Tmap_traits@V?$basic_string@DU?$char_traits@D@std@@V?$allocator@D@2@@std@@V?$weak_ptr@VRawImageData@@@2@U?$less@V?$basic_string@DU?$char_traits@D@std@@V?$allocator@D@2@@std@@@2@V?$allocator@U?$pair@$$CBV?$basic_string@DU?$char_traits@D@std@@V?$allocator@D@2@@std@@V?$weak_ptr@VRawImageData@@@2@@std@@@2@$0A@@std@@@std@@QBEIXZ 00424050 f i ConfirmButton.obj
 0001:000230a0       ?max_size@?$_Tree@V?$_Tmap_traits@W4ButtonState@@V?$shared_ptr@VAnimation@@@std@@U?$less@W4ButtonState@@@3@V?$allocator@U?$pair@$$CBW4ButtonState@@V?$shared_ptr@VAnimation@@@std@@@std@@@3@$0A@@std@@@std@@QBEIXZ 004240a0 f i ConfirmButton.obj
 0001:000230f0       ?max_size@?$basic_string@DU?$char_traits@D@std@@V?$allocator@D@2@@std@@QBEIXZ 004240f0 f i ConfirmButton.obj
 0001:00023170       ?move@?$_Narrow_char_traits@DH@std@@SAPADQADQBDI@Z 00424170 f i ConfirmButton.obj
 0001:00023190       ?play@?$Animator@W4ButtonState@@X@@QAEABVSimpleImage@@XZ 00424190 f i ConfirmButton.obj
 0001:000231d0       ?pointer_to@?$pointer_traits@PAU?$pair@$$CBV?$basic_string@DU?$char_traits@D@std@@V?$allocator@D@2@@std@@V?$weak_ptr@VRawImageData@@@2@@std@@@std@@SAPAU?$pair@$$CBV?$basic_string@DU?$char_traits@D@std@@V?$allocator@D@2@@std@@V?$weak_ptr@VRawImageData@@@2@@2@AAU32@@Z 004241d0 f i ConfirmButton.obj
 0001:000231f0       ?pointer_to@?$pointer_traits@PAU?$pair@$$CBW4ButtonState@@V?$shared_ptr@VAnimation@@@std@@@std@@@std@@SAPAU?$pair@$$CBW4ButtonState@@V?$shared_ptr@VAnimation@@@std@@@2@AAU32@@Z 004241f0 f i ConfirmButton.obj
 0001:00023210       ?rawGetPixel@DrawingSurface@@QBEIHH@Z 00424210 f i ConfirmButton.obj
 0001:00023280       ?select_on_container_copy_construction@?$_Default_allocator_traits@V?$allocator@D@std@@@std@@SA?AV?$allocator@D@2@ABV32@@Z 00424280 f i ConfirmButton.obj
 0001:00023290       ?setAnimationState@?$Animator@W4ButtonState@@X@@QAEXW4ButtonState@@@Z 00424290 f i ConfirmButton.obj
 0001:000233b0       ?setPosition@DisplayableObject@@UAEXHH@Z 004243b0 f i ConfirmButton.obj
 0001:000233f0       ?setTransparencyColour@ImageMappingGeneralist@@QAEXH@Z 004243f0 f i ConfirmButton.obj
 0001:00023410       ?setVisible@DisplayableObject@@QAEX_N@Z 00424410 f i ConfirmButton.obj
 0001:00023430       ?size@?$basic_string@DU?$char_traits@D@std@@V?$allocator@D@2@@std@@QBEIXZ 00424430 f i ConfirmButton.obj
 0001:00023450       ?swap@?$shared_ptr@VAnimation@@@std@@QAEXAAV12@@Z 00424450 f i ConfirmButton.obj
 0001:00023470       ?swap@?$shared_ptr@VRawImageData@@@std@@QAEXAAV12@@Z 00424470 f i ConfirmButton.obj
 0001:00023490       ?use_count@?$_Ptr_base@VRawImageData@@@std@@QBEJXZ 00424490 f i ConfirmButton.obj
 0001:000234d0       ?virtIsPositionWithinObject@DisplayableObject@@UAE_NHH@Z 004244d0 f i ConfirmButton.obj
 0001:00023560       ?virtKeyDown@DisplayableObject@@UAEXH@Z 00424560 f i ConfirmButton.obj
 0001:00023570       ?virtKeyUp@DisplayableObject@@UAEXH@Z 00424570 f i ConfirmButton.obj
 0001:00023580       ?virtMouseDown@BaseButton@@UAEXHHH@Z 00424580 f i ConfirmButton.obj
 0001:000235c0       ?virtMouseDown@DisplayableObject@@UAEXHHH@Z 004245c0 f i ConfirmButton.obj
 0001:000235d0       ?virtMouseMoved@BaseButton@@UAEXHH@Z 004245d0 f i ConfirmButton.obj
 0001:00023670       ?virtMouseMoved@DisplayableObject@@UAEXHH@Z 00424670 f i ConfirmButton.obj
 0001:00023680       ?virtMouseUp@DisplayableObject@@UAEXHHH@Z 00424680 f i ConfirmButton.obj
 0001:00023690       ?virtNotify@DisplayableObject@@UAEJHHH@Z 00424690 f i ConfirmButton.obj
 0001:000236b0       ?virtSingleItemMouseDown@DisplayableObject@@UAE_NHHH@Z 004246b0 f i ConfirmButton.obj
 0001:000236d0       ?virtStart@GameObject@@UAEXXZ 004246d0 f i ConfirmButton.obj
 0001:000236e0       ___local_stdio_printf_options 004246e0 f i ConfirmButton.obj
 0001:000236f0       __vfprintf_l               004246f0 f i ConfirmButton.obj
 0001:00023730       _printf                    00424730 f i ConfirmButton.obj
 0001:00023780       ?getInstance@DeadWallSpawner@@SAPAV1@XZ 00424780 f   DeadWallSpawner.obj
 0001:00023820       ?virtDrawTileAt@DeadWallSpawner@@UBEXPAVBaseEngine@@PAVDrawingSurface@@HHHH@Z 00424820 f   DeadWallSpawner.obj
 0001:000239d0       ?generateCreature@DeadWallSpawner@@QAEXXZ 004249d0 f   DeadWallSpawner.obj
 0001:00023be0       ?updateDeadWall@DeadWallSpawner@@QAEXXZ 00424be0 f   DeadWallSpawner.obj
 0001:00023da0       ??$?0$$V@?$_Compressed_pair@V?$allocator@V?$shared_ptr@VDeadWallUnit@@@std@@@std@@V?$_Vector_val@U?$_Simple_types@V?$shared_ptr@VDeadWallUnit@@@std@@@std@@@2@$00@std@@QAE@U_Zero_then_variadic_args_t@1@@Z 00424da0 f i DeadWallSpawner.obj
 0001:00023dd0       ??$?0$$V@?$_Ref_count_obj2@VDeadWallUnit@@@std@@QAE@XZ 00424dd0 f i DeadWallSpawner.obj
 0001:00023e60       ??$?0V?$shared_ptr@VDeadWallUnit@@@std@@@?$allocator@U_Container_proxy@std@@@std@@QAE@ABV?$allocator@V?$shared_ptr@VDeadWallUnit@@@std@@@1@@Z 00424e60 f i DeadWallSpawner.obj
 0001:00023e80       ??$?CVDeadWallUnit@@$0A@@?$shared_ptr@VDeadWallUnit@@@std@@QBEPAVDeadWallUnit@@XZ 00424e80 f i DeadWallSpawner.obj
 0001:00023ea0       ??$_Construct_in_place@VDeadWallUnit@@$$V@std@@YAXAAVDeadWallUnit@@@Z 00424ea0 f i DeadWallSpawner.obj
 0001:00023ef0       ??$_Copy_construct_from@VDeadWallUnit@@@?$_Ptr_base@VDeadWallUnit@@@std@@IAEXABV?$shared_ptr@VDeadWallUnit@@@1@@Z 00424ef0 f i DeadWallSpawner.obj
 0001:00023f30       ??$_Destroy_in_place@VDeadWallUnit@@@std@@YAXAAVDeadWallUnit@@@Z 00424f30 f i DeadWallSpawner.obj
 0001:00023f40       ??$_Destroy_range@V?$allocator@V?$shared_ptr@VDeadWallUnit@@@std@@@std@@@std@@YAXPAV?$shared_ptr@VDeadWallUnit@@@0@QAV10@AAV?$allocator@V?$shared_ptr@VDeadWallUnit@@@std@@@0@@Z 00424f40 f i DeadWallSpawner.obj
 0001:00023fc0       ??$_Emplace_back@V?$shared_ptr@VDeadWallUnit@@@std@@@?$_Uninitialized_backout_al@V?$allocator@V?$shared_ptr@VDeadWallUnit@@@std@@@std@@@std@@QAEX$$QAV?$shared_ptr@VDeadWallUnit@@@1@@Z 00424fc0 f i DeadWallSpawner.obj
 0001:00024020       ??$_Emplace_back_with_unused_capacity@ABV?$shared_ptr@VDeadWallUnit@@@std@@@?$vector@V?$shared_ptr@VDeadWallUnit@@@std@@V?$allocator@V?$shared_ptr@VDeadWallUnit@@@std@@@2@@std@@AAE@ABV?$shared_ptr@VDeadWallUnit@@@1@@Z 00425020 f i DeadWallSpawner.obj
 0001:000240c0       ??$_Emplace_reallocate@ABV?$shared_ptr@VDeadWallUnit@@@std@@@?$vector@V?$shared_ptr@VDeadWallUnit@@@std@@V?$allocator@V?$shared_ptr@VDeadWallUnit@@@std@@@2@@std@@QAEPAV?$shared_ptr@VDeadWallUnit@@@1@QAV21@ABV21@@Z 004250c0 f i DeadWallSpawner.obj
 0001:00024310       ??$_Get_unwrapped@ABQAV?$shared_ptr@VDeadWallUnit@@@std@@@std@@YA@ABQAV?$shared_ptr@VDeadWallUnit@@@0@@Z 00425310 f i DeadWallSpawner.obj
 0001:00024320       ??$_Move_construct_from@VDeadWallUnit@@@?$_Ptr_base@VDeadWallUnit@@@std@@IAEX$$QAV01@@Z 00425320 f i DeadWallSpawner.obj
 0001:00024370       ??$_Set_ptr_rep_and_enable_shared@VDeadWallUnit@@@?$shared_ptr@VDeadWallUnit@@@std@@AAEXQAVDeadWallUnit@@QAV_Ref_count_base@1@@Z 00425370 f i DeadWallSpawner.obj
 0001:000243a0       ??$_Unfancy@V?$shared_ptr@VDeadWallUnit@@@std@@@std@@YAPAV?$shared_ptr@VDeadWallUnit@@@0@PAV10@@Z 004253a0 f i DeadWallSpawner.obj
 0001:000243b0       ??$_Uninitialized_move@PAV?$shared_ptr@VDeadWallUnit@@@std@@V?$allocator@V?$shared_ptr@VDeadWallUnit@@@std@@@2@@std@@YAPAV?$shared_ptr@VDeadWallUnit@@@0@QAV10@0PAV10@AAV?$allocator@V?$shared_ptr@VDeadWallUnit@@@std@@@0@@Z 004253b0 f i DeadWallSpawner.obj
 0001:00024490       ??$addressof@VDeadWallUnit@@@std@@YAPAVDeadWallUnit@@AAV1@@Z 00425490 f i DeadWallSpawner.obj
 0001:000244a0       ??$construct@V?$shared_ptr@VDeadWallUnit@@@std@@ABV12@@?$_Default_allocator_traits@V?$allocator@V?$shared_ptr@VDeadWallUnit@@@std@@@std@@@std@@SAXAAV?$allocator@V?$shared_ptr@VDeadWallUnit@@@std@@@1@QAV?$shared_ptr@VDeadWallUnit@@@1@ABV31@@Z 004254a0 f i DeadWallSpawner.obj
 0001:000244e0       ??$construct@V?$shared_ptr@VDeadWallUnit@@@std@@V12@@?$_Default_allocator_traits@V?$allocator@V?$shared_ptr@VDeadWallUnit@@@std@@@std@@@std@@SAXAAV?$allocator@V?$shared_ptr@VDeadWallUnit@@@std@@@1@QAV?$shared_ptr@VDeadWallUnit@@@1@$$QAV31@@Z 004254e0 f i DeadWallSpawner.obj
 0001:00024520       ??$destroy@V?$shared_ptr@VDeadWallUnit@@@std@@@?$_Default_allocator_traits@V?$allocator@V?$shared_ptr@VDeadWallUnit@@@std@@@std@@@std@@SAXAAV?$allocator@V?$shared_ptr@VDeadWallUnit@@@std@@@1@QAV?$shared_ptr@VDeadWallUnit@@@1@@Z 00425520 f i DeadWallSpawner.obj
 0001:00024540       ??$emplace_back@ABV?$shared_ptr@VDeadWallUnit@@@std@@@?$vector@V?$shared_ptr@VDeadWallUnit@@@std@@V?$allocator@V?$shared_ptr@VDeadWallUnit@@@std@@@2@@std@@QAE@ABV?$shared_ptr@VDeadWallUnit@@@1@@Z 00425540 f i DeadWallSpawner.obj
 0001:000245c0       ??$forward@ABV?$shared_ptr@VDeadWallUnit@@@std@@@std@@YAABV?$shared_ptr@VDeadWallUnit@@@0@ABV10@@Z 004255c0 f i DeadWallSpawner.obj
 0001:000245d0       ??$forward@V?$shared_ptr@VDeadWallUnit@@@std@@@std@@YA$$QAV?$shared_ptr@VDeadWallUnit@@@0@AAV10@@Z 004255d0 f i DeadWallSpawner.obj
 0001:000245e0       ??$make_shared@VDeadWallUnit@@$$V@std@@YA?AV?$shared_ptr@VDeadWallUnit@@@0@XZ 004255e0 f i DeadWallSpawner.obj
 0001:000246d0       ??$move@AAV?$shared_ptr@VDeadWallUnit@@@std@@@std@@YA$$QAV?$shared_ptr@VDeadWallUnit@@@0@AAV10@@Z 004256d0 f i DeadWallSpawner.obj
 0001:000246e0       ??0?$_Ptr_base@VDeadWallUnit@@@std@@IAE@XZ 004256e0 f i DeadWallSpawner.obj
 0001:00024710       ??0?$_Uninitialized_backout_al@V?$allocator@V?$shared_ptr@VDeadWallUnit@@@std@@@std@@@std@@QAE@PAV?$shared_ptr@VDeadWallUnit@@@1@AAV?$allocator@V?$shared_ptr@VDeadWallUnit@@@std@@@1@@Z 00425710 f i DeadWallSpawner.obj
 0001:00024750       ??0?$_Vector_val@U?$_Simple_types@V?$shared_ptr@VDeadWallUnit@@@std@@@std@@@std@@QAE@XZ 00425750 f i DeadWallSpawner.obj
 0001:000247a0       ??0?$allocator@V?$shared_ptr@VDeadWallUnit@@@std@@@std@@QAE@XZ 004257a0 f i DeadWallSpawner.obj
 0001:000247c0       ??0?$shared_ptr@VDeadWallUnit@@@std@@QAE@$$QAV01@@Z 004257c0 f i DeadWallSpawner.obj
 0001:00024800       ??0?$shared_ptr@VDeadWallUnit@@@std@@QAE@ABV01@@Z 00425800 f i DeadWallSpawner.obj
 0001:00024830       ??0?$shared_ptr@VDeadWallUnit@@@std@@QAE@XZ 00425830 f i DeadWallSpawner.obj
 0001:00024850       ??0?$vector@V?$shared_ptr@VDeadWallUnit@@@std@@V?$allocator@V?$shared_ptr@VDeadWallUnit@@@std@@@2@@std@@QAE@XZ 00425850 f i DeadWallSpawner.obj
 0001:000248d0       ??0DeadWallSpawner@@IAE@HHH@Z 004258d0 f i DeadWallSpawner.obj
 0001:000249b0       ??0DeadWallUnit@@QAE@XZ    004259b0 f i DeadWallSpawner.obj
 0001:00024a20       ??1?$_Ref_count_obj2@VDeadWallUnit@@@std@@UAE@XZ 00425a20 f i DeadWallSpawner.obj
 0001:00024a50       ??1?$_Uninitialized_backout_al@V?$allocator@V?$shared_ptr@VDeadWallUnit@@@std@@@std@@@std@@QAE@XZ 00425a50 f i DeadWallSpawner.obj
 0001:00024a80       ??1?$shared_ptr@VDeadWallUnit@@@std@@QAE@XZ 00425a80 f i DeadWallSpawner.obj
 0001:00024aa0       ??1?$vector@V?$shared_ptr@VDeadWallUnit@@@std@@V?$allocator@V?$shared_ptr@VDeadWallUnit@@@std@@@2@@std@@QAE@XZ 00425aa0 f i DeadWallSpawner.obj
 0001:00024b10       ??1DeadWallSpawner@@UAE@XZ 00425b10 f i DeadWallSpawner.obj
 0001:00024b50       ??A?$vector@V?$shared_ptr@VDeadWallUnit@@@std@@V?$allocator@V?$shared_ptr@VDeadWallUnit@@@std@@@2@@std@@QBEABV?$shared_ptr@VDeadWallUnit@@@1@I@Z 00425b50 f i DeadWallSpawner.obj
 0001:00024c00       ??_G?$_Ref_count_obj2@VDeadWallUnit@@@std@@UAEPAXI@Z 00425c00 f i DeadWallSpawner.obj
 0001:00024c00       ??_E?$_Ref_count_obj2@VDeadWallUnit@@@std@@UAEPAXI@Z 00425c00 f i DeadWallSpawner.obj
 0001:00024c40       ??_G?$shared_ptr@VDeadWallUnit@@@std@@QAEPAXI@Z 00425c40 f i DeadWallSpawner.obj
 0001:00024c80       ??_EDeadWallSpawner@@UAEPAXI@Z 00425c80 f i DeadWallSpawner.obj
 0001:00024c80       ??_GDeadWallSpawner@@UAEPAXI@Z 00425c80 f i DeadWallSpawner.obj
 0001:00024cc0       ?_Calculate_growth@?$vector@V?$shared_ptr@VDeadWallUnit@@@std@@V?$allocator@V?$shared_ptr@VDeadWallUnit@@@std@@@2@@std@@ABEII@Z 00425cc0 f i DeadWallSpawner.obj
 0001:00024d30       ?_Change_array@?$vector@V?$shared_ptr@VDeadWallUnit@@@std@@V?$allocator@V?$shared_ptr@VDeadWallUnit@@@std@@@2@@std@@AAEXQAV?$shared_ptr@VDeadWallUnit@@@2@II@Z 00425d30 f i DeadWallSpawner.obj
 0001:00024e00       ?_Decref@?$_Ptr_base@VDeadWallUnit@@@std@@IAEXXZ 00425e00 f i DeadWallSpawner.obj
 0001:00024e30       ?_Delete_this@?$_Ref_count_obj2@VDeadWallUnit@@@std@@EAEXXZ 00425e30 f i DeadWallSpawner.obj
 0001:00024e80       ?_Destroy@?$_Ref_count_obj2@VDeadWallUnit@@@std@@EAEXXZ 00425e80 f i DeadWallSpawner.obj
 0001:00024ea0       ?_Destroy@?$vector@V?$shared_ptr@VDeadWallUnit@@@std@@V?$allocator@V?$shared_ptr@VDeadWallUnit@@@std@@@2@@std@@AAEXPAV?$shared_ptr@VDeadWallUnit@@@2@0@Z 00425ea0 f i DeadWallSpawner.obj
 0001:00024ed0       ?_Get_first@?$_Compressed_pair@V?$allocator@V?$shared_ptr@VDeadWallUnit@@@std@@@std@@V?$_Vector_val@U?$_Simple_types@V?$shared_ptr@VDeadWallUnit@@@std@@@std@@@2@$00@std@@QAEAAV?$allocator@V?$shared_ptr@VDeadWallUnit@@@std@@@2@XZ 00425ed0 f i DeadWallSpawner.obj
 0001:00024ef0       ?_Get_first@?$_Compressed_pair@V?$allocator@V?$shared_ptr@VDeadWallUnit@@@std@@@std@@V?$_Vector_val@U?$_Simple_types@V?$shared_ptr@VDeadWallUnit@@@std@@@std@@@2@$00@std@@QBEABV?$allocator@V?$shared_ptr@VDeadWallUnit@@@std@@@2@XZ 00425ef0 f i DeadWallSpawner.obj
 0001:00024f10       ?_Getal@?$vector@V?$shared_ptr@VDeadWallUnit@@@std@@V?$allocator@V?$shared_ptr@VDeadWallUnit@@@std@@@2@@std@@AAEAAV?$allocator@V?$shared_ptr@VDeadWallUnit@@@std@@@2@XZ 00425f10 f i DeadWallSpawner.obj
 0001:00024f30       ?_Getal@?$vector@V?$shared_ptr@VDeadWallUnit@@@std@@V?$allocator@V?$shared_ptr@VDeadWallUnit@@@std@@@2@@std@@ABEABV?$allocator@V?$shared_ptr@VDeadWallUnit@@@std@@@2@XZ 00425f30 f i DeadWallSpawner.obj
 0001:00024f50       ?_Incref@?$_Ptr_base@VDeadWallUnit@@@std@@IBEXXZ 00425f50 f i DeadWallSpawner.obj
 0001:00024f80       ?_Orphan_range@?$vector@V?$shared_ptr@VDeadWallUnit@@@std@@V?$allocator@V?$shared_ptr@VDeadWallUnit@@@std@@@2@@std@@ABEXPAV?$shared_ptr@VDeadWallUnit@@@2@0@Z 00425f80 f i DeadWallSpawner.obj
 0001:00025020       ?_Release@?$_Uninitialized_backout_al@V?$allocator@V?$shared_ptr@VDeadWallUnit@@@std@@@std@@@std@@QAEPAV?$shared_ptr@VDeadWallUnit@@@2@XZ 00426020 f i DeadWallSpawner.obj
 0001:00025050       ?_Tidy@?$vector@V?$shared_ptr@VDeadWallUnit@@@std@@V?$allocator@V?$shared_ptr@VDeadWallUnit@@@std@@@2@@std@@AAEXXZ 00426050 f i DeadWallSpawner.obj
 0001:00025140       ?_Umove@?$vector@V?$shared_ptr@VDeadWallUnit@@@std@@V?$allocator@V?$shared_ptr@VDeadWallUnit@@@std@@@2@@std@@AAEPAV?$shared_ptr@VDeadWallUnit@@@2@PAV32@00@Z 00426140 f i DeadWallSpawner.obj
 0001:00025180       ?_Umove_if_noexcept1@?$vector@V?$shared_ptr@VDeadWallUnit@@@std@@V?$allocator@V?$shared_ptr@VDeadWallUnit@@@std@@@2@@std@@AAEXPAV?$shared_ptr@VDeadWallUnit@@@2@00U?$integral_constant@_N$00@2@@Z 00426180 f i DeadWallSpawner.obj
 0001:000251c0       ?_Umove_if_noexcept@?$vector@V?$shared_ptr@VDeadWallUnit@@@std@@V?$allocator@V?$shared_ptr@VDeadWallUnit@@@std@@@2@@std@@AAEXPAV?$shared_ptr@VDeadWallUnit@@@2@00@Z 004261c0 f i DeadWallSpawner.obj
 0001:00025200       ?_Xlength@?$vector@V?$shared_ptr@VDeadWallUnit@@@std@@V?$allocator@V?$shared_ptr@VDeadWallUnit@@@std@@@2@@std@@CAXXZ 00426200 f i DeadWallSpawner.obj
 0001:00025220       ?allocate@?$allocator@V?$shared_ptr@VDeadWallUnit@@@std@@@std@@QAEPAV?$shared_ptr@VDeadWallUnit@@@2@I@Z 00426220 f i DeadWallSpawner.obj
 0001:00025250       ?capacity@?$vector@V?$shared_ptr@VDeadWallUnit@@@std@@V?$allocator@V?$shared_ptr@VDeadWallUnit@@@std@@@2@@std@@QBEIXZ 00426250 f i DeadWallSpawner.obj
 0001:00025280       ?checkCircles@CollisionDetection@@SA_NHHHHH@Z 00426280 f i DeadWallSpawner.obj
 0001:000252e0       ?deallocate@?$allocator@V?$shared_ptr@VDeadWallUnit@@@std@@@std@@QAEXQAV?$shared_ptr@VDeadWallUnit@@@2@I@Z 004262e0 f i DeadWallSpawner.obj
 0001:00025310       ?get@?$_Ptr_base@VDeadWallUnit@@@std@@IBEPAVDeadWallUnit@@XZ 00426310 f i DeadWallSpawner.obj
 0001:00025330       ?max_size@?$_Default_allocator_traits@V?$allocator@V?$shared_ptr@VDeadWallUnit@@@std@@@std@@@std@@SAIABV?$allocator@V?$shared_ptr@VDeadWallUnit@@@std@@@2@@Z 00426330 f i DeadWallSpawner.obj
 0001:00025340       ?max_size@?$vector@V?$shared_ptr@VDeadWallUnit@@@std@@V?$allocator@V?$shared_ptr@VDeadWallUnit@@@std@@@2@@std@@QBEIXZ 00426340 f i DeadWallSpawner.obj
 0001:00025390       ?push_back@?$vector@V?$shared_ptr@VDeadWallUnit@@@std@@V?$allocator@V?$shared_ptr@VDeadWallUnit@@@std@@@2@@std@@QAEXABV?$shared_ptr@VDeadWallUnit@@@2@@Z 00426390 f i DeadWallSpawner.obj
 0001:000253b0       ?size@?$vector@V?$shared_ptr@VDeadWallUnit@@@std@@V?$allocator@V?$shared_ptr@VDeadWallUnit@@@std@@@2@@std@@QBEIXZ 004263b0 f i DeadWallSpawner.obj
 0001:000253e0       ?getAttackPosition@DeadWallUnit@@QAEABUVec2@@HH@Z 004263e0 f   DeadWallUnit.obj
 0001:00025630       ??HVec2@@QBE?AU0@ABU0@@Z   00426630 f i DeadWallUnit.obj
 0001:00025670       ?enableDebug@GameScene@@QAEXXZ 00426670 f   debugPanel.obj
 0001:00025c00       ?getCurrentMouseX@BaseEngine@@QBEHXZ 00426c00 f i debugPanel.obj
 0001:00025c20       ?getCurrentMouseY@BaseEngine@@QBEHXZ 00426c20 f i debugPanel.obj
 0001:00025c40       ?getLivingGalloNum@EnemySpawner@@QBEHXZ 00426c40 f i debugPanel.obj
 0001:00025c60       ?getRawTime@BaseEngine@@QBEHXZ 00426c60 f i debugPanel.obj
 0001:00025c80       ?getScreenX@GameCamera@@QAEHH@Z 00426c80 f i debugPanel.obj
 0001:00025cb0       ?getScreenY@GameCamera@@QAEHH@Z 00426cb0 f i debugPanel.obj
 0001:00025ce0       __vsnprintf_l              00426ce0 f i debugPanel.obj
 0001:00025d50       __vsprintf_l               00426d50 f i debugPanel.obj
 0001:00025d80       _sprintf                   00426d80 f i debugPanel.obj
 0001:00025dc0       ??0DiscardButtion@@IAE@HHHH@Z 00426dc0 f   DiscardButtion.obj
 0001:00025e80       ?getInstance@DiscardButtion@@SAPAV1@XZ 00426e80 f   DiscardButtion.obj
 0001:00025f20       ??1DiscardButtion@@UAE@XZ  00426f20 f   DiscardButtion.obj
 0001:00025f50       ?virtStart@DiscardButtion@@UAEXXZ 00426f50 f   DiscardButtion.obj
 0001:00026150       ?virtDraw@DiscardButtion@@UAEXXZ 00427150 f   DiscardButtion.obj
 0001:00026240       ?virtDoUpdate@DiscardButtion@@UAEXH@Z 00427240 f   DiscardButtion.obj
 0001:00026270       ?onClick@DiscardButtion@@UAEXXZ 00427270 f   DiscardButtion.obj
 0001:00026290       ?drawSprite@DiscardButtion@@UAEXXZ 00427290 f   DiscardButtion.obj
 0001:000264a0       ??_EDiscardButtion@@UAEPAXI@Z 004274a0 f i DiscardButtion.obj
 0001:000264a0       ??_GDiscardButtion@@UAEPAXI@Z 004274a0 f i DiscardButtion.obj
 0001:000264e0       ?virtSetupBackgroundBuffer@DraggingDemo@@UAEXXZ 004274e0 f   DraggingDemo.obj
 0001:00026620       ?virtInitialiseObjects@DraggingDemo@@UAEHXZ 00427620 f   DraggingDemo.obj
 0001:00026870       ?virtKeyDown@DraggingDemo@@UAEXH@Z 00427870 f   DraggingDemo.obj
 0001:00026990       ??$_Copy_memmove@PAPAVDisplayableObject@@PAPAV1@@std@@YAPAPAVDisplayableObject@@PAPAV1@00@Z 00427990 f i DraggingDemo.obj
 0001:000269e0       ??$_Destroy_range@V?$allocator@PAVDisplayableObject@@@std@@@std@@YAXPAPAVDisplayableObject@@QAPAV1@AAV?$allocator@PAVDisplayableObject@@@0@@Z 004279e0 f i DraggingDemo.obj
 0001:000269f0       ??$_Get_unwrapped@ABQAPAVDisplayableObject@@@std@@YA@ABQAPAVDisplayableObject@@@Z 004279f0 f i DraggingDemo.obj
 0001:00026a00       ??$_Resize@U_Value_init_tag@std@@@?$vector@PAVDisplayableObject@@V?$allocator@PAVDisplayableObject@@@std@@@std@@AAEXIABU_Value_init_tag@1@@Z 00427a00 f i DraggingDemo.obj
 0001:00026b20       ??$_Resize_reallocate@U_Value_init_tag@std@@@?$vector@PAVDisplayableObject@@V?$allocator@PAVDisplayableObject@@@std@@@std@@AAEXIABU_Value_init_tag@1@@Z 00427b20 f i DraggingDemo.obj
 0001:00026cd0       ??$_Unfancy@PAVDisplayableObject@@@std@@YAPAPAVDisplayableObject@@PAPAV1@@Z 00427cd0 f i DraggingDemo.obj
 0001:00026ce0       ??$_Uninitialized_move@PAPAVDisplayableObject@@V?$allocator@PAVDisplayableObject@@@std@@@std@@YAPAPAVDisplayableObject@@QAPAV1@0PAPAV1@AAV?$allocator@PAVDisplayableObject@@@0@@Z 00427ce0 f i DraggingDemo.obj
 0001:00026d50       ??$_Uninitialized_value_construct_n@V?$allocator@PAVDisplayableObject@@@std@@@std@@YAPAPAVDisplayableObject@@PAPAV1@IAAV?$allocator@PAVDisplayableObject@@@0@@Z 00427d50 f i DraggingDemo.obj
 0001:00026da0       ??$_Zero_range@PAPAVDisplayableObject@@@std@@YAPAPAVDisplayableObject@@QAPAV1@0@Z 00427da0 f i DraggingDemo.obj
 0001:00026de0       ??0DragableBaseClassObject@@QAE@HHPAVBaseEngine@@HH_N@Z 00427de0 f i DraggingDemo.obj
 0001:00026e70       ??0DragableBaseClassObject@@QAE@PAVBaseEngine@@HH_N@Z 00427e70 f i DraggingDemo.obj
 0001:00026ef0       ??0DragableImageObject@@QAE@HHPAVBaseEngine@@V?$basic_string@DU?$char_traits@D@std@@V?$allocator@D@2@@std@@_N2@Z 00427ef0 f i DraggingDemo.obj
 0001:00027090       ??0DragableObject@@QAE@HHPAVBaseEngine@@HH_N1@Z 00428090 f i DraggingDemo.obj
 0001:00027140       ??0DragableObject@@QAE@PAVBaseEngine@@HH_N1@Z 00428140 f i DraggingDemo.obj
 0001:000271f0       ??0ImageObject@@QAE@HHPAVBaseEngine@@V?$basic_string@DU?$char_traits@D@std@@V?$allocator@D@2@@std@@_N2@Z 004281f0 f i DraggingDemo.obj
 0001:00027380       ??1DragableBaseClassObject@@UAE@XZ 00428380 f i DraggingDemo.obj
 0001:000273a0       ??1DragableImageObject@@UAE@XZ 004283a0 f i DraggingDemo.obj
 0001:000273d0       ??1DragableObject@@UAE@XZ  004283d0 f i DraggingDemo.obj
 0001:000273f0       ??1ImageObject@@UAE@XZ     004283f0 f i DraggingDemo.obj
 0001:00027420       ??A?$vector@PAVDisplayableObject@@V?$allocator@PAVDisplayableObject@@@std@@@std@@QAEAAPAVDisplayableObject@@I@Z 00428420 f i DraggingDemo.obj
 0001:000274d0       ??_GDragableBaseClassObject@@UAEPAXI@Z 004284d0 f i DraggingDemo.obj
 0001:000274d0       ??_EDragableBaseClassObject@@UAEPAXI@Z 004284d0 f i DraggingDemo.obj
 0001:00027510       ??_EDragableImageObject@@UAEPAXI@Z 00428510 f i DraggingDemo.obj
 0001:00027510       ??_GDragableImageObject@@UAEPAXI@Z 00428510 f i DraggingDemo.obj
 0001:00027550       ??_EDragableObject@@UAEPAXI@Z 00428550 f i DraggingDemo.obj
 0001:00027550       ??_GDragableObject@@UAEPAXI@Z 00428550 f i DraggingDemo.obj
 0001:00027590       ??_EImageObject@@UAEPAXI@Z 00428590 f i DraggingDemo.obj
 0001:00027590       ??_GImageObject@@UAEPAXI@Z 00428590 f i DraggingDemo.obj
 0001:000275d0       ?_Calculate_growth@?$vector@PAVDisplayableObject@@V?$allocator@PAVDisplayableObject@@@std@@@std@@ABEII@Z 004285d0 f i DraggingDemo.obj
 0001:00027640       ?_Change_array@?$vector@PAVDisplayableObject@@V?$allocator@PAVDisplayableObject@@@std@@@std@@AAEXQAPAVDisplayableObject@@II@Z 00428640 f i DraggingDemo.obj
 0001:00027710       ?_Destroy@?$vector@PAVDisplayableObject@@V?$allocator@PAVDisplayableObject@@@std@@@std@@AAEXPAPAVDisplayableObject@@0@Z 00428710 f i DraggingDemo.obj
 0001:00027740       ?_Get_first@?$_Compressed_pair@V?$allocator@PAVDisplayableObject@@@std@@V?$_Vector_val@U?$_Simple_types@PAVDisplayableObject@@@std@@@2@$00@std@@QAEAAV?$allocator@PAVDisplayableObject@@@2@XZ 00428740 f i DraggingDemo.obj
 0001:00027760       ?_Get_first@?$_Compressed_pair@V?$allocator@PAVDisplayableObject@@@std@@V?$_Vector_val@U?$_Simple_types@PAVDisplayableObject@@@std@@@2@$00@std@@QBEABV?$allocator@PAVDisplayableObject@@@2@XZ 00428760 f i DraggingDemo.obj
 0001:00027780       ?_Getal@?$vector@PAVDisplayableObject@@V?$allocator@PAVDisplayableObject@@@std@@@std@@AAEAAV?$allocator@PAVDisplayableObject@@@2@XZ 00428780 f i DraggingDemo.obj
 0001:000277a0       ?_Getal@?$vector@PAVDisplayableObject@@V?$allocator@PAVDisplayableObject@@@std@@@std@@ABEABV?$allocator@PAVDisplayableObject@@@2@XZ 004287a0 f i DraggingDemo.obj
 0001:000277c0       ?_Orphan_range@?$vector@PAVDisplayableObject@@V?$allocator@PAVDisplayableObject@@@std@@@std@@ABEXPAPAVDisplayableObject@@0@Z 004287c0 f i DraggingDemo.obj
 0001:00027860       ?_Ufill@?$vector@PAVDisplayableObject@@V?$allocator@PAVDisplayableObject@@@std@@@std@@AAEPAPAVDisplayableObject@@PAPAV3@IU_Value_init_tag@2@@Z 00428860 f i DraggingDemo.obj
 0001:00027890       ?_Umove_if_noexcept1@?$vector@PAVDisplayableObject@@V?$allocator@PAVDisplayableObject@@@std@@@std@@AAEXPAPAVDisplayableObject@@00U?$integral_constant@_N$00@2@@Z 00428890 f i DraggingDemo.obj
 0001:000278d0       ?_Umove_if_noexcept@?$vector@PAVDisplayableObject@@V?$allocator@PAVDisplayableObject@@@std@@@std@@AAEXPAPAVDisplayableObject@@00@Z 004288d0 f i DraggingDemo.obj
 0001:00027910       ?_Xlength@?$vector@PAVDisplayableObject@@V?$allocator@PAVDisplayableObject@@@std@@@std@@CAXXZ 00428910 f i DraggingDemo.obj
 0001:00027930       ?allocate@?$allocator@PAVDisplayableObject@@@std@@QAEPAPAVDisplayableObject@@I@Z 00428930 f i DraggingDemo.obj
 0001:00027960       ?capacity@?$vector@PAVDisplayableObject@@V?$allocator@PAVDisplayableObject@@@std@@@std@@QBEIXZ 00428960 f i DraggingDemo.obj
 0001:00027990       ?checkDoDrag@DragableBaseClassObject@@UAEXHH@Z 00428990 f i DraggingDemo.obj
 0001:00027a10       ?checkFinishDrag@DragableBaseClassObject@@UAEXHH@Z 00428a10 f i DraggingDemo.obj
 0001:00027a50       ?checkStartDrag@DragableBaseClassObject@@UAEXHH@Z 00428a50 f i DraggingDemo.obj
 0001:00027ad0       ?checkWritable@DrawingSurface@@QAEXXZ 00428ad0 f i DraggingDemo.obj
 0001:00027b20       ?createObjectArray@DisplayableObjectContainer@@QAEXH@Z 00428b20 f i DraggingDemo.obj
 0001:00027b70       ?deallocate@?$allocator@PAVDisplayableObject@@@std@@QAEXQAPAVDisplayableObject@@I@Z 00428b70 f i DraggingDemo.obj
 0001:00027ba0       ?doDragRedraw@DragableBaseClassObject@@UAEXXZ 00428ba0 f i DraggingDemo.obj
 0001:00027bc0       ?drawableObjectsChanged@DisplayableObjectContainer@@QAEXXZ 00428bc0 f i DraggingDemo.obj
 0001:00027be0       ?getEngine@DisplayableObject@@QBEPAVBaseEngine@@XZ 00428be0 f i DraggingDemo.obj
 0001:00027c00       ?getWindowHeight@BaseEngine@@QBEHXZ 00428c00 f i DraggingDemo.obj
 0001:00027c20       ?getWindowWidth@BaseEngine@@QBEHXZ 00428c20 f i DraggingDemo.obj
 0001:00027c40       ?max_size@?$_Default_allocator_traits@V?$allocator@PAVDisplayableObject@@@std@@@std@@SAIABV?$allocator@PAVDisplayableObject@@@2@@Z 00428c40 f i DraggingDemo.obj
 0001:00027c50       ?max_size@?$vector@PAVDisplayableObject@@V?$allocator@PAVDisplayableObject@@@std@@@std@@QBEIXZ 00428c50 f i DraggingDemo.obj
 0001:00027ca0       ?notifyObjectsAboutMouse@BaseEngine@@QAEX_N@Z 00428ca0 f i DraggingDemo.obj
 0001:00027cc0       ?rawSetPixel@DrawingSurface@@QAEXHHI@Z 00428cc0 f i DraggingDemo.obj
 0001:00027d70       ?resize@?$vector@PAVDisplayableObject@@V?$allocator@PAVDisplayableObject@@@std@@@std@@QAEXI@Z 00428d70 f i DraggingDemo.obj
 0001:00027da0       ?setBackgroundPixel@BaseEngine@@QAEXHHI@Z 00428da0 f i DraggingDemo.obj
 0001:00027dd0       ?setExitWithCode@BaseEngine@@QAEXH@Z 00428dd0 f i DraggingDemo.obj
 0001:00027df0       ?setPixel@DrawingSurface@@QAEXHHI@Z 00428df0 f i DraggingDemo.obj
 0001:00027e60       ?storeObjectInArray@DisplayableObjectContainer@@QAEXHPAVDisplayableObject@@@Z 00428e60 f i DraggingDemo.obj
 0001:00027ea0       ?virtDraw@DragableImageObject@@UAEXXZ 00428ea0 f i DraggingDemo.obj
 0001:00027f20       ?virtDraw@ImageObject@@UAEXXZ 00428f20 f i DraggingDemo.obj
 0001:00027fa0       ?virtMouseDown@DragableImageObject@@UAEXHHH@Z 00428fa0 f i DraggingDemo.obj
 0001:00027fd0       ?virtMouseDown@DragableObject@@UAEXHHH@Z 00428fd0 f i DraggingDemo.obj
 0001:00028000       ?virtMouseMoved@DragableImageObject@@UAEXHH@Z 00429000 f i DraggingDemo.obj
 0001:00028030       ?virtMouseMoved@DragableObject@@UAEXHH@Z 00429030 f i DraggingDemo.obj
 0001:00028060       ?virtMouseUp@DragableImageObject@@UAEXHHH@Z 00429060 f i DraggingDemo.obj
 0001:00028090       ?virtMouseUp@DragableObject@@UAEXHHH@Z 00429090 f i DraggingDemo.obj
 0001:000280d0       ??0DrawingSurface@@QAE@PAVBaseEngine@@@Z 004290d0 f   DrawingSurface.obj
 0001:00028170       ?drawLine@DrawingSurface@@QAEXNNNNI@Z 00429170 f   DrawingSurface.obj
 0001:00028350       ?drawThickLine@DrawingSurface@@QAEXNNNNIH@Z 00429350 f   DrawingSurface.obj
 0001:000287f0       ?drawVerticalSidedRegion@DrawingSurface@@QAEXNNNNNNI@Z 004297f0 f   DrawingSurface.obj
 0001:00028b90       ?drawRectangle@DrawingSurface@@QAEXHHHHI@Z 00429b90 f   DrawingSurface.obj
 0001:00028ca0       ?drawOval@DrawingSurface@@QAEXHHHHI@Z 00429ca0 f   DrawingSurface.obj
 0001:00028e70       ?rawDrawOval@DrawingSurface@@QAEXHHHHI@Z 00429e70 f   DrawingSurface.obj
 0001:00028fd0       ?drawHollowOval@DrawingSurface@@QAEXHHHHHHHHI@Z 00429fd0 f   DrawingSurface.obj
 0001:000292f0       ?drawPolygon@DrawingSurface@@QAEXHPAN0I@Z 0042a2f0 f   DrawingSurface.obj
 0001:00029a70       ?drawFastString@DrawingSurface@@QAEXHHPBDIPAVFont@@@Z 0042aa70 f   DrawingSurface.obj
 0001:00029b60       ?drawScalableString@DrawingSurface@@QAEXHHPBDIPAVFont@@@Z 0042ab60 f   DrawingSurface.obj
 0001:00029d30       ?drawShortenedArrow@DrawingSurface@@QAEXHHHHHHIHH@Z 0042ad30 f   DrawingSurface.obj
 0001:0002a2b0       ?drawShortenedLine@DrawingSurface@@QAEXHHHHHHIH@Z 0042b2b0 f   DrawingSurface.obj
 0001:0002a6b0       ?drawTriangle@DrawingSurface@@QAEXNNNNNNI@Z 0042b6b0 f   DrawingSurface.obj
 0001:0002aa00       ?copyEntireSurface@DrawingSurface@@QAEXPAV1@@Z 0042ba00 f   DrawingSurface.obj
 0001:0002aa50       ?copyRectangleFrom@DrawingSurface@@QAEXPAV1@HHHHHH@Z 0042ba50 f   DrawingSurface.obj
 0001:0002ac50       ?getAngle@DrawingSurface@@SANNNNN@Z 0042bc50 f   DrawingSurface.obj
 0001:0002acf0       ?getVirtualRedrawMinX@DrawingSurface@@QAEHXZ 0042bcf0 f   DrawingSurface.obj
 0001:0002ad40       ?getVirtualRedrawMinY@DrawingSurface@@QAEHXZ 0042bd40 f   DrawingSurface.obj
 0001:0002ad90       ?getVirtualRedrawMaxX@DrawingSurface@@QAEHXZ 0042bd90 f   DrawingSurface.obj
 0001:0002adf0       ?getVirtualRedrawMaxY@DrawingSurface@@QAEHXZ 0042bdf0 f   DrawingSurface.obj
 0001:0002ae50       ?getRealRedrawMinX@DrawingSurface@@QAEHXZ 0042be50 f   DrawingSurface.obj
 0001:0002aea0       ?getRealRedrawMinY@DrawingSurface@@QAEHXZ 0042bea0 f   DrawingSurface.obj
 0001:0002aef0       ?getRealRedrawMaxX@DrawingSurface@@QAEHXZ 0042bef0 f   DrawingSurface.obj
 0001:0002af40       ?getRealRedrawMaxY@DrawingSurface@@QAEHXZ 0042bf40 f   DrawingSurface.obj
 0001:0002bb40       ??$move@AAH@std@@YA$$QAHAAH@Z 0042cb40 f i DrawingSurface.obj
 0001:0002bb50       ??$move@AAN@std@@YA$$QANAAN@Z 0042cb50 f i DrawingSurface.obj
 0001:0002bb60       ??$swap@H$0A@@std@@YAXAAH0@Z 0042cb60 f i DrawingSurface.obj
 0001:0002bbb0       ??$swap@N$0A@@std@@YAXAAN0@Z 0042cbb0 f i DrawingSurface.obj
 0001:0002bc10       ?checkBlitable@DrawingSurface@@QAEXXZ 0042cc10 f i DrawingSurface.obj
 0001:0002bc60       ?convertRealToVirtualXPosition@DrawingSurface@@QAEHH@Z 0042cc60 f i DrawingSurface.obj
 0001:0002bca0       ?convertRealToVirtualYPosition@DrawingSurface@@QAEHH@Z 0042cca0 f i DrawingSurface.obj
 0001:0002bce0       ?getDefaultFont@BaseEngine@@QBEPAVFont@@XZ 0042cce0 f i DrawingSurface.obj
 0001:0002bd00       ?getRedrawAllScreen@BaseEngine@@QAEHXZ 0042cd00 f i DrawingSurface.obj
 0001:0002bd20       ?getRedrawRectRealBottom@BaseEngine@@QAEHXZ 0042cd20 f i DrawingSurface.obj
 0001:0002bd40       ?getRedrawRectRealLeft@BaseEngine@@QAEHXZ 0042cd40 f i DrawingSurface.obj
 0001:0002bd60       ?getRedrawRectRealRight@BaseEngine@@QAEHXZ 0042cd60 f i DrawingSurface.obj
 0001:0002bd80       ?getRedrawRectRealTop@BaseEngine@@QAEHXZ 0042cd80 f i DrawingSurface.obj
 0001:0002bda0       ?getRedrawRectVirtualBottom@BaseEngine@@QAEHXZ 0042cda0 f i DrawingSurface.obj
 0001:0002bdc0       ?getRedrawRectVirtualLeft@BaseEngine@@QAEHXZ 0042cdc0 f i DrawingSurface.obj
 0001:0002bde0       ?getRedrawRectVirtualRight@BaseEngine@@QAEHXZ 0042cde0 f i DrawingSurface.obj
 0001:0002be00       ?getRedrawRectVirtualTop@BaseEngine@@QAEHXZ 0042ce00 f i DrawingSurface.obj
 0001:0002be20       ?getTTFFont@Font@@QAEPAU_TTF_Font@@XZ 0042ce20 f i DrawingSurface.obj
 0001:0002be40       ?mySDLTempRelockSurface@DrawingSurface@@QAEXXZ 0042ce40 f i DrawingSurface.obj
 0001:0002be90       ?mySDLTempUnlockSurface@DrawingSurface@@QAEXXZ 0042ce90 f i DrawingSurface.obj
 0001:0002bee0       ?setDrawPointsFilter@DrawingSurface@@QAEXPAVFilterPoints@@@Z 0042cee0 f i DrawingSurface.obj
 0001:0002bf00       ??0EnemySpawner@@IAE@XZ    0042cf00 f   EnemySpawner.obj
 0001:0002c000       ?getInstance@EnemySpawner@@SAPAV1@XZ 0042d000 f   EnemySpawner.obj
 0001:0002c090       ?spawnGallos@EnemySpawner@@QAEXXZ 0042d090 f   EnemySpawner.obj
 0001:0002c190       ?initGalloPosition@EnemySpawner@@QAE?AUVec2@@XZ 0042d190 f   EnemySpawner.obj
 0001:0002c420       ??$?0$$V@?$_Compressed_pair@V?$allocator@PAVGallo@@@std@@V?$_Vector_val@U?$_Simple_types@PAVGallo@@@std@@@2@$00@std@@QAE@U_Zero_then_variadic_args_t@1@@Z 0042d420 f i EnemySpawner.obj
 0001:0002c450       ??$?0PAVGallo@@@?$allocator@U_Container_proxy@std@@@std@@QAE@ABV?$allocator@PAVGallo@@@1@@Z 0042d450 f i EnemySpawner.obj
 0001:0002c470       ??$_Copy_memmove@PAPAVGallo@@PAPAV1@@std@@YAPAPAVGallo@@PAPAV1@00@Z 0042d470 f i EnemySpawner.obj
 0001:0002c4c0       ??$_Destroy_range@V?$allocator@PAVGallo@@@std@@@std@@YAXPAPAVGallo@@QAPAV1@AAV?$allocator@PAVGallo@@@0@@Z 0042d4c0 f i EnemySpawner.obj
 0001:0002c4d0       ??$_Emplace_back_with_unused_capacity@PAVGallo@@@?$vector@PAVGallo@@V?$allocator@PAVGallo@@@std@@@std@@AAE@$$QAPAVGallo@@@Z 0042d4d0 f i EnemySpawner.obj
 0001:0002c570       ??$_Emplace_reallocate@PAVGallo@@@?$vector@PAVGallo@@V?$allocator@PAVGallo@@@std@@@std@@QAEPAPAVGallo@@QAPAV2@$$QAPAV2@@Z 0042d570 f i EnemySpawner.obj
 0001:0002c7c0       ??$_Get_unwrapped@ABQAPAVGallo@@@std@@YA@ABQAPAVGallo@@@Z 0042d7c0 f i EnemySpawner.obj
 0001:0002c7d0       ??$_Unfancy@PAVGallo@@@std@@YAPAPAVGallo@@PAPAV1@@Z 0042d7d0 f i EnemySpawner.obj
 0001:0002c7e0       ??$_Uninitialized_move@PAPAVGallo@@V?$allocator@PAVGallo@@@std@@@std@@YAPAPAVGallo@@QAPAV1@0PAPAV1@AAV?$allocator@PAVGallo@@@0@@Z 0042d7e0 f i EnemySpawner.obj
 0001:0002c850       ??$construct@PAVGallo@@PAV1@@?$_Default_allocator_traits@V?$allocator@PAVGallo@@@std@@@std@@SAXAAV?$allocator@PAVGallo@@@1@QAPAVGallo@@$$QAPAV3@@Z 0042d850 f i EnemySpawner.obj
 0001:0002c890       ??$emplace_back@PAVGallo@@@?$vector@PAVGallo@@V?$allocator@PAVGallo@@@std@@@std@@QAE@$$QAPAVGallo@@@Z 0042d890 f i EnemySpawner.obj
 0001:0002c910       ??$forward@PAVGallo@@@std@@YA$$QAPAVGallo@@AAPAV1@@Z 0042d910 f i EnemySpawner.obj
 0001:0002c920       ??$move@AAPAVGallo@@@std@@YA$$QAPAVGallo@@AAPAV1@@Z 0042d920 f i EnemySpawner.obj
 0001:0002c930       ??0?$_Vector_val@U?$_Simple_types@PAVGallo@@@std@@@std@@QAE@XZ 0042d930 f i EnemySpawner.obj
 0001:0002c980       ??0?$allocator@PAVGallo@@@std@@QAE@XZ 0042d980 f i EnemySpawner.obj
 0001:0002c9a0       ??0?$vector@PAVGallo@@V?$allocator@PAVGallo@@@std@@@std@@QAE@XZ 0042d9a0 f i EnemySpawner.obj
 0001:0002ca20       ??1?$vector@PAVGallo@@V?$allocator@PAVGallo@@@std@@@std@@QAE@XZ 0042da20 f i EnemySpawner.obj
 0001:0002ca90       ?_Calculate_growth@?$vector@PAVGallo@@V?$allocator@PAVGallo@@@std@@@std@@ABEII@Z 0042da90 f i EnemySpawner.obj
 0001:0002cb00       ?_Change_array@?$vector@PAVGallo@@V?$allocator@PAVGallo@@@std@@@std@@AAEXQAPAVGallo@@II@Z 0042db00 f i EnemySpawner.obj
 0001:0002cbd0       ?_Destroy@?$vector@PAVGallo@@V?$allocator@PAVGallo@@@std@@@std@@AAEXPAPAVGallo@@0@Z 0042dbd0 f i EnemySpawner.obj
 0001:0002cc00       ?_Get_first@?$_Compressed_pair@V?$allocator@PAVGallo@@@std@@V?$_Vector_val@U?$_Simple_types@PAVGallo@@@std@@@2@$00@std@@QAEAAV?$allocator@PAVGallo@@@2@XZ 0042dc00 f i EnemySpawner.obj
 0001:0002cc20       ?_Get_first@?$_Compressed_pair@V?$allocator@PAVGallo@@@std@@V?$_Vector_val@U?$_Simple_types@PAVGallo@@@std@@@2@$00@std@@QBEABV?$allocator@PAVGallo@@@2@XZ 0042dc20 f i EnemySpawner.obj
 0001:0002cc40       ?_Getal@?$vector@PAVGallo@@V?$allocator@PAVGallo@@@std@@@std@@AAEAAV?$allocator@PAVGallo@@@2@XZ 0042dc40 f i EnemySpawner.obj
 0001:0002cc60       ?_Getal@?$vector@PAVGallo@@V?$allocator@PAVGallo@@@std@@@std@@ABEABV?$allocator@PAVGallo@@@2@XZ 0042dc60 f i EnemySpawner.obj
 0001:0002cc80       ?_Orphan_range@?$vector@PAVGallo@@V?$allocator@PAVGallo@@@std@@@std@@ABEXPAPAVGallo@@0@Z 0042dc80 f i EnemySpawner.obj
 0001:0002cd20       ?_Tidy@?$vector@PAVGallo@@V?$allocator@PAVGallo@@@std@@@std@@AAEXXZ 0042dd20 f i EnemySpawner.obj
 0001:0002ce10       ?_Umove@?$vector@PAVGallo@@V?$allocator@PAVGallo@@@std@@@std@@AAEPAPAVGallo@@PAPAV3@00@Z 0042de10 f i EnemySpawner.obj
 0001:0002ce50       ?_Umove_if_noexcept1@?$vector@PAVGallo@@V?$allocator@PAVGallo@@@std@@@std@@AAEXPAPAVGallo@@00U?$integral_constant@_N$00@2@@Z 0042de50 f i EnemySpawner.obj
 0001:0002ce90       ?_Umove_if_noexcept@?$vector@PAVGallo@@V?$allocator@PAVGallo@@@std@@@std@@AAEXPAPAVGallo@@00@Z 0042de90 f i EnemySpawner.obj
 0001:0002ced0       ?_Unchecked_begin@?$vector@PAVGallo@@V?$allocator@PAVGallo@@@std@@@std@@QAEPAPAVGallo@@XZ 0042ded0 f i EnemySpawner.obj
 0001:0002cef0       ?_Unchecked_end@?$vector@PAVGallo@@V?$allocator@PAVGallo@@@std@@@std@@QAEPAPAVGallo@@XZ 0042def0 f i EnemySpawner.obj
 0001:0002cf10       ?_Xlength@?$vector@PAVGallo@@V?$allocator@PAVGallo@@@std@@@std@@CAXXZ 0042df10 f i EnemySpawner.obj
 0001:0002cf30       ?allocate@?$allocator@PAVGallo@@@std@@QAEPAPAVGallo@@I@Z 0042df30 f i EnemySpawner.obj
 0001:0002cf60       ?capacity@?$vector@PAVGallo@@V?$allocator@PAVGallo@@@std@@@std@@QBEIXZ 0042df60 f i EnemySpawner.obj
 0001:0002cf90       ?deallocate@?$allocator@PAVGallo@@@std@@QAEXQAPAVGallo@@I@Z 0042df90 f i EnemySpawner.obj
 0001:0002cfc0       ?getGalloState@Gallo@@QAE?AW4GalloState@@XZ 0042dfc0 f i EnemySpawner.obj
 0001:0002cfe0       ?max_size@?$_Default_allocator_traits@V?$allocator@PAVGallo@@@std@@@std@@SAIABV?$allocator@PAVGallo@@@2@@Z 0042dfe0 f i EnemySpawner.obj
 0001:0002cff0       ?max_size@?$vector@PAVGallo@@V?$allocator@PAVGallo@@@std@@@std@@QBEIXZ 0042dff0 f i EnemySpawner.obj
 0001:0002d040       ?push_back@?$vector@PAVGallo@@V?$allocator@PAVGallo@@@std@@@std@@QAEX$$QAPAVGallo@@@Z 0042e040 f i EnemySpawner.obj
 0001:0002d070       ??0FlashingDemo@@QAE@XZ    0042e070 f   FlashingDemo.obj
 0001:0002d130       ??1FlashingDemo@@UAE@XZ    0042e130 f   FlashingDemo.obj
 0001:0002d180       ?virtSetupBackgroundBuffer@FlashingDemo@@UAEXXZ 0042e180 f   FlashingDemo.obj
 0001:0002d600       ?virtMainLoopDoBeforeUpdate@FlashingDemo@@UAEXXZ 0042e600 f   FlashingDemo.obj
 0001:0002d6c0       ?virtCreateSurfaces@FlashingDemo@@UAEXXZ 0042e6c0 f   FlashingDemo.obj
 0001:0002d8e0       ??1DrawingSurface@@QAE@XZ  0042e8e0 f i FlashingDemo.obj
 0001:0002d8f0       ??_EFlashingDemo@@UAEPAXI@Z 0042e8f0 f i FlashingDemo.obj
 0001:0002d8f0       ??_GFlashingDemo@@UAEPAXI@Z 0042e8f0 f i FlashingDemo.obj
 0001:0002d930       ?copyAllBackgroundBuffer@BaseEngine@@UAEXXZ 0042e930 f i FlashingDemo.obj
 0001:0002d960       ?copyBackgroundPixels@BaseEngine@@UAEXHHHH@Z 0042e960 f i FlashingDemo.obj
 0001:0002d9b0       ?createSurface@DrawingSurface@@QAEXHH@Z 0042e9b0 f i FlashingDemo.obj
 0001:0002da00       ?destroyOldObjects@DisplayableObjectContainer@@UAEX_N@Z 0042ea00 f i FlashingDemo.obj
 0001:0002daf0       ?fillBackground@BaseEngine@@UAEXI@Z 0042eaf0 f i FlashingDemo.obj
 0001:0002db20       ?fillSurface@DrawingSurface@@QAEXI@Z 0042eb20 f i FlashingDemo.obj
 0001:0002dbb0       ?filter@BaseEngine@@UAE_NPAVDrawingSurface@@AAH1AAI@Z 0042ebb0 f i FlashingDemo.obj
 0001:0002dc70       ?filterConvertRealToVirtualXPosition@FilterPoints@@UAEHH@Z 0042ec70 f i FlashingDemo.obj
 0001:0002dc90       ?filterConvertRealToVirtualYPosition@FilterPoints@@UAEHH@Z 0042ec90 f i FlashingDemo.obj
 0001:0002dcb0       ?filterConvertVirtualToRealXPosition@FilterPoints@@UAEHH@Z 0042ecb0 f i FlashingDemo.obj
 0001:0002dcd0       ?filterConvertVirtualToRealYPosition@FilterPoints@@UAEHH@Z 0042ecd0 f i FlashingDemo.obj
 0001:0002dcf0       ?getModifiedTime@BaseEngine@@UBEHXZ 0042ecf0 f i FlashingDemo.obj
 0001:0002dd30       ?mySDLLockSurface@DrawingSurface@@QAEXXZ 0042ed30 f i FlashingDemo.obj
 0001:0002dd80       ?mySDLUnlockSurface@DrawingSurface@@QAEXXZ 0042ed80 f i FlashingDemo.obj
 0001:0002ddd0       ?redrawDisplay@BaseEngine@@QAEXXZ 0042edd0 f i FlashingDemo.obj
 0001:0002ddf0       ?size@?$vector@PAVDisplayableObject@@V?$allocator@PAVDisplayableObject@@@std@@@std@@QBEIXZ 0042edf0 f i FlashingDemo.obj
 0001:0002de20       ?virtBackgroundMouseDown@BaseEngine@@UAEXHHHHH@Z 0042ee20 f i FlashingDemo.obj
 0001:0002de30       ?virtMainLoopDoAfterUpdate@BaseEngine@@UAEXXZ 0042ee30 f i FlashingDemo.obj
 0001:0002de40       ?virtMainLoopPostUpdate@BaseEngine@@UAEXXZ 0042ee40 f i FlashingDemo.obj
 0001:0002de50       ?virtMainLoopPreUpdate@BaseEngine@@UAEXXZ 0042ee50 f i FlashingDemo.obj
 0001:0002de60       ?virtMainLoopStartIteration@BaseEngine@@UAEXXZ 0042ee60 f i FlashingDemo.obj
 0001:0002de70       ?virtMouseWheel@BaseEngine@@UAEXHHHH@Z 0042ee70 f i FlashingDemo.obj
 0001:0002de80       ?virtPostDraw@BaseEngine@@UAEXXZ 0042ee80 f i FlashingDemo.obj
 0001:0002de90       ?virtPreDraw@BaseEngine@@UAEXXZ 0042ee90 f i FlashingDemo.obj
 0001:0002dea0       ?virtRealMouseDown@BaseEngine@@UAEXHHH@Z 0042eea0 f i FlashingDemo.obj
 0001:0002deb0       ?virtRealMouseUp@BaseEngine@@UAEXHHH@Z 0042eeb0 f i FlashingDemo.obj
 0001:0002dec0       ?virtTouchEvent@BaseEngine@@UAEXHH_J0MMMMM@Z 0042eec0 f i FlashingDemo.obj
 0001:0002ded0       ??0Gallo@@QAE@HHHHH@Z      0042eed0 f   Gallo.obj
 0001:0002dfd0       ?virtDoUpdate@Gallo@@UAEXH@Z 0042efd0 f   Gallo.obj
 0001:0002e1a0       ?onDeath@Gallo@@UAEXXZ     0042f1a0 f   Gallo.obj
 0001:0002e240       ?drawSprite@Gallo@@UAEXXZ  0042f240 f   Gallo.obj
 0001:0002e250       ?wakeUp@Gallo@@QAEXUVec2@@@Z 0042f250 f   Gallo.obj
 0001:0002e2b0       ?wander@Gallo@@QAEXXZ      0042f2b0 f   Gallo.obj
 0001:0002e590       ?chase@Gallo@@QAEXXZ       0042f590 f   Gallo.obj
 0001:0002e750       ?sleep@Gallo@@QAEXXZ       0042f750 f   Gallo.obj
 0001:0002e790       ?attack@Gallo@@QAEXXZ      0042f790 f   Gallo.obj
 0001:0002e7c0       ?takeHit@Gallo@@UAEXH@Z    0042f7c0 f   Gallo.obj
 0001:0002ea40       ??$utils_clamp_g@H@@YAHHHH@Z 0042fa40 f i Gallo.obj
 0001:0002ea90       ??0Damageable@@QAE@XZ      0042fa90 f i Gallo.obj
 0001:0002eab0       ??0LivingEntity@@QAE@HHHHH@Z 0042fab0 f i Gallo.obj
 0001:0002eb80       ??1Damageable@@UAE@XZ      0042fb80 f i Gallo.obj
 0001:0002eba0       ??1Gallo@@UAE@XZ           0042fba0 f i Gallo.obj
 0001:0002ec40       ??1LivingEntity@@UAE@XZ    0042fc40 f i Gallo.obj
 0001:0002ec80       ??GVec2@@QBE?AU0@ABU0@@Z   0042fc80 f i Gallo.obj
 0001:0002ecbc       ??_EGallo@@WEI@AEPAXI@Z    0042fcbc f i Gallo.obj
 0001:0002ecc6       ??_ELivingEntity@@WEI@AEPAXI@Z 0042fcc6 f i Gallo.obj
 0001:0002ecd0       ??_EDamageable@@UAEPAXI@Z  0042fcd0 f i Gallo.obj
 0001:0002ecd0       ??_GDamageable@@UAEPAXI@Z  0042fcd0 f i Gallo.obj
 0001:0002ed10       ??_GGallo@@UAEPAXI@Z       0042fd10 f i Gallo.obj
 0001:0002ed10       ??_EGallo@@UAEPAXI@Z       0042fd10 f i Gallo.obj
 0001:0002ed50       ??_ELivingEntity@@UAEPAXI@Z 0042fd50 f i Gallo.obj
 0001:0002ed50       ??_GLivingEntity@@UAEPAXI@Z 0042fd50 f i Gallo.obj
 0001:0002ed90       ?decrementLivingGallo@EnemySpawner@@QAEXXZ 0042fd90 f i Gallo.obj
 0001:0002edb0       ?die@LivingEntity@@AAEXXZ  0042fdb0 f i Gallo.obj
 0001:0002ede0       ?incrementKilledEnemyNum@GameUI@@QAEXXZ 0042fde0 f i Gallo.obj
 0001:0002ee10       ?isPaused@BaseEngine@@QAE_NXZ 0042fe10 f i Gallo.obj
 0001:0002ee50       ?setPosition@GameObject@@QAEXABUVec2@@@Z 0042fe50 f i Gallo.obj
 0001:0002ee80       ?takeHit@LivingEntity@@UAEXH@Z 0042fe80 f i Gallo.obj
 0001:0002eee0       ?translatePositionBy@GameObject@@QAEXABUVec2@@@Z 0042fee0 f i Gallo.obj
 0001:0002ef20       ?virtNotify@Gallo@@UAEJHHH@Z 0042ff20 f i Gallo.obj
 0001:0002ef40       ?virtDraw@Gallo@@UAEXXZ    0042ff40 f   GalloProceduralAnimation.obj
 0001:0002fd10       ?drawForegroundLine@BaseEngine@@QAEXHHHHI@Z 00430d10 f i GalloProceduralAnimation.obj
 0001:0002fd80       ?drawForegroundOval@BaseEngine@@QAEXHHHHI@Z 00430d80 f i GalloProceduralAnimation.obj
 0001:0002fdc0       ?drawForegroundTriangle@BaseEngine@@QAEXHHHHHHI@Z 00430dc0 f i GalloProceduralAnimation.obj
 0001:0002fe50       ??0GameCamera@@IAE@XZ      00430e50 f   GameCamera.obj
 0001:0002ff00       ?getInstance@GameCamera@@SAPAV1@XZ 00430f00 f   GameCamera.obj
 0001:0002ff90       ??1GameCamera@@QAE@XZ      00430f90 f   GameCamera.obj
 0001:00030090       ?bindCamera@GameCamera@@QAEXXZ 00431090 f   GameCamera.obj
 0001:000300e0       ?follow@GameCamera@@QAEXPAVGameObject@@@Z 004310e0 f   GameCamera.obj
 0001:00030350       ?getOffset@GameCamera@@QAE?AUVec2@@XZ 00431350 f   GameCamera.obj
 0001:00030370       ?getCameraPosition@GameCamera@@QAE?AUVec2@@XZ 00431370 f   GameCamera.obj
 0001:000304f0       ??0FilterPoints@@QAE@XZ    004314f0 f i GameCamera.obj
 0001:00030510       ??0FilterPointsScaling@@QAE@HHPAVFilterPoints@@@Z 00431510 f i GameCamera.obj
 0001:00030590       ??0FilterPointsTranslation@@QAE@HHPAVFilterPoints@@@Z 00431590 f i GameCamera.obj
 0001:000305e0       ?addBoundsCheck@DrawingSurface@@QAEXHHHH@Z 004315e0 f i GameCamera.obj
 0001:00030630       ?filter@FilterPointsScaling@@UAE_NPAVDrawingSurface@@AAH1AAI@Z 00431630 f i GameCamera.obj
 0001:00030670       ?filter@FilterPointsTranslation@@UAE_NPAVDrawingSurface@@AAH1AAI@Z 00431670 f i GameCamera.obj
 0001:00030710       ?filterConvertRealToVirtualXPosition@FilterPointsScaling@@UAEHH@Z 00431710 f i GameCamera.obj
 0001:00030780       ?filterConvertRealToVirtualXPosition@FilterPointsTranslation@@UAEHH@Z 00431780 f i GameCamera.obj
 0001:000307d0       ?filterConvertRealToVirtualYPosition@FilterPointsScaling@@UAEHH@Z 004317d0 f i GameCamera.obj
 0001:00030840       ?filterConvertRealToVirtualYPosition@FilterPointsTranslation@@UAEHH@Z 00431840 f i GameCamera.obj
 0001:00030890       ?filterConvertVirtualToRealXPosition@FilterPointsScaling@@UAEHH@Z 00431890 f i GameCamera.obj
 0001:00030940       ?filterConvertVirtualToRealXPosition@FilterPointsTranslation@@UAEHH@Z 00431940 f i GameCamera.obj
 0001:00030990       ?filterConvertVirtualToRealYPosition@FilterPointsScaling@@UAEHH@Z 00431990 f i GameCamera.obj
 0001:00030a40       ?filterConvertVirtualToRealYPosition@FilterPointsTranslation@@UAEHH@Z 00431a40 f i GameCamera.obj
 0001:00030a90       ?getBackgroundSurface@BaseEngine@@QAEPAVDrawingSurface@@XZ 00431a90 f i GameCamera.obj
 0001:00030ab0       ?getMapHeight@TileManager@@QBEHXZ 00431ab0 f i GameCamera.obj
 0001:00030ad0       ?getMapWidth@TileManager@@QBEHXZ 00431ad0 f i GameCamera.obj
 0001:00030af0       ?handleXthenY@FilterPointsScaling@@AAEXPAVDrawingSurface@@HHAAI@Z 00431af0 f i GameCamera.obj
 0001:00030ba0       ?handleY@FilterPointsScaling@@AAEXPAVDrawingSurface@@HHAAI@Z 00431ba0 f i GameCamera.obj
 0001:00030cd0       ?setOffset@FilterPointsTranslation@@QAEXHH@Z 00431cd0 f i GameCamera.obj
 0001:00030d00       ?setStretch@FilterPointsScaling@@QAEXHH@Z 00431d00 f i GameCamera.obj
 0001:00030df0       ??0GameOverUI@@IAE@XZ      00431df0 f   GameOverUI.obj
 0001:00030ed0       ?getInstance@GameOverUI@@SAPAV1@XZ 00431ed0 f   GameOverUI.obj
 0001:00030f60       ?virtDoUpdate@GameOverUI@@UAEXH@Z 00431f60 f   GameOverUI.obj
 0001:00030f70       ?drawUI@GameOverUI@@QAEXXZ 00431f70 f   GameOverUI.obj
 0001:00031280       ??1GameOverUI@@UAE@XZ      00432280 f i GameOverUI.obj
 0001:000312b0       ??_GGameOverUI@@UAEPAXI@Z  004322b0 f i GameOverUI.obj
 0001:000312b0       ??_EGameOverUI@@UAEPAXI@Z  004322b0 f i GameOverUI.obj
 0001:000312f0       ?setMergePercentage@ImageMappingGeneralist@@QAEXHH@Z 004322f0 f i GameOverUI.obj
 0001:00031320       ?setTopLeftPositionInImage@ImageMappingGeneralist@@QAEXHH@Z 00432320 f i GameOverUI.obj
 0001:00031370       ?onCreate@GameScene@@UAEXXZ 00432370 f   GameScene.obj
 0001:00031390       ?onDestroy@GameScene@@UAEXXZ 00432390 f   GameScene.obj
 0001:00031530       ?onActivate@GameScene@@UAEXXZ 00432530 f   GameScene.obj
 0001:00031840       ?onDeactivate@GameScene@@UAEXXZ 00432840 f   GameScene.obj
 0001:00031a10       ?virtMainLoopPreUpdate@GameScene@@UAEXXZ 00432a10 f   GameScene.obj
 0001:00031ae0       ?virtMainLoopPostUpdate@GameScene@@UAEXXZ 00432ae0 f   GameScene.obj
 0001:00031af0       ?virtMainLoopDoBeforeUpdate@GameScene@@UAEXXZ 00432af0 f   GameScene.obj
 0001:00031c70       ?virtMainLoopDoAfterUpdate@GameScene@@UAEXXZ 00432c70 f   GameScene.obj
 0001:00031cb0       ?virtPreDraw@GameScene@@UAEXXZ 00432cb0 f   GameScene.obj
 0001:00031d30       ?virtDrawStringsUnderneath@GameScene@@UAEXXZ 00432d30 f   GameScene.obj
 0001:00031d40       ?virtDrawStringsOnTop@GameScene@@UAEXXZ 00432d40 f   GameScene.obj
 0001:00031d50       ?virtPostDraw@GameScene@@UAEXXZ 00432d50 f   GameScene.obj
 0001:00031dc0       ?virtKeyDown@GameScene@@UAEXH@Z 00432dc0 f   GameScene.obj
 0001:000321e0       ??$?0PAVRune@@@?$allocator@U_Container_proxy@std@@@std@@QAE@ABV?$allocator@PAVRune@@@1@@Z 004331e0 f i GameScene.obj
 0001:00032200       ??$?0V?$allocator@PAVRune@@@std@@$$V@?$_Compressed_pair@V?$allocator@PAVRune@@@std@@V?$_Vector_val@U?$_Simple_types@PAVRune@@@std@@@2@$00@std@@QAE@U_One_then_variadic_args_t@1@$$QAV?$allocator@PAVRune@@@1@@Z 00433200 f i GameScene.obj
 0001:00032230       ??$_Adl_verify_range@V?$_Vector_iterator@V?$_Vector_val@U?$_Simple_types@PAVDisplayableObject@@@std@@@std@@@std@@V12@@std@@YAXABV?$_Vector_iterator@V?$_Vector_val@U?$_Simple_types@PAVDisplayableObject@@@std@@@std@@@0@0@Z 00433230 f i GameScene.obj
 0001:00032250       ??$_Copy_memmove@PAPAVRune@@PAPAV1@@std@@YAPAPAVRune@@PAPAV1@00@Z 00433250 f i GameScene.obj
 0001:000322a0       ??$_Destroy_range@V?$allocator@PAVRune@@@std@@@std@@YAXPAPAVRune@@QAPAV1@AAV?$allocator@PAVRune@@@0@@Z 004332a0 f i GameScene.obj
 0001:000322b0       ??$_Find_unchecked1@PAPAVDisplayableObject@@PAV1@@std@@YAPAPAVDisplayableObject@@PAPAV1@QAPAV1@ABQAV1@U?$integral_constant@_N$0A@@0@@Z 004332b0 f i GameScene.obj
 0001:000322f0       ??$_Find_unchecked@PAPAVDisplayableObject@@PAV1@@std@@YAPAPAVDisplayableObject@@QAPAV1@0ABQAV1@@Z 004332f0 f i GameScene.obj
 0001:00032320       ??$_Get_unwrapped@AAV?$_Vector_iterator@V?$_Vector_val@U?$_Simple_types@PAVDisplayableObject@@@std@@@std@@@std@@@std@@YA@AAV?$_Vector_iterator@V?$_Vector_val@U?$_Simple_types@PAVDisplayableObject@@@std@@@std@@@0@@Z 00433320 f i GameScene.obj
 0001:00032330       ??$_Get_unwrapped@ABQAPAVRune@@@std@@YA@ABQAPAVRune@@@Z 00433330 f i GameScene.obj
 0001:00032340       ??$_Get_unwrapped@ABV?$_Vector_iterator@V?$_Vector_val@U?$_Simple_types@PAVDisplayableObject@@@std@@@std@@@std@@@std@@YA@ABV?$_Vector_iterator@V?$_Vector_val@U?$_Simple_types@PAVDisplayableObject@@@std@@@std@@@0@@Z 00433340 f i GameScene.obj
 0001:00032350       ??$_Move_unchecked@PAPAVDisplayableObject@@PAPAV1@@std@@YAPAPAVDisplayableObject@@PAPAV1@00@Z 00433350 f i GameScene.obj
 0001:000323c0       ??$_Refancy@PAPAVDisplayableObject@@$0A@@std@@YAPAPAVDisplayableObject@@PAPAV1@@Z 004333c0 f i GameScene.obj
 0001:000323d0       ??$_Seek_wrapped@V?$_Vector_iterator@V?$_Vector_val@U?$_Simple_types@PAVDisplayableObject@@@std@@@std@@@std@@PAPAVDisplayableObject@@@std@@YAXAAV?$_Vector_iterator@V?$_Vector_val@U?$_Simple_types@PAVDisplayableObject@@@std@@@std@@@0@$$QAPAPAVDisplayableObject@@@Z 004333d0 f i GameScene.obj
 0001:000323f0       ??$_Ucopy@PAPAVRune@@@?$vector@PAVRune@@V?$allocator@PAVRune@@@std@@@std@@AAEPAPAVRune@@PAPAV2@00@Z 004333f0 f i GameScene.obj
 0001:00032430       ??$_Unfancy@PAVRune@@@std@@YAPAPAVRune@@PAPAV1@@Z 00433430 f i GameScene.obj
 0001:00032440       ??$_Uninitialized_copy@PAPAVRune@@V?$allocator@PAVRune@@@std@@@std@@YAPAPAVRune@@QAPAV1@0PAPAV1@AAV?$allocator@PAVRune@@@0@@Z 00433440 f i GameScene.obj
 0001:000324b0       ??$addressof@V?$_Vector_val@U?$_Simple_types@PAVDisplayableObject@@@std@@@std@@@std@@YAPAV?$_Vector_val@U?$_Simple_types@PAVDisplayableObject@@@std@@@0@AAV10@@Z 004334b0 f i GameScene.obj
 0001:000324c0       ??$destroy@PAVDisplayableObject@@@?$_Default_allocator_traits@V?$allocator@PAVDisplayableObject@@@std@@@std@@SAXAAV?$allocator@PAVDisplayableObject@@@1@QAPAVDisplayableObject@@@Z 004334c0 f i GameScene.obj
 0001:000324d0       ??$find@V?$_Vector_iterator@V?$_Vector_val@U?$_Simple_types@PAVDisplayableObject@@@std@@@std@@@std@@PAVDisplayableObject@@@std@@YA?AV?$_Vector_iterator@V?$_Vector_val@U?$_Simple_types@PAVDisplayableObject@@@std@@@std@@@0@V10@V10@ABQAVDisplayableObject@@@Z 004334d0 f i GameScene.obj
 0001:000325c0       ??$forward@V?$allocator@PAVRune@@@std@@@std@@YA$$QAV?$allocator@PAVRune@@@0@AAV10@@Z 004335c0 f i GameScene.obj
 0001:000325d0       ??$move@AAPAVDisplayableObject@@@std@@YA$$QAPAVDisplayableObject@@AAPAV1@@Z 004335d0 f i GameScene.obj
 0001:000325e0       ??0?$_Vector_const_iterator@V?$_Vector_val@U?$_Simple_types@PAVDisplayableObject@@@std@@@std@@@std@@QAE@$$QAV01@@Z 004335e0 f i GameScene.obj
 0001:00032620       ??0?$_Vector_const_iterator@V?$_Vector_val@U?$_Simple_types@PAVDisplayableObject@@@std@@@std@@@std@@QAE@ABV01@@Z 00433620 f i GameScene.obj
 0001:00032660       ??0?$_Vector_const_iterator@V?$_Vector_val@U?$_Simple_types@PAVDisplayableObject@@@std@@@std@@@std@@QAE@PAPAVDisplayableObject@@PBU_Container_base12@1@@Z 00433660 f i GameScene.obj
 0001:000326a0       ??0?$_Vector_iterator@V?$_Vector_val@U?$_Simple_types@PAVDisplayableObject@@@std@@@std@@@std@@QAE@$$QAV01@@Z 004336a0 f i GameScene.obj
 0001:000326d0       ??0?$_Vector_iterator@V?$_Vector_val@U?$_Simple_types@PAVDisplayableObject@@@std@@@std@@@std@@QAE@PAPAVDisplayableObject@@PBU_Container_base12@1@@Z 004336d0 f i GameScene.obj
 0001:00032700       ??0?$_Vector_val@U?$_Simple_types@PAVRune@@@std@@@std@@QAE@XZ 00433700 f i GameScene.obj
 0001:00032750       ??0?$vector@PAVRune@@V?$allocator@PAVRune@@@std@@@std@@QAE@ABV01@@Z 00433750 f i GameScene.obj
 0001:000328b0       ??1?$_Tidy_guard@V?$vector@PAVRune@@V?$allocator@PAVRune@@@std@@@std@@@std@@QAE@XZ 004338b0 f i GameScene.obj
 0001:000328e0       ??1?$_Vector_const_iterator@V?$_Vector_val@U?$_Simple_types@PAVDisplayableObject@@@std@@@std@@@std@@QAE@XZ 004338e0 f i GameScene.obj
 0001:00032900       ??1?$_Vector_iterator@V?$_Vector_val@U?$_Simple_types@PAVDisplayableObject@@@std@@@std@@@std@@QAE@XZ 00433900 f i GameScene.obj
 0001:00032920       ??1?$vector@PAVRune@@V?$allocator@PAVRune@@@std@@@std@@QAE@XZ 00433920 f i GameScene.obj
 0001:00032990       ??1EnemySpawner@@QAE@XZ    00433990 f i GameScene.obj
 0001:000329c0       ??1RuneManager@@QAE@XZ     004339c0 f i GameScene.obj
 0001:000329f0       ??8?$_Vector_const_iterator@V?$_Vector_val@U?$_Simple_types@PAVDisplayableObject@@@std@@@std@@@std@@QBE_NABV01@@Z 004339f0 f i GameScene.obj
 0001:00032a40       ??9?$_Vector_const_iterator@V?$_Vector_val@U?$_Simple_types@PAVDisplayableObject@@@std@@@std@@@std@@QBE_NABV01@@Z 00433a40 f i GameScene.obj
 0001:00032a90       ??A?$vector@PAVRune@@V?$allocator@PAVRune@@@std@@@std@@QAEAAPAVRune@@I@Z 00433a90 f i GameScene.obj
 0001:00032b40       ??_GEnemySpawner@@QAEPAXI@Z 00433b40 f i GameScene.obj
 0001:00032b80       ??_GGameCamera@@QAEPAXI@Z  00433b80 f i GameScene.obj
 0001:00032bc0       ??_GRuneManager@@QAEPAXI@Z 00433bc0 f i GameScene.obj
 0001:00032c00       ?_Buy_raw@?$vector@PAVRune@@V?$allocator@PAVRune@@@std@@@std@@AAEXI@Z 00433c00 f i GameScene.obj
 0001:00032c80       ?_Compat@?$_Vector_const_iterator@V?$_Vector_val@U?$_Simple_types@PAVDisplayableObject@@@std@@@std@@@std@@QBEXABV12@@Z 00433c80 f i GameScene.obj
 0001:00032d20       ?_Destroy@?$vector@PAVRune@@V?$allocator@PAVRune@@@std@@@std@@AAEXPAPAVRune@@0@Z 00433d20 f i GameScene.obj
 0001:00032d50       ?_Get_first@?$_Compressed_pair@V?$allocator@PAVRune@@@std@@V?$_Vector_val@U?$_Simple_types@PAVRune@@@std@@@2@$00@std@@QAEAAV?$allocator@PAVRune@@@2@XZ 00433d50 f i GameScene.obj
 0001:00032d70       ?_Get_first@?$_Compressed_pair@V?$allocator@PAVRune@@@std@@V?$_Vector_val@U?$_Simple_types@PAVRune@@@std@@@2@$00@std@@QBEABV?$allocator@PAVRune@@@2@XZ 00433d70 f i GameScene.obj
 0001:00032d90       ?_Getal@?$vector@PAVRune@@V?$allocator@PAVRune@@@std@@@std@@AAEAAV?$allocator@PAVRune@@@2@XZ 00433d90 f i GameScene.obj
 0001:00032db0       ?_Getal@?$vector@PAVRune@@V?$allocator@PAVRune@@@std@@@std@@ABEABV?$allocator@PAVRune@@@2@XZ 00433db0 f i GameScene.obj
 0001:00032dd0       ?_Seek_to@?$_Vector_const_iterator@V?$_Vector_val@U?$_Simple_types@PAVDisplayableObject@@@std@@@std@@@std@@QAEXPBQAVDisplayableObject@@@Z 00433dd0 f i GameScene.obj
 0001:00032e00       ?_Tidy@?$vector@PAVRune@@V?$allocator@PAVRune@@@std@@@std@@AAEXXZ 00433e00 f i GameScene.obj
 0001:00032ef0       ?_Unchecked_begin@?$vector@PAVGallo@@V?$allocator@PAVGallo@@@std@@@std@@QBEPBQAVGallo@@XZ 00433ef0 f i GameScene.obj
 0001:00032f10       ?_Unchecked_begin@?$vector@PAVRune@@V?$allocator@PAVRune@@@std@@@std@@QAEPAPAVRune@@XZ 00433f10 f i GameScene.obj
 0001:00032f30       ?_Unchecked_end@?$vector@PAVGallo@@V?$allocator@PAVGallo@@@std@@@std@@QBEPBQAVGallo@@XZ 00433f30 f i GameScene.obj
 0001:00032f50       ?_Unchecked_end@?$vector@PAVRune@@V?$allocator@PAVRune@@@std@@@std@@QAEPAPAVRune@@XZ 00433f50 f i GameScene.obj
 0001:00032f70       ?_Unwrapped@?$_Vector_iterator@V?$_Vector_val@U?$_Simple_types@PAVDisplayableObject@@@std@@@std@@@std@@QBEPAPAVDisplayableObject@@XZ 00433f70 f i GameScene.obj
 0001:00032f90       ?_Verify_range@std@@YAXABV?$_Vector_const_iterator@V?$_Vector_val@U?$_Simple_types@PAVDisplayableObject@@@std@@@std@@@1@0@Z 00433f90 f i GameScene.obj
 0001:00033090       ?activeAllRunes@RuneManager@@QAEXXZ 00434090 f i GameScene.obj
 0001:000330b0       ?allocate@?$allocator@PAVRune@@@std@@QAEPAPAVRune@@I@Z 004340b0 f i GameScene.obj
 0001:000330e0       ?begin@?$vector@PAVDisplayableObject@@V?$allocator@PAVDisplayableObject@@@std@@@std@@QAE?AV?$_Vector_iterator@V?$_Vector_val@U?$_Simple_types@PAVDisplayableObject@@@std@@@std@@@2@XZ 004340e0 f i GameScene.obj
 0001:00033130       ?deallocate@?$allocator@PAVRune@@@std@@QAEXQAPAVRune@@I@Z 00434130 f i GameScene.obj
 0001:00033160       ?end@?$vector@PAVDisplayableObject@@V?$allocator@PAVDisplayableObject@@@std@@@std@@QAE?AV?$_Vector_iterator@V?$_Vector_val@U?$_Simple_types@PAVDisplayableObject@@@std@@@std@@@2@XZ 00434160 f i GameScene.obj
 0001:000331b0       ?erase@?$vector@PAVDisplayableObject@@V?$allocator@PAVDisplayableObject@@@std@@@std@@QAE?AV?$_Vector_iterator@V?$_Vector_val@U?$_Simple_types@PAVDisplayableObject@@@std@@@std@@@2@V?$_Vector_const_iterator@V?$_Vector_val@U?$_Simple_types@PAVDisplayableObject@@@std@@@std@@@2@@Z 004341b0 f i GameScene.obj
 0001:00033360       ?getCurrentHP@GameUI@@QAEHXZ 00434360 f i GameScene.obj
 0001:00033390       ?getCurrentRuneNum@RuneManager@@QAEHXZ 00434390 f i GameScene.obj
 0001:000333b0       ?getGallos@EnemySpawner@@QAEABV?$vector@PAVGallo@@V?$allocator@PAVGallo@@@std@@@std@@XZ 004343b0 f i GameScene.obj
 0001:000333d0       ?getNumOfKill@GameUI@@QAEHXZ 004343d0 f i GameScene.obj
 0001:000333f0       ?getRunes@RuneManager@@QAEAAV?$vector@PAVRune@@V?$allocator@PAVRune@@@std@@@std@@XZ 004343f0 f i GameScene.obj
 0001:00033410       ?getState@Rune@@QAE?AW4RuneState@@XZ 00434410 f i GameScene.obj
 0001:00033430       ?getSurvivingTimeInSec@GameUI@@QAEHXZ 00434430 f i GameScene.obj
 0001:00033450       ?isAllRuneActivated@RuneManager@@QAE_NXZ 00434450 f i GameScene.obj
 0001:00033490       ?isDead@LivingEntity@@QAE_NXZ 00434490 f i GameScene.obj
 0001:000334b0       ?pause@BaseEngine@@QAEXXZ  004344b0 f i GameScene.obj
 0001:000334e0       ?removeDisplayableObject@DisplayableObjectContainer@@QAE_NPAVDisplayableObject@@@Z 004344e0 f i GameScene.obj
 0001:00033650       ?select_on_container_copy_construction@?$_Default_allocator_traits@V?$allocator@PAVRune@@@std@@@std@@SA?AV?$allocator@PAVRune@@@2@ABV32@@Z 00434650 f i GameScene.obj
 0001:00033660       ?setSeed@CaveGenerator@@SAXXZ 00434660 f i GameScene.obj
 0001:00033680       ?setTotalRuneNum@RuneManager@@QAEXXZ 00434680 f i GameScene.obj
 0001:000336b0       ?size@?$vector@PAVRune@@V?$allocator@PAVRune@@@std@@@std@@QBEIXZ 004346b0 f i GameScene.obj
 0001:000336e0       ?unpause@BaseEngine@@QAEXXZ 004346e0 f i GameScene.obj
 0001:00033730       ??0GameUI@@IAE@XZ          00434730 f   GameUI.obj
 0001:00033920       ?getInstance@GameUI@@SAPAV1@XZ 00434920 f   GameUI.obj
 0001:000339b0       ?virtDoUpdate@GameUI@@UAEXH@Z 004349b0 f   GameUI.obj
 0001:00033ab0       ?drawUI@GameUI@@QAEXXZ     00434ab0 f   GameUI.obj
 0001:00033b40       ?drawLifeBar@GameUI@@QAEXXZ 00434b40 f   GameUI.obj
 0001:00033ec0       ?drawThunderEnergyBar@GameUI@@QAEXXZ 00434ec0 f   GameUI.obj
 0001:00034460       ?drawKilledEnemyNum@GameUI@@QAEXXZ 00435460 f   GameUI.obj
 0001:000344d0       ?drawSurvivingTime@GameUI@@QAEXXZ 004354d0 f   GameUI.obj
 0001:000345c0       ?drawRenderFrame@GameUI@@QAEXXZ 004355c0 f   GameUI.obj
 0001:00034690       ?drawActiveRuneNum@GameUI@@QAEXXZ 00435690 f   GameUI.obj
 0001:00034f00       ??$?8UVec2@@U0@@std@@YA_NABV?$allocator@UVec2@@@0@0@Z 00435f00 f i GameUI.obj
 0001:00034f10       ??$_Emplace_back_internal@ABUVec2@@@?$deque@UVec2@@V?$allocator@UVec2@@@std@@@std@@AAEXABUVec2@@@Z 00435f10 f i GameUI.obj
 0001:000350a0       ??$_Pocs@V?$allocator@UVec2@@@std@@@std@@YAXAAV?$allocator@UVec2@@@0@0@Z 004360a0 f i GameUI.obj
 0001:00035130       ??$_Swap_adl@PAPAUVec2@@@std@@YAXAAPAPAUVec2@@0@Z 00436130 f i GameUI.obj
 0001:00035150       ??$_Swap_adl@V?$deque@UVec2@@V?$allocator@UVec2@@@std@@@std@@@std@@YAXAAV?$deque@UVec2@@V?$allocator@UVec2@@@std@@@0@0@Z 00436150 f i GameUI.obj
 0001:00035170       ??$addressof@V?$deque@UVec2@@V?$allocator@UVec2@@@std@@@std@@@std@@YAPAV?$deque@UVec2@@V?$allocator@UVec2@@@std@@@0@AAV10@@Z 00436170 f i GameUI.obj
 0001:00035180       ??$construct@UVec2@@ABU1@@?$_Default_allocator_traits@V?$allocator@UVec2@@@std@@@std@@SAXAAV?$allocator@UVec2@@@1@QAUVec2@@ABU3@@Z 00436180 f i GameUI.obj
 0001:000351c0       ??$move@AAPAPAUVec2@@@std@@YA$$QAPAPAUVec2@@AAPAPAU1@@Z 004361c0 f i GameUI.obj
 0001:000351d0       ??$swap@PAPAUVec2@@$0A@@std@@YAXAAPAPAUVec2@@0@Z 004361d0 f i GameUI.obj
 0001:00035220       ??$swap@UVec2@@V?$allocator@UVec2@@@std@@@std@@YAXAAV?$deque@UVec2@@V?$allocator@UVec2@@@std@@@0@0@Z 00436220 f i GameUI.obj
 0001:00035240       ??1GameUI@@UAE@XZ          00436240 f i GameUI.obj
 0001:00035290       ??_EGameUI@@UAEPAXI@Z      00436290 f i GameUI.obj
 0001:00035290       ??_GGameUI@@UAEPAXI@Z      00436290 f i GameUI.obj
 0001:000352d0       ?drawForegroundRectangle@BaseEngine@@QAEXHHHHI@Z 004362d0 f i GameUI.obj
 0001:00035310       ?empty@?$queue@UVec2@@V?$deque@UVec2@@V?$allocator@UVec2@@@std@@@std@@@std@@QBE_NXZ 00436310 f i GameUI.obj
 0001:00035330       ?getCurrentHealth@LivingEntity@@QAEHXZ 00436330 f i GameUI.obj
 0001:00035350       ?getStartingHealth@LivingEntity@@QAEHXZ 00436350 f i GameUI.obj
 0001:00035370       ?getTotalRuneNum@RuneManager@@QAEHXZ 00436370 f i GameUI.obj
 0001:00035390       ?push@?$queue@UVec2@@V?$deque@UVec2@@V?$allocator@UVec2@@@std@@@std@@@std@@QAEXABUVec2@@@Z 00436390 f i GameUI.obj
 0001:000353b0       ?push_back@?$deque@UVec2@@V?$allocator@UVec2@@@std@@@std@@QAEXABUVec2@@@Z 004363b0 f i GameUI.obj
 0001:000353e0       ?swap@?$deque@UVec2@@V?$allocator@UVec2@@@std@@@std@@QAEXAAV12@@Z 004363e0 f i GameUI.obj
 0001:000354d0       ?swap@?$queue@UVec2@@V?$deque@UVec2@@V?$allocator@UVec2@@@std@@@std@@@std@@QAEXAAV12@@Z 004364d0 f i GameUI.obj
 0001:00035500       ??0GroundRenderer@@IAE@HHH@Z 00436500 f   GroundRenderer.obj
 0001:00035770       ?getInstance@GroundRenderer@@SAPAV1@XZ 00436770 f   GroundRenderer.obj
 0001:00035800       ?virtDrawTileAt@GroundRenderer@@UBEXPAVBaseEngine@@PAVDrawingSurface@@HHHH@Z 00436800 f   GroundRenderer.obj
 0001:00035900       ?randomFillSprite@GroundRenderer@@QAEXXZ 00436900 f   GroundRenderer.obj
 0001:00035b00       ??1GroundRenderer@@UAE@XZ  00436b00 f i GroundRenderer.obj
 0001:00035b90       ??_EGroundRenderer@@UAEPAXI@Z 00436b90 f i GroundRenderer.obj
 0001:00035b90       ??_GGroundRenderer@@UAEPAXI@Z 00436b90 f i GroundRenderer.obj
 0001:00035bd0       ?virtSetupBackgroundBuffer@ImageMappingDemo@@UAEXXZ 00436bd0 f   ImageMappingDemo.obj
 0001:00035cd0       ?virtInitialiseObjects@ImageMappingDemo@@UAEHXZ 00436cd0 f   ImageMappingDemo.obj
 0001:00035fb0       ?virtKeyDown@ImageMappingDemo@@UAEXH@Z 00436fb0 f   ImageMappingDemo.obj
 0001:00035fe0       ?virtMainLoopDoBeforeUpdate@ImageMappingDemo@@UAEXXZ 00436fe0 f   ImageMappingDemo.obj
 0001:00036070       ?mapCoordinates@ImageMappingDemo@@UAE_NAAN0ABVSimpleImage@@@Z 00437070 f   ImageMappingDemo.obj
 0001:000364c0       ??0MappableImageObject@@QAE@PAVImagePixelMapping@@HHPAVBaseEngine@@V?$basic_string@DU?$char_traits@D@std@@V?$allocator@D@2@@std@@_N3@Z 004374c0 f i ImageMappingDemo.obj
 0001:00036580       ??1MappableImageObject@@UAE@XZ 00437580 f i ImageMappingDemo.obj
 0001:000365a0       ??_GMappableImageObject@@UAEPAXI@Z 004375a0 f i ImageMappingDemo.obj
 0001:000365a0       ??_EMappableImageObject@@UAEPAXI@Z 004375a0 f i ImageMappingDemo.obj
 0001:000365e0       ?getPixelColour@MappableImageObject@@QAEHHH@Z 004375e0 f i ImageMappingDemo.obj
 0001:00036610       ?getTheData@SimpleImage@@QBEABV?$shared_ptr@VRawImageData@@@std@@XZ 00437610 f i ImageMappingDemo.obj
 0001:00036630       ?setOpaque@RawImageData@@QAEXXZ 00437630 f i ImageMappingDemo.obj
 0001:000366a0       ?setRotation@ImagePixelMappingRotate@@QAEXN@Z 004376a0 f i ImageMappingDemo.obj
 0001:000366c0       ?setTransparencyColour@MappableImageObject@@QAEXH@Z 004376c0 f i ImageMappingDemo.obj
 0001:000366f0       ?setTransparencyColour@SimpleImage@@QAEXH@Z 004376f0 f i ImageMappingDemo.obj
 0001:00036760       ?setTransparentColour@RawImageData@@QAEXI@Z 00437760 f i ImageMappingDemo.obj
 0001:00036880       ?setXShift@ImagePixelMappingShiftXY@@QAEXN@Z 00437880 f i ImageMappingDemo.obj
 0001:000368a0       ?setYShift@ImagePixelMappingShiftXY@@QAEXN@Z 004378a0 f i ImageMappingDemo.obj
 0001:000368c0       ?virtDraw@MappableImageObject@@UAEXXZ 004378c0 f i ImageMappingDemo.obj
 0001:00036950       ??0InstructionUI@@IAE@XZ   00437950 f   InstructionUI.obj
 0001:00036a30       ?getInstance@InstructionUI@@SAPAV1@XZ 00437a30 f   InstructionUI.obj
 0001:00036ac0       ?virtStart@InstructionUI@@UAEXXZ 00437ac0 f   InstructionUI.obj
 0001:00036c10       ?virtDoUpdate@InstructionUI@@UAEXH@Z 00437c10 f   InstructionUI.obj
 0001:00036c40       ?virtDraw@InstructionUI@@UAEXXZ 00437c40 f   InstructionUI.obj
 0001:00036c90       ?drawSprite@InstructionUI@@UAEXXZ 00437c90 f   InstructionUI.obj
 0001:00036d10       ?virtMouseDown@InstructionUI@@UAEXHHH@Z 00437d10 f   InstructionUI.obj
 0001:00036d70       ?virtMouseMoved@InstructionUI@@UAEXHH@Z 00437d70 f   InstructionUI.obj
 0001:00036dc0       ?virtMouseUp@InstructionUI@@UAEXHHH@Z 00437dc0 f   InstructionUI.obj
 0001:00036de0       ?drawZoomAlert@InstructionUI@@QAEXXZ 00437de0 f   InstructionUI.obj
 0001:00036f70       ?drawReturnButton@InstructionUI@@QAEXXZ 00437f70 f   InstructionUI.obj
 0001:00037030       ?drawInstructionMsg@InstructionUI@@QAEXXZ 00438030 f   InstructionUI.obj
 0001:000370f0       ?resetBG@InstructionUI@@QAEXXZ 004380f0 f   InstructionUI.obj
 0001:00037340       ??$?0$$V@?$_Compressed_pair@V?$allocator@U?$_Tree_node@U?$pair@$$CBW4InstructionUIState@@V?$shared_ptr@VAnimation@@@std@@@std@@PAX@std@@@std@@V?$_Tree_val@U?$_Tree_simple_types@U?$pair@$$CBW4InstructionUIState@@V?$shared_ptr@VAnimation@@@std@@@std@@@std@@@2@$00@std@@QAE@U_Zero_then_variadic_args_t@1@@Z 00438340 f i InstructionUI.obj
 0001:00037370       ??$?0AAPAU?$_Tree_node@U?$pair@$$CBW4InstructionUIState@@V?$shared_ptr@VAnimation@@@std@@@std@@PAX@std@@_N$0A@@?$pair@PAU?$_Tree_node@U?$pair@$$CBW4InstructionUIState@@V?$shared_ptr@VAnimation@@@std@@@std@@PAX@std@@_N@std@@QAE@AAPAU?$_Tree_node@U?$pair@$$CBW4InstructionUIState@@V?$shared_ptr@VAnimation@@@std@@@std@@PAX@1@$$QA_N@Z 00438370 f i InstructionUI.obj
 0001:000373c0       ??$?0AAW4InstructionUIState@@AAV?$shared_ptr@VAnimation@@@std@@$0A@@?$pair@W4InstructionUIState@@V?$shared_ptr@VAnimation@@@std@@@std@@QAE@AAW4InstructionUIState@@AAV?$shared_ptr@VAnimation@@@1@@Z 004383c0 f i InstructionUI.obj
 0001:00037410       ??$?0ABU?$less@W4InstructionUIState@@@std@@U_Zero_then_variadic_args_t@1@@?$_Compressed_pair@U?$less@W4InstructionUIState@@@std@@V?$_Compressed_pair@V?$allocator@U?$_Tree_node@U?$pair@$$CBW4InstructionUIState@@V?$shared_ptr@VAnimation@@@std@@@std@@PAX@std@@@std@@V?$_Tree_val@U?$_Tree_simple_types@U?$pair@$$CBW4InstructionUIState@@V?$shared_ptr@VAnimation@@@std@@@std@@@std@@@2@$00@2@$00@std@@QAE@U_One_then_variadic_args_t@1@ABU?$less@W4InstructionUIState@@@1@$$QAU_Zero_then_variadic_args_t@1@@Z 00438410 f i InstructionUI.obj
 0001:00037460       ??$?0PAU?$_Tree_node@U?$pair@$$CBW4InstructionUIState@@V?$shared_ptr@VAnimation@@@std@@@std@@PAX@std@@_N$0A@@?$pair@PAU?$_Tree_node@U?$pair@$$CBW4InstructionUIState@@V?$shared_ptr@VAnimation@@@std@@@std@@PAX@std@@_N@std@@QAE@$$QAPAU?$_Tree_node@U?$pair@$$CBW4InstructionUIState@@V?$shared_ptr@VAnimation@@@std@@@std@@PAX@1@$$QA_N@Z 00438460 f i InstructionUI.obj
 0001:000374b0       ??$?0U?$_Tree_node@U?$pair@$$CBW4InstructionUIState@@V?$shared_ptr@VAnimation@@@std@@@std@@PAX@std@@@?$allocator@U_Container_proxy@std@@@std@@QAE@ABV?$allocator@U?$_Tree_node@U?$pair@$$CBW4InstructionUIState@@V?$shared_ptr@VAnimation@@@std@@@std@@PAX@std@@@1@@Z 004384b0 f i InstructionUI.obj
 0001:000374d0       ??$?0U?$pair@W4InstructionUIState@@V?$shared_ptr@VAnimation@@@std@@@std@@@?$_Tree_temp_node@V?$allocator@U?$_Tree_node@U?$pair@$$CBW4InstructionUIState@@V?$shared_ptr@VAnimation@@@std@@@std@@PAX@std@@@std@@@std@@QAE@AAV?$allocator@U?$_Tree_node@U?$pair@$$CBW4InstructionUIState@@V?$shared_ptr@VAnimation@@@std@@@std@@PAX@std@@@1@PAU?$_Tree_node@U?$pair@$$CBW4InstructionUIState@@V?$shared_ptr@VAnimation@@@std@@@std@@PAX@1@$$QAU?$pair@W4InstructionUIState@@V?$shared_ptr@VAnimation@@@std@@@1@@Z 004384d0 f i InstructionUI.obj
 0001:000375e0       ??$?0V?$_Tree_iterator@V?$_Tree_val@U?$_Tree_simple_types@U?$pair@$$CBW4InstructionUIState@@V?$shared_ptr@VAnimation@@@std@@@std@@@std@@@std@@@std@@AB_N$0A@@?$pair@V?$_Tree_iterator@V?$_Tree_val@U?$_Tree_simple_types@U?$pair@$$CBW4InstructionUIState@@V?$shared_ptr@VAnimation@@@std@@@std@@@std@@@std@@@std@@_N@std@@QAE@$$QAV?$_Tree_iterator@V?$_Tree_val@U?$_Tree_simple_types@U?$pair@$$CBW4InstructionUIState@@V?$shared_ptr@VAnimation@@@std@@@std@@@std@@@std@@@1@AB_N@Z 004385e0 f i InstructionUI.obj
 0001:00037630       ??$?0W4InstructionUIState@@V?$shared_ptr@VAnimation@@@std@@$0A@@?$pair@$$CBW4InstructionUIState@@V?$shared_ptr@VAnimation@@@std@@@std@@QAE@$$QAU?$pair@W4InstructionUIState@@V?$shared_ptr@VAnimation@@@std@@@1@@Z 00438630 f i InstructionUI.obj
 0001:00037680       ??$?0W4InstructionUIState@@V?$shared_ptr@VAnimation@@@std@@$0A@@?$pair@W4InstructionUIState@@V?$shared_ptr@VAnimation@@@std@@@std@@QAE@XZ 00438680 f i InstructionUI.obj
 0001:000376c0       ??$_Buyheadnode@V?$allocator@U?$_Tree_node@U?$pair@$$CBW4InstructionUIState@@V?$shared_ptr@VAnimation@@@std@@@std@@PAX@std@@@std@@@?$_Tree_node@U?$pair@$$CBW4InstructionUIState@@V?$shared_ptr@VAnimation@@@std@@@std@@PAX@std@@SAPAU01@AAV?$allocator@U?$_Tree_node@U?$pair@$$CBW4InstructionUIState@@V?$shared_ptr@VAnimation@@@std@@@std@@PAX@std@@@1@@Z 004386c0 f i InstructionUI.obj
 0001:00037740       ??$_Construct_in_place@PAU?$_Tree_node@U?$pair@$$CBW4InstructionUIState@@V?$shared_ptr@VAnimation@@@std@@@std@@PAX@std@@AAPAU12@@std@@YAXAAPAU?$_Tree_node@U?$pair@$$CBW4InstructionUIState@@V?$shared_ptr@VAnimation@@@std@@@std@@PAX@0@0@Z 00438740 f i InstructionUI.obj
 0001:00037790       ??$_Construct_in_place@PAU?$_Tree_node@U?$pair@$$CBW4InstructionUIState@@V?$shared_ptr@VAnimation@@@std@@@std@@PAX@std@@ABQAU12@@std@@YAXAAPAU?$_Tree_node@U?$pair@$$CBW4InstructionUIState@@V?$shared_ptr@VAnimation@@@std@@@std@@PAX@0@ABQAU10@@Z 00438790 f i InstructionUI.obj
 0001:000377e0       ??$_Debug_lt_pred@ABU?$less@W4InstructionUIState@@@std@@ABW4InstructionUIState@@ABW43@$0A@@std@@YA_NABU?$less@W4InstructionUIState@@@0@ABW4InstructionUIState@@1@Z 004387e0 f i InstructionUI.obj
 0001:00037890       ??$_Destroy_in_place@PAU?$_Tree_node@U?$pair@$$CBW4InstructionUIState@@V?$shared_ptr@VAnimation@@@std@@@std@@PAX@std@@@std@@YAXAAPAU?$_Tree_node@U?$pair@$$CBW4InstructionUIState@@V?$shared_ptr@VAnimation@@@std@@@std@@PAX@0@@Z 00438890 f i InstructionUI.obj
 0001:000378a0       ??$_Emplace@U?$pair@W4InstructionUIState@@V?$shared_ptr@VAnimation@@@std@@@std@@@?$_Tree@V?$_Tmap_traits@W4InstructionUIState@@V?$shared_ptr@VAnimation@@@std@@U?$less@W4InstructionUIState@@@3@V?$allocator@U?$pair@$$CBW4InstructionUIState@@V?$shared_ptr@VAnimation@@@std@@@std@@@3@$0A@@std@@@std@@IAE?AU?$pair@PAU?$_Tree_node@U?$pair@$$CBW4InstructionUIState@@V?$shared_ptr@VAnimation@@@std@@@std@@PAX@std@@_N@1@$$QAU?$pair@W4InstructionUIState@@V?$shared_ptr@VAnimation@@@std@@@1@@Z 004388a0 f i InstructionUI.obj
 0001:000379d0       ??$_Erase_head@V?$allocator@U?$_Tree_node@U?$pair@$$CBW4InstructionUIState@@V?$shared_ptr@VAnimation@@@std@@@std@@PAX@std@@@std@@@?$_Tree_val@U?$_Tree_simple_types@U?$pair@$$CBW4InstructionUIState@@V?$shared_ptr@VAnimation@@@std@@@std@@@std@@@std@@QAEXAAV?$allocator@U?$_Tree_node@U?$pair@$$CBW4InstructionUIState@@V?$shared_ptr@VAnimation@@@std@@@std@@PAX@std@@@1@@Z 004389d0 f i InstructionUI.obj
 0001:00037a20       ??$_Erase_tree@V?$allocator@U?$_Tree_node@U?$pair@$$CBW4InstructionUIState@@V?$shared_ptr@VAnimation@@@std@@@std@@PAX@std@@@std@@@?$_Tree_val@U?$_Tree_simple_types@U?$pair@$$CBW4InstructionUIState@@V?$shared_ptr@VAnimation@@@std@@@std@@@std@@@std@@QAEXAAV?$allocator@U?$_Tree_node@U?$pair@$$CBW4InstructionUIState@@V?$shared_ptr@VAnimation@@@std@@@std@@PAX@std@@@1@PAU?$_Tree_node@U?$pair@$$CBW4InstructionUIState@@V?$shared_ptr@VAnimation@@@std@@@std@@PAX@1@@Z 00438a20 f i InstructionUI.obj
 0001:00037a80       ??$_Find@W4InstructionUIState@@@?$_Tree@V?$_Tmap_traits@W4InstructionUIState@@V?$shared_ptr@VAnimation@@@std@@U?$less@W4InstructionUIState@@@3@V?$allocator@U?$pair@$$CBW4InstructionUIState@@V?$shared_ptr@VAnimation@@@std@@@std@@@3@$0A@@std@@@std@@ABEPAU?$_Tree_node@U?$pair@$$CBW4InstructionUIState@@V?$shared_ptr@VAnimation@@@std@@@std@@PAX@1@ABW4InstructionUIState@@@Z 00438a80 f i InstructionUI.obj
 0001:00037ae0       ??$_Find_lower_bound@W4InstructionUIState@@@?$_Tree@V?$_Tmap_traits@W4InstructionUIState@@V?$shared_ptr@VAnimation@@@std@@U?$less@W4InstructionUIState@@@3@V?$allocator@U?$pair@$$CBW4InstructionUIState@@V?$shared_ptr@VAnimation@@@std@@@std@@@3@$0A@@std@@@std@@IBE?AU?$_Tree_find_result@PAU?$_Tree_node@U?$pair@$$CBW4InstructionUIState@@V?$shared_ptr@VAnimation@@@std@@@std@@PAX@std@@@1@ABW4InstructionUIState@@@Z 00438ae0 f i InstructionUI.obj
 0001:00037bd0       ??$_Freenode0@V?$allocator@U?$_Tree_node@U?$pair@$$CBW4InstructionUIState@@V?$shared_ptr@VAnimation@@@std@@@std@@PAX@std@@@std@@@?$_Tree_node@U?$pair@$$CBW4InstructionUIState@@V?$shared_ptr@VAnimation@@@std@@@std@@PAX@std@@SAXAAV?$allocator@U?$_Tree_node@U?$pair@$$CBW4InstructionUIState@@V?$shared_ptr@VAnimation@@@std@@@std@@PAX@std@@@1@PAU01@@Z 00438bd0 f i InstructionUI.obj
 0001:00037c60       ??$_Freenode@V?$allocator@U?$_Tree_node@U?$pair@$$CBW4InstructionUIState@@V?$shared_ptr@VAnimation@@@std@@@std@@PAX@std@@@std@@@?$_Tree_node@U?$pair@$$CBW4InstructionUIState@@V?$shared_ptr@VAnimation@@@std@@@std@@PAX@std@@SAXAAV?$allocator@U?$_Tree_node@U?$pair@$$CBW4InstructionUIState@@V?$shared_ptr@VAnimation@@@std@@@std@@PAX@std@@@1@PAU01@@Z 00438c60 f i InstructionUI.obj
 0001:00037ce0       ??$_Kfn@$$CBW4InstructionUIState@@V?$shared_ptr@VAnimation@@@std@@@?$_Tmap_traits@W4InstructionUIState@@V?$shared_ptr@VAnimation@@@std@@U?$less@W4InstructionUIState@@@3@V?$allocator@U?$pair@$$CBW4InstructionUIState@@V?$shared_ptr@VAnimation@@@std@@@std@@@3@$0A@@std@@SAABW4InstructionUIState@@ABU?$pair@$$CBW4InstructionUIState@@V?$shared_ptr@VAnimation@@@std@@@1@@Z 00438ce0 f i InstructionUI.obj
 0001:00037cf0       ??$_Lower_bound_duplicate@W4InstructionUIState@@@?$_Tree@V?$_Tmap_traits@W4InstructionUIState@@V?$shared_ptr@VAnimation@@@std@@U?$less@W4InstructionUIState@@@3@V?$allocator@U?$pair@$$CBW4InstructionUIState@@V?$shared_ptr@VAnimation@@@std@@@std@@@3@$0A@@std@@@std@@IBE_NQAU?$_Tree_node@U?$pair@$$CBW4InstructionUIState@@V?$shared_ptr@VAnimation@@@std@@@std@@PAX@1@ABW4InstructionUIState@@@Z 00438cf0 f i InstructionUI.obj
 0001:00037d60       ??$addressof@$$CBV?$_Tree_val@U?$_Tree_simple_types@U?$pair@$$CBW4InstructionUIState@@V?$shared_ptr@VAnimation@@@std@@@std@@@std@@@std@@@std@@YAPBV?$_Tree_val@U?$_Tree_simple_types@U?$pair@$$CBW4InstructionUIState@@V?$shared_ptr@VAnimation@@@std@@@std@@@std@@@0@ABV10@@Z 00438d60 f i InstructionUI.obj
 0001:00037d70       ??$addressof@PAU?$_Tree_node@U?$pair@$$CBW4InstructionUIState@@V?$shared_ptr@VAnimation@@@std@@@std@@PAX@std@@@std@@YAPAPAU?$_Tree_node@U?$pair@$$CBW4InstructionUIState@@V?$shared_ptr@VAnimation@@@std@@@std@@PAX@0@AAPAU10@@Z 00438d70 f i InstructionUI.obj
 0001:00037d80       ??$addressof@U?$pair@$$CBW4InstructionUIState@@V?$shared_ptr@VAnimation@@@std@@@std@@@std@@YAPAU?$pair@$$CBW4InstructionUIState@@V?$shared_ptr@VAnimation@@@std@@@0@AAU10@@Z 00438d80 f i InstructionUI.obj
 0001:00037d90       ??$addressof@V?$_Tree_val@U?$_Tree_simple_types@U?$pair@$$CBW4InstructionUIState@@V?$shared_ptr@VAnimation@@@std@@@std@@@std@@@std@@@std@@YAPAV?$_Tree_val@U?$_Tree_simple_types@U?$pair@$$CBW4InstructionUIState@@V?$shared_ptr@VAnimation@@@std@@@std@@@std@@@0@AAV10@@Z 00438d90 f i InstructionUI.obj
 0001:00037da0       ??$construct@U?$pair@$$CBW4InstructionUIState@@V?$shared_ptr@VAnimation@@@std@@@std@@U?$pair@W4InstructionUIState@@V?$shared_ptr@VAnimation@@@std@@@2@@?$_Default_allocator_traits@V?$allocator@U?$_Tree_node@U?$pair@$$CBW4InstructionUIState@@V?$shared_ptr@VAnimation@@@std@@@std@@PAX@std@@@std@@@std@@SAXAAV?$allocator@U?$_Tree_node@U?$pair@$$CBW4InstructionUIState@@V?$shared_ptr@VAnimation@@@std@@@std@@PAX@std@@@1@QAU?$pair@$$CBW4InstructionUIState@@V?$shared_ptr@VAnimation@@@std@@@1@$$QAU?$pair@W4InstructionUIState@@V?$shared_ptr@VAnimation@@@std@@@1@@Z 00438da0 f i InstructionUI.obj
 0001:00037de0       ??$destroy@U?$pair@$$CBW4InstructionUIState@@V?$shared_ptr@VAnimation@@@std@@@std@@@?$_Default_allocator_traits@V?$allocator@U?$_Tree_node@U?$pair@$$CBW4InstructionUIState@@V?$shared_ptr@VAnimation@@@std@@@std@@PAX@std@@@std@@@std@@SAXAAV?$allocator@U?$_Tree_node@U?$pair@$$CBW4InstructionUIState@@V?$shared_ptr@VAnimation@@@std@@@std@@PAX@std@@@1@QAU?$pair@$$CBW4InstructionUIState@@V?$shared_ptr@VAnimation@@@std@@@1@@Z 00438de0 f i InstructionUI.obj
 0001:00037e00       ??$emplace@U?$pair@W4InstructionUIState@@V?$shared_ptr@VAnimation@@@std@@@std@@@?$_Tree@V?$_Tmap_traits@W4InstructionUIState@@V?$shared_ptr@VAnimation@@@std@@U?$less@W4InstructionUIState@@@3@V?$allocator@U?$pair@$$CBW4InstructionUIState@@V?$shared_ptr@VAnimation@@@std@@@std@@@3@$0A@@std@@@std@@QAE?AU?$pair@V?$_Tree_iterator@V?$_Tree_val@U?$_Tree_simple_types@U?$pair@$$CBW4InstructionUIState@@V?$shared_ptr@VAnimation@@@std@@@std@@@std@@@std@@@std@@_N@1@$$QAU?$pair@W4InstructionUIState@@V?$shared_ptr@VAnimation@@@std@@@1@@Z 00438e00 f i InstructionUI.obj
 0001:00037e90       ??$exchange@PAU?$_Tree_node@U?$pair@$$CBW4InstructionUIState@@V?$shared_ptr@VAnimation@@@std@@@std@@PAX@std@@$$T@std@@YAPAU?$_Tree_node@U?$pair@$$CBW4InstructionUIState@@V?$shared_ptr@VAnimation@@@std@@@std@@PAX@0@AAPAU10@$$QA$$T@Z 00438e90 f i InstructionUI.obj
 0001:00037ec0       ??$exchange@PAU?$_Tree_node@U?$pair@$$CBW4InstructionUIState@@V?$shared_ptr@VAnimation@@@std@@@std@@PAX@std@@AAPAU12@@std@@YAPAU?$_Tree_node@U?$pair@$$CBW4InstructionUIState@@V?$shared_ptr@VAnimation@@@std@@@std@@PAX@0@AAPAU10@0@Z 00438ec0 f i InstructionUI.obj
 0001:00037ef0       ??$forward@AAPAU?$_Tree_node@U?$pair@$$CBW4InstructionUIState@@V?$shared_ptr@VAnimation@@@std@@@std@@PAX@std@@@std@@YAAAPAU?$_Tree_node@U?$pair@$$CBW4InstructionUIState@@V?$shared_ptr@VAnimation@@@std@@@std@@PAX@0@AAPAU10@@Z 00438ef0 f i InstructionUI.obj
 0001:00037f00       ??$forward@AAW4InstructionUIState@@@std@@YAAAW4InstructionUIState@@AAW41@@Z 00438f00 f i InstructionUI.obj
 0001:00037f10       ??$forward@ABQAU?$_Tree_node@U?$pair@$$CBW4InstructionUIState@@V?$shared_ptr@VAnimation@@@std@@@std@@PAX@std@@@std@@YAABQAU?$_Tree_node@U?$pair@$$CBW4InstructionUIState@@V?$shared_ptr@VAnimation@@@std@@@std@@PAX@0@ABQAU10@@Z 00438f10 f i InstructionUI.obj
 0001:00037f20       ??$forward@ABU?$less@W4InstructionUIState@@@std@@@std@@YAABU?$less@W4InstructionUIState@@@0@ABU10@@Z 00438f20 f i InstructionUI.obj
 0001:00037f30       ??$forward@PAU?$_Tree_node@U?$pair@$$CBW4InstructionUIState@@V?$shared_ptr@VAnimation@@@std@@@std@@PAX@std@@@std@@YA$$QAPAU?$_Tree_node@U?$pair@$$CBW4InstructionUIState@@V?$shared_ptr@VAnimation@@@std@@@std@@PAX@0@AAPAU10@@Z 00438f30 f i InstructionUI.obj
 0001:00037f40       ??$forward@U?$pair@W4InstructionUIState@@V?$shared_ptr@VAnimation@@@std@@@std@@@std@@YA$$QAU?$pair@W4InstructionUIState@@V?$shared_ptr@VAnimation@@@std@@@0@AAU10@@Z 00438f40 f i InstructionUI.obj
 0001:00037f50       ??$forward@V?$_Tree_iterator@V?$_Tree_val@U?$_Tree_simple_types@U?$pair@$$CBW4InstructionUIState@@V?$shared_ptr@VAnimation@@@std@@@std@@@std@@@std@@@std@@@std@@YA$$QAV?$_Tree_iterator@V?$_Tree_val@U?$_Tree_simple_types@U?$pair@$$CBW4InstructionUIState@@V?$shared_ptr@VAnimation@@@std@@@std@@@std@@@std@@@0@AAV10@@Z 00438f50 f i InstructionUI.obj
 0001:00037f60       ??$forward@W4InstructionUIState@@@std@@YA$$QAW4InstructionUIState@@AAW41@@Z 00438f60 f i InstructionUI.obj
 0001:00037f70       ??$insert@U?$pair@W4InstructionUIState@@V?$shared_ptr@VAnimation@@@std@@@std@@$0A@@?$map@W4InstructionUIState@@V?$shared_ptr@VAnimation@@@std@@U?$less@W4InstructionUIState@@@3@V?$allocator@U?$pair@$$CBW4InstructionUIState@@V?$shared_ptr@VAnimation@@@std@@@std@@@3@@std@@QAE?AU?$pair@V?$_Tree_iterator@V?$_Tree_val@U?$_Tree_simple_types@U?$pair@$$CBW4InstructionUIState@@V?$shared_ptr@VAnimation@@@std@@@std@@@std@@@std@@@std@@_N@1@$$QAU?$pair@W4InstructionUIState@@V?$shared_ptr@VAnimation@@@std@@@1@@Z 00438f70 f i InstructionUI.obj
 0001:00037fc0       ??$make_pair@AAW4InstructionUIState@@AAV?$shared_ptr@VAnimation@@@std@@@std@@YA?AU?$pair@W4InstructionUIState@@V?$shared_ptr@VAnimation@@@std@@@0@AAW4InstructionUIState@@AAV?$shared_ptr@VAnimation@@@0@@Z 00438fc0 f i InstructionUI.obj
 0001:00038000       ??0?$Animator@W4InstructionUIState@@X@@QAE@XZ 00439000 f i InstructionUI.obj
 0001:00038030       ??0?$_Alloc_construct_ptr@V?$allocator@U?$_Tree_node@U?$pair@$$CBW4InstructionUIState@@V?$shared_ptr@VAnimation@@@std@@@std@@PAX@std@@@std@@@std@@QAE@AAV?$allocator@U?$_Tree_node@U?$pair@$$CBW4InstructionUIState@@V?$shared_ptr@VAnimation@@@std@@@std@@PAX@std@@@1@@Z 00439030 f i InstructionUI.obj
 0001:00038060       ??0?$_Tree@V?$_Tmap_traits@W4InstructionUIState@@V?$shared_ptr@VAnimation@@@std@@U?$less@W4InstructionUIState@@@3@V?$allocator@U?$pair@$$CBW4InstructionUIState@@V?$shared_ptr@VAnimation@@@std@@@std@@@3@$0A@@std@@@std@@QAE@ABU?$less@W4InstructionUIState@@@1@@Z 00439060 f i InstructionUI.obj
 0001:000380a0       ??0?$_Tree_const_iterator@V?$_Tree_val@U?$_Tree_simple_types@U?$pair@$$CBW4InstructionUIState@@V?$shared_ptr@VAnimation@@@std@@@std@@@std@@@std@@@std@@QAE@$$QAV01@@Z 004390a0 f i InstructionUI.obj
 0001:000380d0       ??0?$_Tree_const_iterator@V?$_Tree_val@U?$_Tree_simple_types@U?$pair@$$CBW4InstructionUIState@@V?$shared_ptr@VAnimation@@@std@@@std@@@std@@@std@@@std@@QAE@PAU?$_Tree_node@U?$pair@$$CBW4InstructionUIState@@V?$shared_ptr@VAnimation@@@std@@@std@@PAX@1@PBV?$_Tree_val@U?$_Tree_simple_types@U?$pair@$$CBW4InstructionUIState@@V?$shared_ptr@VAnimation@@@std@@@std@@@std@@@1@@Z 004390d0 f i InstructionUI.obj
 0001:00038100       ??0?$_Tree_iterator@V?$_Tree_val@U?$_Tree_simple_types@U?$pair@$$CBW4InstructionUIState@@V?$shared_ptr@VAnimation@@@std@@@std@@@std@@@std@@@std@@QAE@$$QAV01@@Z 00439100 f i InstructionUI.obj
 0001:00038130       ??0?$_Tree_iterator@V?$_Tree_val@U?$_Tree_simple_types@U?$pair@$$CBW4InstructionUIState@@V?$shared_ptr@VAnimation@@@std@@@std@@@std@@@std@@@std@@QAE@PAU?$_Tree_node@U?$pair@$$CBW4InstructionUIState@@V?$shared_ptr@VAnimation@@@std@@@std@@PAX@1@PBV?$_Tree_val@U?$_Tree_simple_types@U?$pair@$$CBW4InstructionUIState@@V?$shared_ptr@VAnimation@@@std@@@std@@@std@@@1@@Z 00439130 f i InstructionUI.obj
 0001:00038160       ??0?$_Tree_temp_node_alloc@V?$allocator@U?$_Tree_node@U?$pair@$$CBW4InstructionUIState@@V?$shared_ptr@VAnimation@@@std@@@std@@PAX@std@@@std@@@std@@QAE@AAV?$allocator@U?$_Tree_node@U?$pair@$$CBW4InstructionUIState@@V?$shared_ptr@VAnimation@@@std@@@std@@PAX@std@@@1@@Z 00439160 f i InstructionUI.obj
 0001:000381e0       ??0?$_Tree_unchecked_const_iterator@V?$_Tree_val@U?$_Tree_simple_types@U?$pair@$$CBW4InstructionUIState@@V?$shared_ptr@VAnimation@@@std@@@std@@@std@@@std@@U_Iterator_base12@2@@std@@QAE@$$QAV01@@Z 004391e0 f i InstructionUI.obj
 0001:00038220       ??0?$_Tree_unchecked_const_iterator@V?$_Tree_val@U?$_Tree_simple_types@U?$pair@$$CBW4InstructionUIState@@V?$shared_ptr@VAnimation@@@std@@@std@@@std@@@std@@U_Iterator_base12@2@@std@@QAE@PAU?$_Tree_node@U?$pair@$$CBW4InstructionUIState@@V?$shared_ptr@VAnimation@@@std@@@std@@PAX@1@PBV?$_Tree_val@U?$_Tree_simple_types@U?$pair@$$CBW4InstructionUIState@@V?$shared_ptr@VAnimation@@@std@@@std@@@std@@@1@@Z 00439220 f i InstructionUI.obj
 0001:00038260       ??0?$_Tree_val@U?$_Tree_simple_types@U?$pair@$$CBW4InstructionUIState@@V?$shared_ptr@VAnimation@@@std@@@std@@@std@@@std@@QAE@XZ 00439260 f i InstructionUI.obj
 0001:000382a0       ??0?$allocator@U?$_Tree_node@U?$pair@$$CBW4InstructionUIState@@V?$shared_ptr@VAnimation@@@std@@@std@@PAX@std@@@std@@QAE@XZ 004392a0 f i InstructionUI.obj
 0001:000382c0       ??0?$map@W4InstructionUIState@@V?$shared_ptr@VAnimation@@@std@@U?$less@W4InstructionUIState@@@3@V?$allocator@U?$pair@$$CBW4InstructionUIState@@V?$shared_ptr@VAnimation@@@std@@@std@@@3@@std@@QAE@XZ 004392c0 f i InstructionUI.obj
 0001:000382f0       ??1?$Animator@W4InstructionUIState@@X@@QAE@XZ 004392f0 f i InstructionUI.obj
 0001:00038320       ??1?$_Alloc_construct_ptr@V?$allocator@U?$_Tree_node@U?$pair@$$CBW4InstructionUIState@@V?$shared_ptr@VAnimation@@@std@@@std@@PAX@std@@@std@@@std@@QAE@XZ 00439320 f i InstructionUI.obj
 0001:00038390       ??1?$_Tree@V?$_Tmap_traits@W4InstructionUIState@@V?$shared_ptr@VAnimation@@@std@@U?$less@W4InstructionUIState@@@3@V?$allocator@U?$pair@$$CBW4InstructionUIState@@V?$shared_ptr@VAnimation@@@std@@@std@@@3@$0A@@std@@@std@@QAE@XZ 00439390 f i InstructionUI.obj
 0001:00038400       ??1?$_Tree_const_iterator@V?$_Tree_val@U?$_Tree_simple_types@U?$pair@$$CBW4InstructionUIState@@V?$shared_ptr@VAnimation@@@std@@@std@@@std@@@std@@@std@@QAE@XZ 00439400 f i InstructionUI.obj
 0001:00038420       ??1?$_Tree_iterator@V?$_Tree_val@U?$_Tree_simple_types@U?$pair@$$CBW4InstructionUIState@@V?$shared_ptr@VAnimation@@@std@@@std@@@std@@@std@@@std@@QAE@XZ 00439420 f i InstructionUI.obj
 0001:00038440       ??1?$_Tree_temp_node@V?$allocator@U?$_Tree_node@U?$pair@$$CBW4InstructionUIState@@V?$shared_ptr@VAnimation@@@std@@@std@@PAX@std@@@std@@@std@@QAE@XZ 00439440 f i InstructionUI.obj
 0001:00038510       ??1?$_Tree_temp_node_alloc@V?$allocator@U?$_Tree_node@U?$pair@$$CBW4InstructionUIState@@V?$shared_ptr@VAnimation@@@std@@@std@@PAX@std@@@std@@@std@@QAE@XZ 00439510 f i InstructionUI.obj
 0001:00038530       ??1?$_Tree_unchecked_const_iterator@V?$_Tree_val@U?$_Tree_simple_types@U?$pair@$$CBW4InstructionUIState@@V?$shared_ptr@VAnimation@@@std@@@std@@@std@@@std@@U_Iterator_base12@2@@std@@QAE@XZ 00439530 f i InstructionUI.obj
 0001:00038550       ??1?$map@W4InstructionUIState@@V?$shared_ptr@VAnimation@@@std@@U?$less@W4InstructionUIState@@@3@V?$allocator@U?$pair@$$CBW4InstructionUIState@@V?$shared_ptr@VAnimation@@@std@@@std@@@3@@std@@QAE@XZ 00439550 f i InstructionUI.obj
 0001:00038570       ??1?$pair@$$CBW4InstructionUIState@@V?$shared_ptr@VAnimation@@@std@@@std@@QAE@XZ 00439570 f i InstructionUI.obj
 0001:00038590       ??1?$pair@V?$_Tree_iterator@V?$_Tree_val@U?$_Tree_simple_types@U?$pair@$$CBW4InstructionUIState@@V?$shared_ptr@VAnimation@@@std@@@std@@@std@@@std@@@std@@_N@std@@QAE@XZ 00439590 f i InstructionUI.obj
 0001:000385b0       ??1?$pair@W4InstructionUIState@@V?$shared_ptr@VAnimation@@@std@@@std@@QAE@XZ 004395b0 f i InstructionUI.obj
 0001:000385d0       ??1InstructionUI@@UAE@XZ   004395d0 f i InstructionUI.obj
 0001:00038630       ??8?$_Tree_const_iterator@V?$_Tree_val@U?$_Tree_simple_types@U?$pair@$$CBW4InstructionUIState@@V?$shared_ptr@VAnimation@@@std@@@std@@@std@@@std@@@std@@QBE_NABV01@@Z 00439630 f i InstructionUI.obj
 0001:000386f0       ??9?$_Tree_const_iterator@V?$_Tree_val@U?$_Tree_simple_types@U?$pair@$$CBW4InstructionUIState@@V?$shared_ptr@VAnimation@@@std@@@std@@@std@@@std@@@std@@QBE_NABV01@@Z 004396f0 f i InstructionUI.obj
 0001:00038740       ??C?$_Tree_iterator@V?$_Tree_val@U?$_Tree_simple_types@U?$pair@$$CBW4InstructionUIState@@V?$shared_ptr@VAnimation@@@std@@@std@@@std@@@std@@@std@@QBEPAU?$pair@$$CBW4InstructionUIState@@V?$shared_ptr@VAnimation@@@std@@@1@XZ 00439740 f i InstructionUI.obj
 0001:00038770       ??D?$_Tree_const_iterator@V?$_Tree_val@U?$_Tree_simple_types@U?$pair@$$CBW4InstructionUIState@@V?$shared_ptr@VAnimation@@@std@@@std@@@std@@@std@@@std@@QBEABU?$pair@$$CBW4InstructionUIState@@V?$shared_ptr@VAnimation@@@std@@@1@XZ 00439770 f i InstructionUI.obj
 0001:00038880       ??D?$_Tree_iterator@V?$_Tree_val@U?$_Tree_simple_types@U?$pair@$$CBW4InstructionUIState@@V?$shared_ptr@VAnimation@@@std@@@std@@@std@@@std@@@std@@QBEAAU?$pair@$$CBW4InstructionUIState@@V?$shared_ptr@VAnimation@@@std@@@1@XZ 00439880 f i InstructionUI.obj
 0001:000388a0       ??R?$less@W4InstructionUIState@@@std@@QBE_NABW4InstructionUIState@@0@Z 004398a0 f i InstructionUI.obj
 0001:000388e0       ??_G?$Animator@W4InstructionUIState@@X@@QAEPAXI@Z 004398e0 f i InstructionUI.obj
 0001:00038920       ??_G?$pair@$$CBW4InstructionUIState@@V?$shared_ptr@VAnimation@@@std@@@std@@QAEPAXI@Z 00439920 f i InstructionUI.obj
 0001:00038960       ??_EInstructionUI@@UAEPAXI@Z 00439960 f i InstructionUI.obj
 0001:00038960       ??_GInstructionUI@@UAEPAXI@Z 00439960 f i InstructionUI.obj
 0001:000389a0       ?_Alloc_sentinel_and_proxy@?$_Tree@V?$_Tmap_traits@W4InstructionUIState@@V?$shared_ptr@VAnimation@@@std@@U?$less@W4InstructionUIState@@@3@V?$allocator@U?$pair@$$CBW4InstructionUIState@@V?$shared_ptr@VAnimation@@@std@@@std@@@3@$0A@@std@@@std@@IAEXXZ 004399a0 f i InstructionUI.obj
 0001:00038a70       ?_Allocate@?$_Alloc_construct_ptr@V?$allocator@U?$_Tree_node@U?$pair@$$CBW4InstructionUIState@@V?$shared_ptr@VAnimation@@@std@@@std@@PAX@std@@@std@@@std@@QAEXXZ 00439a70 f i InstructionUI.obj
 0001:00038aa0       ?_Check_grow_by_1@?$_Tree@V?$_Tmap_traits@W4InstructionUIState@@V?$shared_ptr@VAnimation@@@std@@U?$less@W4InstructionUIState@@@3@V?$allocator@U?$pair@$$CBW4InstructionUIState@@V?$shared_ptr@VAnimation@@@std@@@std@@@3@$0A@@std@@@std@@IAEXXZ 00439aa0 f i InstructionUI.obj
 0001:00038ae0       ?_Extract@?$_In_place_key_extract_map@W4InstructionUIState@@U?$pair@W4InstructionUIState@@V?$shared_ptr@VAnimation@@@std@@@std@@@std@@SAABW4InstructionUIState@@ABU?$pair@W4InstructionUIState@@V?$shared_ptr@VAnimation@@@std@@@2@@Z 00439ae0 f i InstructionUI.obj
 0001:00038af0       ?_Get_first@?$_Compressed_pair@U?$less@W4InstructionUIState@@@std@@V?$_Compressed_pair@V?$allocator@U?$_Tree_node@U?$pair@$$CBW4InstructionUIState@@V?$shared_ptr@VAnimation@@@std@@@std@@PAX@std@@@std@@V?$_Tree_val@U?$_Tree_simple_types@U?$pair@$$CBW4InstructionUIState@@V?$shared_ptr@VAnimation@@@std@@@std@@@std@@@2@$00@2@$00@std@@QBEABU?$less@W4InstructionUIState@@@2@XZ 00439af0 f i InstructionUI.obj
 0001:00038b10       ?_Get_first@?$_Compressed_pair@V?$allocator@U?$_Tree_node@U?$pair@$$CBW4InstructionUIState@@V?$shared_ptr@VAnimation@@@std@@@std@@PAX@std@@@std@@V?$_Tree_val@U?$_Tree_simple_types@U?$pair@$$CBW4InstructionUIState@@V?$shared_ptr@VAnimation@@@std@@@std@@@std@@@2@$00@std@@QAEAAV?$allocator@U?$_Tree_node@U?$pair@$$CBW4InstructionUIState@@V?$shared_ptr@VAnimation@@@std@@@std@@PAX@std@@@2@XZ 00439b10 f i InstructionUI.obj
 0001:00038b30       ?_Get_first@?$_Compressed_pair@V?$allocator@U?$_Tree_node@U?$pair@$$CBW4InstructionUIState@@V?$shared_ptr@VAnimation@@@std@@@std@@PAX@std@@@std@@V?$_Tree_val@U?$_Tree_simple_types@U?$pair@$$CBW4InstructionUIState@@V?$shared_ptr@VAnimation@@@std@@@std@@@std@@@2@$00@std@@QBEABV?$allocator@U?$_Tree_node@U?$pair@$$CBW4InstructionUIState@@V?$shared_ptr@VAnimation@@@std@@@std@@PAX@std@@@2@XZ 00439b30 f i InstructionUI.obj
 0001:00038b50       ?_Get_scary@?$_Tree@V?$_Tmap_traits@W4InstructionUIState@@V?$shared_ptr@VAnimation@@@std@@U?$less@W4InstructionUIState@@@3@V?$allocator@U?$pair@$$CBW4InstructionUIState@@V?$shared_ptr@VAnimation@@@std@@@std@@@3@$0A@@std@@@std@@IAEPAV?$_Tree_val@U?$_Tree_simple_types@U?$pair@$$CBW4InstructionUIState@@V?$shared_ptr@VAnimation@@@std@@@std@@@std@@@2@XZ 00439b50 f i InstructionUI.obj
 0001:00038b70       ?_Get_scary@?$_Tree@V?$_Tmap_traits@W4InstructionUIState@@V?$shared_ptr@VAnimation@@@std@@U?$less@W4InstructionUIState@@@3@V?$allocator@U?$pair@$$CBW4InstructionUIState@@V?$shared_ptr@VAnimation@@@std@@@std@@@3@$0A@@std@@@std@@IBEPBV?$_Tree_val@U?$_Tree_simple_types@U?$pair@$$CBW4InstructionUIState@@V?$shared_ptr@VAnimation@@@std@@@std@@@std@@@2@XZ 00439b70 f i InstructionUI.obj
 0001:00038b90       ?_Getal@?$_Tree@V?$_Tmap_traits@W4InstructionUIState@@V?$shared_ptr@VAnimation@@@std@@U?$less@W4InstructionUIState@@@3@V?$allocator@U?$pair@$$CBW4InstructionUIState@@V?$shared_ptr@VAnimation@@@std@@@std@@@3@$0A@@std@@@std@@IAEAAV?$allocator@U?$_Tree_node@U?$pair@$$CBW4InstructionUIState@@V?$shared_ptr@VAnimation@@@std@@@std@@PAX@std@@@2@XZ 00439b90 f i InstructionUI.obj
 0001:00038bb0       ?_Getal@?$_Tree@V?$_Tmap_traits@W4InstructionUIState@@V?$shared_ptr@VAnimation@@@std@@U?$less@W4InstructionUIState@@@3@V?$allocator@U?$pair@$$CBW4InstructionUIState@@V?$shared_ptr@VAnimation@@@std@@@std@@@3@$0A@@std@@@std@@IBEABV?$allocator@U?$_Tree_node@U?$pair@$$CBW4InstructionUIState@@V?$shared_ptr@VAnimation@@@std@@@std@@PAX@std@@@2@XZ 00439bb0 f i InstructionUI.obj
 0001:00038bd0       ?_Getcomp@?$_Tree@V?$_Tmap_traits@W4InstructionUIState@@V?$shared_ptr@VAnimation@@@std@@U?$less@W4InstructionUIState@@@3@V?$allocator@U?$pair@$$CBW4InstructionUIState@@V?$shared_ptr@VAnimation@@@std@@@std@@@3@$0A@@std@@@std@@IBEABU?$less@W4InstructionUIState@@@2@XZ 00439bd0 f i InstructionUI.obj
 0001:00038bf0       ?_Insert_node@?$_Tree_val@U?$_Tree_simple_types@U?$pair@$$CBW4InstructionUIState@@V?$shared_ptr@VAnimation@@@std@@@std@@@std@@@std@@QAEPAU?$_Tree_node@U?$pair@$$CBW4InstructionUIState@@V?$shared_ptr@VAnimation@@@std@@@std@@PAX@2@U?$_Tree_id@PAU?$_Tree_node@U?$pair@$$CBW4InstructionUIState@@V?$shared_ptr@VAnimation@@@std@@@std@@PAX@std@@@2@QAU32@@Z 00439bf0 f i InstructionUI.obj
 0001:00038e80       ?_Lrotate@?$_Tree_val@U?$_Tree_simple_types@U?$pair@$$CBW4InstructionUIState@@V?$shared_ptr@VAnimation@@@std@@@std@@@std@@@std@@QAEXPAU?$_Tree_node@U?$pair@$$CBW4InstructionUIState@@V?$shared_ptr@VAnimation@@@std@@@std@@PAX@2@@Z 00439e80 f i InstructionUI.obj
 0001:00038f40       ?_Release@?$_Alloc_construct_ptr@V?$allocator@U?$_Tree_node@U?$pair@$$CBW4InstructionUIState@@V?$shared_ptr@VAnimation@@@std@@@std@@PAX@std@@@std@@@std@@QAEPAU?$_Tree_node@U?$pair@$$CBW4InstructionUIState@@V?$shared_ptr@VAnimation@@@std@@@std@@PAX@2@XZ 00439f40 f i InstructionUI.obj
 0001:00038f70       ?_Rrotate@?$_Tree_val@U?$_Tree_simple_types@U?$pair@$$CBW4InstructionUIState@@V?$shared_ptr@VAnimation@@@std@@@std@@@std@@@std@@QAEXPAU?$_Tree_node@U?$pair@$$CBW4InstructionUIState@@V?$shared_ptr@VAnimation@@@std@@@std@@PAX@2@@Z 00439f70 f i InstructionUI.obj
 0001:00039040       ?addAnimation@?$Animator@W4InstructionUIState@@X@@QAEXW4InstructionUIState@@V?$shared_ptr@VAnimation@@@std@@@Z 0043a040 f i InstructionUI.obj
 0001:00039100       ?allocate@?$allocator@U?$_Tree_node@U?$pair@$$CBW4InstructionUIState@@V?$shared_ptr@VAnimation@@@std@@@std@@PAX@std@@@std@@QAEPAU?$_Tree_node@U?$pair@$$CBW4InstructionUIState@@V?$shared_ptr@VAnimation@@@std@@@std@@PAX@2@I@Z 0043a100 f i InstructionUI.obj
 0001:00039130       ?convertClickedToVirtualPixelXPosition@BaseEngine@@QAEHH@Z 0043a130 f i InstructionUI.obj
 0001:00039160       ?convertClickedToVirtualPixelYPosition@BaseEngine@@QAEHH@Z 0043a160 f i InstructionUI.obj
 0001:00039190       ?deallocate@?$_Default_allocator_traits@V?$allocator@U?$_Tree_node@U?$pair@$$CBW4InstructionUIState@@V?$shared_ptr@VAnimation@@@std@@@std@@PAX@std@@@std@@@std@@SAXAAV?$allocator@U?$_Tree_node@U?$pair@$$CBW4InstructionUIState@@V?$shared_ptr@VAnimation@@@std@@@std@@PAX@std@@@2@QAU?$_Tree_node@U?$pair@$$CBW4InstructionUIState@@V?$shared_ptr@VAnimation@@@std@@@std@@PAX@2@I@Z 0043a190 f i InstructionUI.obj
 0001:000391b0       ?deallocate@?$allocator@U?$_Tree_node@U?$pair@$$CBW4InstructionUIState@@V?$shared_ptr@VAnimation@@@std@@@std@@PAX@std@@@std@@QAEXQAU?$_Tree_node@U?$pair@$$CBW4InstructionUIState@@V?$shared_ptr@VAnimation@@@std@@@std@@PAX@2@I@Z 0043a1b0 f i InstructionUI.obj
 0001:000391e0       ?end@?$_Tree@V?$_Tmap_traits@W4InstructionUIState@@V?$shared_ptr@VAnimation@@@std@@U?$less@W4InstructionUIState@@@3@V?$allocator@U?$pair@$$CBW4InstructionUIState@@V?$shared_ptr@VAnimation@@@std@@@std@@@3@$0A@@std@@@std@@QAE?AV?$_Tree_iterator@V?$_Tree_val@U?$_Tree_simple_types@U?$pair@$$CBW4InstructionUIState@@V?$shared_ptr@VAnimation@@@std@@@std@@@std@@@std@@@2@XZ 0043a1e0 f i InstructionUI.obj
 0001:00039220       ?find@?$_Tree@V?$_Tmap_traits@W4InstructionUIState@@V?$shared_ptr@VAnimation@@@std@@U?$less@W4InstructionUIState@@@3@V?$allocator@U?$pair@$$CBW4InstructionUIState@@V?$shared_ptr@VAnimation@@@std@@@std@@@3@$0A@@std@@@std@@QAE?AV?$_Tree_iterator@V?$_Tree_val@U?$_Tree_simple_types@U?$pair@$$CBW4InstructionUIState@@V?$shared_ptr@VAnimation@@@std@@@std@@@std@@@std@@@2@ABW4InstructionUIState@@@Z 0043a220 f i InstructionUI.obj
 0001:00039270       ?isZoomMax@ViewCamera@@QAE_NXZ 0043a270 f i InstructionUI.obj
 0001:000392b0       ?isZoomMin@ViewCamera@@QAE_NXZ 0043a2b0 f i InstructionUI.obj
 0001:000392f0       ?max_size@?$_Default_allocator_traits@V?$allocator@U?$_Tree_node@U?$pair@$$CBW4InstructionUIState@@V?$shared_ptr@VAnimation@@@std@@@std@@PAX@std@@@std@@@std@@SAIABV?$allocator@U?$_Tree_node@U?$pair@$$CBW4InstructionUIState@@V?$shared_ptr@VAnimation@@@std@@@std@@PAX@std@@@2@@Z 0043a2f0 f i InstructionUI.obj
 0001:00039300       ?max_size@?$_Tree@V?$_Tmap_traits@W4InstructionUIState@@V?$shared_ptr@VAnimation@@@std@@U?$less@W4InstructionUIState@@@3@V?$allocator@U?$pair@$$CBW4InstructionUIState@@V?$shared_ptr@VAnimation@@@std@@@std@@@3@$0A@@std@@@std@@QBEIXZ 0043a300 f i InstructionUI.obj
 0001:00039350       ?play@?$Animator@W4InstructionUIState@@X@@QAEABVSimpleImage@@XZ 0043a350 f i InstructionUI.obj
 0001:00039390       ?pointer_to@?$pointer_traits@PAU?$pair@$$CBW4InstructionUIState@@V?$shared_ptr@VAnimation@@@std@@@std@@@std@@SAPAU?$pair@$$CBW4InstructionUIState@@V?$shared_ptr@VAnimation@@@std@@@2@AAU32@@Z 0043a390 f i InstructionUI.obj
 0001:000393b0       ?setAnimationState@?$Animator@W4InstructionUIState@@X@@QAEXW4InstructionUIState@@@Z 0043a3b0 f i InstructionUI.obj
 0001:000394d0       ?onCreate@IntroScene@@UAEXXZ 0043a4d0 f   IntroScene.obj
 0001:000394f0       ?onDestroy@IntroScene@@UAEXXZ 0043a4f0 f   IntroScene.obj
 0001:00039530       ?onActivate@IntroScene@@UAEXXZ 0043a530 f   IntroScene.obj
 0001:000395e0       ?onDeactivate@IntroScene@@UAEXXZ 0043a5e0 f   IntroScene.obj
 0001:00039620       ?virtMainLoopPreUpdate@IntroScene@@UAEXXZ 0043a620 f   IntroScene.obj
 0001:00039640       ?virtMainLoopDoBeforeUpdate@IntroScene@@UAEXXZ 0043a640 f   IntroScene.obj
 0001:00039660       ?virtPreDraw@IntroScene@@UAEXXZ 0043a660 f   IntroScene.obj
 0001:00039690       ?virtPostDraw@IntroScene@@UAEXXZ 0043a690 f   IntroScene.obj
 0001:000396a0       ?virtKeyDown@IntroScene@@UAEXH@Z 0043a6a0 f   IntroScene.obj
 0001:00039790       ??_GViewCamera@@QAEPAXI@Z  0043a790 f i IntroScene.obj
 0001:000397d0       ?notifyObjectsAboutKeys@BaseEngine@@QAEX_N@Z 0043a7d0 f i IntroScene.obj
 0001:000397f0       ?resetFactor@ViewCamera@@QAEXXZ 0043a7f0 f i IntroScene.obj
 0001:00039810       ?onCreate@LoadingScene@@UAEXXZ 0043a810 f   LoadingScene.obj
 0001:00039830       ?onDestroy@LoadingScene@@UAEXXZ 0043a830 f   LoadingScene.obj
 0001:00039890       ?onActivate@LoadingScene@@UAEXXZ 0043a890 f   LoadingScene.obj
 0001:00039930       ?onDeactivate@LoadingScene@@UAEXXZ 0043a930 f   LoadingScene.obj
 0001:00039970       ?virtMainLoopPreUpdate@LoadingScene@@UAEXXZ 0043a970 f   LoadingScene.obj
 0001:000399a0       ?virtPreDraw@LoadingScene@@UAEXXZ 0043a9a0 f   LoadingScene.obj
 0001:000399f0       ?virtKeyDown@LoadingScene@@UAEXH@Z 0043a9f0 f   LoadingScene.obj
 0001:00039a30       ?checkForTime@LoadingScene@@QAEXXZ 0043aa30 f   LoadingScene.obj
 0001:00039aa0       ?setSwitchToScene@LoadingScene@@QAEXW4SceneID@@@Z 0043aaa0 f   LoadingScene.obj
 0001:00039b60       ??0LoadingUI@@IAE@XZ       0043ab60 f   LoadingUI.obj
 0001:00039c40       ?getInstance@LoadingUI@@SAPAV1@XZ 0043ac40 f   LoadingUI.obj
 0001:00039cd0       ?virtStart@LoadingUI@@UAEXXZ 0043acd0 f   LoadingUI.obj
 0001:00039eb0       ?virtDoUpdate@LoadingUI@@UAEXH@Z 0043aeb0 f   LoadingUI.obj
 0001:00039ec0       ?virtDraw@LoadingUI@@UAEXXZ 0043aec0 f   LoadingUI.obj
 0001:0003a6d0       ??$?0$$V@?$_Compressed_pair@V?$allocator@U?$_Tree_node@U?$pair@$$CBW4LoadingUIState@@V?$shared_ptr@VAnimation@@@std@@@std@@PAX@std@@@std@@V?$_Tree_val@U?$_Tree_simple_types@U?$pair@$$CBW4LoadingUIState@@V?$shared_ptr@VAnimation@@@std@@@std@@@std@@@2@$00@std@@QAE@U_Zero_then_variadic_args_t@1@@Z 0043b6d0 f i LoadingUI.obj
 0001:0003a700       ??$?0AAPAU?$_Tree_node@U?$pair@$$CBW4LoadingUIState@@V?$shared_ptr@VAnimation@@@std@@@std@@PAX@std@@_N$0A@@?$pair@PAU?$_Tree_node@U?$pair@$$CBW4LoadingUIState@@V?$shared_ptr@VAnimation@@@std@@@std@@PAX@std@@_N@std@@QAE@AAPAU?$_Tree_node@U?$pair@$$CBW4LoadingUIState@@V?$shared_ptr@VAnimation@@@std@@@std@@PAX@1@$$QA_N@Z 0043b700 f i LoadingUI.obj
 0001:0003a750       ??$?0AAV?$allocator@D@std@@$$V@?$_Compressed_pair@V?$allocator@D@std@@V?$_String_val@U?$_Simple_types@D@std@@@2@$00@std@@QAE@U_One_then_variadic_args_t@1@AAV?$allocator@D@1@@Z 0043b750 f i LoadingUI.obj
 0001:0003a780       ??$?0AAW4LoadingUIState@@AAV?$shared_ptr@VAnimation@@@std@@$0A@@?$pair@W4LoadingUIState@@V?$shared_ptr@VAnimation@@@std@@@std@@QAE@AAW4LoadingUIState@@AAV?$shared_ptr@VAnimation@@@1@@Z 0043b780 f i LoadingUI.obj
 0001:0003a7d0       ??$?0ABU?$less@W4LoadingUIState@@@std@@U_Zero_then_variadic_args_t@1@@?$_Compressed_pair@U?$less@W4LoadingUIState@@@std@@V?$_Compressed_pair@V?$allocator@U?$_Tree_node@U?$pair@$$CBW4LoadingUIState@@V?$shared_ptr@VAnimation@@@std@@@std@@PAX@std@@@std@@V?$_Tree_val@U?$_Tree_simple_types@U?$pair@$$CBW4LoadingUIState@@V?$shared_ptr@VAnimation@@@std@@@std@@@std@@@2@$00@2@$00@std@@QAE@U_One_then_variadic_args_t@1@ABU?$less@W4LoadingUIState@@@1@$$QAU_Zero_then_variadic_args_t@1@@Z 0043b7d0 f i LoadingUI.obj
 0001:0003a820       ??$?0ABV?$allocator@D@std@@$$V@?$_Compressed_pair@V?$allocator@D@std@@V?$_String_val@U?$_Simple_types@D@std@@@2@$00@std@@QAE@U_One_then_variadic_args_t@1@ABV?$allocator@D@1@@Z 0043b820 f i LoadingUI.obj
 0001:0003a850       ??$?0PAD$0A@@?$basic_string@DU?$char_traits@D@std@@V?$allocator@D@2@@std@@QAE@PAD0ABV?$allocator@D@1@@Z 0043b850 f i LoadingUI.obj
 0001:0003a960       ??$?0PAU?$_Tree_node@U?$pair@$$CBW4LoadingUIState@@V?$shared_ptr@VAnimation@@@std@@@std@@PAX@std@@_N$0A@@?$pair@PAU?$_Tree_node@U?$pair@$$CBW4LoadingUIState@@V?$shared_ptr@VAnimation@@@std@@@std@@PAX@std@@_N@std@@QAE@$$QAPAU?$_Tree_node@U?$pair@$$CBW4LoadingUIState@@V?$shared_ptr@VAnimation@@@std@@@std@@PAX@1@$$QA_N@Z 0043b960 f i LoadingUI.obj
 0001:0003a9b0       ??$?0U?$_Tree_node@U?$pair@$$CBW4LoadingUIState@@V?$shared_ptr@VAnimation@@@std@@@std@@PAX@std@@@?$allocator@U_Container_proxy@std@@@std@@QAE@ABV?$allocator@U?$_Tree_node@U?$pair@$$CBW4LoadingUIState@@V?$shared_ptr@VAnimation@@@std@@@std@@PAX@std@@@1@@Z 0043b9b0 f i LoadingUI.obj
 0001:0003a9d0       ??$?0U?$pair@W4LoadingUIState@@V?$shared_ptr@VAnimation@@@std@@@std@@@?$_Tree_temp_node@V?$allocator@U?$_Tree_node@U?$pair@$$CBW4LoadingUIState@@V?$shared_ptr@VAnimation@@@std@@@std@@PAX@std@@@std@@@std@@QAE@AAV?$allocator@U?$_Tree_node@U?$pair@$$CBW4LoadingUIState@@V?$shared_ptr@VAnimation@@@std@@@std@@PAX@std@@@1@PAU?$_Tree_node@U?$pair@$$CBW4LoadingUIState@@V?$shared_ptr@VAnimation@@@std@@@std@@PAX@1@$$QAU?$pair@W4LoadingUIState@@V?$shared_ptr@VAnimation@@@std@@@1@@Z 0043b9d0 f i LoadingUI.obj
 0001:0003aae0       ??$?0V?$_Tree_iterator@V?$_Tree_val@U?$_Tree_simple_types@U?$pair@$$CBW4LoadingUIState@@V?$shared_ptr@VAnimation@@@std@@@std@@@std@@@std@@@std@@AB_N$0A@@?$pair@V?$_Tree_iterator@V?$_Tree_val@U?$_Tree_simple_types@U?$pair@$$CBW4LoadingUIState@@V?$shared_ptr@VAnimation@@@std@@@std@@@std@@@std@@@std@@_N@std@@QAE@$$QAV?$_Tree_iterator@V?$_Tree_val@U?$_Tree_simple_types@U?$pair@$$CBW4LoadingUIState@@V?$shared_ptr@VAnimation@@@std@@@std@@@std@@@std@@@1@AB_N@Z 0043bae0 f i LoadingUI.obj
 0001:0003ab30       ??$?0W4LoadingUIState@@V?$shared_ptr@VAnimation@@@std@@$0A@@?$pair@$$CBW4LoadingUIState@@V?$shared_ptr@VAnimation@@@std@@@std@@QAE@$$QAU?$pair@W4LoadingUIState@@V?$shared_ptr@VAnimation@@@std@@@1@@Z 0043bb30 f i LoadingUI.obj
 0001:0003ab80       ??$?0W4LoadingUIState@@V?$shared_ptr@VAnimation@@@std@@$0A@@?$pair@W4LoadingUIState@@V?$shared_ptr@VAnimation@@@std@@@std@@QAE@XZ 0043bb80 f i LoadingUI.obj
 0001:0003abc0       ??$?HDU?$char_traits@D@std@@V?$allocator@D@1@@std@@YA?AV?$basic_string@DU?$char_traits@D@std@@V?$allocator@D@2@@0@$$QAV10@0@Z 0043bbc0 f i LoadingUI.obj
 0001:0003ac90       ??$_Adl_verify_range@PADPAD@std@@YAXABQAD0@Z 0043bc90 f i LoadingUI.obj
 0001:0003acb0       ??$_Allocators_equal@V?$allocator@D@std@@@std@@YA_NABV?$allocator@D@0@0@Z 0043bcb0 f i LoadingUI.obj
 0001:0003acc0       ??$_Buyheadnode@V?$allocator@U?$_Tree_node@U?$pair@$$CBW4LoadingUIState@@V?$shared_ptr@VAnimation@@@std@@@std@@PAX@std@@@std@@@?$_Tree_node@U?$pair@$$CBW4LoadingUIState@@V?$shared_ptr@VAnimation@@@std@@@std@@PAX@std@@SAPAU01@AAV?$allocator@U?$_Tree_node@U?$pair@$$CBW4LoadingUIState@@V?$shared_ptr@VAnimation@@@std@@@std@@PAX@std@@@1@@Z 0043bcc0 f i LoadingUI.obj
 0001:0003ad40       ??$_Construct_in_place@PAU?$_Tree_node@U?$pair@$$CBW4LoadingUIState@@V?$shared_ptr@VAnimation@@@std@@@std@@PAX@std@@AAPAU12@@std@@YAXAAPAU?$_Tree_node@U?$pair@$$CBW4LoadingUIState@@V?$shared_ptr@VAnimation@@@std@@@std@@PAX@0@0@Z 0043bd40 f i LoadingUI.obj
 0001:0003ad90       ??$_Construct_in_place@PAU?$_Tree_node@U?$pair@$$CBW4LoadingUIState@@V?$shared_ptr@VAnimation@@@std@@@std@@PAX@std@@ABQAU12@@std@@YAXAAPAU?$_Tree_node@U?$pair@$$CBW4LoadingUIState@@V?$shared_ptr@VAnimation@@@std@@@std@@PAX@0@ABQAU10@@Z 0043bd90 f i LoadingUI.obj
 0001:0003ade0       ??$_Debug_lt_pred@ABU?$less@W4LoadingUIState@@@std@@ABW4LoadingUIState@@ABW43@$0A@@std@@YA_NABU?$less@W4LoadingUIState@@@0@ABW4LoadingUIState@@1@Z 0043bde0 f i LoadingUI.obj
 0001:0003ae90       ??$_Destroy_in_place@PAU?$_Tree_node@U?$pair@$$CBW4LoadingUIState@@V?$shared_ptr@VAnimation@@@std@@@std@@PAX@std@@@std@@YAXAAPAU?$_Tree_node@U?$pair@$$CBW4LoadingUIState@@V?$shared_ptr@VAnimation@@@std@@@std@@PAX@0@@Z 0043be90 f i LoadingUI.obj
 0001:0003aea0       ??$_Emplace@U?$pair@W4LoadingUIState@@V?$shared_ptr@VAnimation@@@std@@@std@@@?$_Tree@V?$_Tmap_traits@W4LoadingUIState@@V?$shared_ptr@VAnimation@@@std@@U?$less@W4LoadingUIState@@@3@V?$allocator@U?$pair@$$CBW4LoadingUIState@@V?$shared_ptr@VAnimation@@@std@@@std@@@3@$0A@@std@@@std@@IAE?AU?$pair@PAU?$_Tree_node@U?$pair@$$CBW4LoadingUIState@@V?$shared_ptr@VAnimation@@@std@@@std@@PAX@std@@_N@1@$$QAU?$pair@W4LoadingUIState@@V?$shared_ptr@VAnimation@@@std@@@1@@Z 0043bea0 f i LoadingUI.obj
 0001:0003afd0       ??$_Erase_head@V?$allocator@U?$_Tree_node@U?$pair@$$CBW4LoadingUIState@@V?$shared_ptr@VAnimation@@@std@@@std@@PAX@std@@@std@@@?$_Tree_val@U?$_Tree_simple_types@U?$pair@$$CBW4LoadingUIState@@V?$shared_ptr@VAnimation@@@std@@@std@@@std@@@std@@QAEXAAV?$allocator@U?$_Tree_node@U?$pair@$$CBW4LoadingUIState@@V?$shared_ptr@VAnimation@@@std@@@std@@PAX@std@@@1@@Z 0043bfd0 f i LoadingUI.obj
 0001:0003b020       ??$_Erase_tree@V?$allocator@U?$_Tree_node@U?$pair@$$CBW4LoadingUIState@@V?$shared_ptr@VAnimation@@@std@@@std@@PAX@std@@@std@@@?$_Tree_val@U?$_Tree_simple_types@U?$pair@$$CBW4LoadingUIState@@V?$shared_ptr@VAnimation@@@std@@@std@@@std@@@std@@QAEXAAV?$allocator@U?$_Tree_node@U?$pair@$$CBW4LoadingUIState@@V?$shared_ptr@VAnimation@@@std@@@std@@PAX@std@@@1@PAU?$_Tree_node@U?$pair@$$CBW4LoadingUIState@@V?$shared_ptr@VAnimation@@@std@@@std@@PAX@1@@Z 0043c020 f i LoadingUI.obj
 0001:0003b080       ??$_Find@W4LoadingUIState@@@?$_Tree@V?$_Tmap_traits@W4LoadingUIState@@V?$shared_ptr@VAnimation@@@std@@U?$less@W4LoadingUIState@@@3@V?$allocator@U?$pair@$$CBW4LoadingUIState@@V?$shared_ptr@VAnimation@@@std@@@std@@@3@$0A@@std@@@std@@ABEPAU?$_Tree_node@U?$pair@$$CBW4LoadingUIState@@V?$shared_ptr@VAnimation@@@std@@@std@@PAX@1@ABW4LoadingUIState@@@Z 0043c080 f i LoadingUI.obj
 0001:0003b0e0       ??$_Find_lower_bound@W4LoadingUIState@@@?$_Tree@V?$_Tmap_traits@W4LoadingUIState@@V?$shared_ptr@VAnimation@@@std@@U?$less@W4LoadingUIState@@@3@V?$allocator@U?$pair@$$CBW4LoadingUIState@@V?$shared_ptr@VAnimation@@@std@@@std@@@3@$0A@@std@@@std@@IBE?AU?$_Tree_find_result@PAU?$_Tree_node@U?$pair@$$CBW4LoadingUIState@@V?$shared_ptr@VAnimation@@@std@@@std@@PAX@std@@@1@ABW4LoadingUIState@@@Z 0043c0e0 f i LoadingUI.obj
 0001:0003b1d0       ??$_Freenode0@V?$allocator@U?$_Tree_node@U?$pair@$$CBW4LoadingUIState@@V?$shared_ptr@VAnimation@@@std@@@std@@PAX@std@@@std@@@?$_Tree_node@U?$pair@$$CBW4LoadingUIState@@V?$shared_ptr@VAnimation@@@std@@@std@@PAX@std@@SAXAAV?$allocator@U?$_Tree_node@U?$pair@$$CBW4LoadingUIState@@V?$shared_ptr@VAnimation@@@std@@@std@@PAX@std@@@1@PAU01@@Z 0043c1d0 f i LoadingUI.obj
 0001:0003b260       ??$_Freenode@V?$allocator@U?$_Tree_node@U?$pair@$$CBW4LoadingUIState@@V?$shared_ptr@VAnimation@@@std@@@std@@PAX@std@@@std@@@?$_Tree_node@U?$pair@$$CBW4LoadingUIState@@V?$shared_ptr@VAnimation@@@std@@@std@@PAX@std@@SAXAAV?$allocator@U?$_Tree_node@U?$pair@$$CBW4LoadingUIState@@V?$shared_ptr@VAnimation@@@std@@@std@@PAX@std@@@1@PAU01@@Z 0043c260 f i LoadingUI.obj
 0001:0003b2e0       ??$_Get_unwrapped@AAPAD@std@@YA@AAPAD@Z 0043c2e0 f i LoadingUI.obj
 0001:0003b2f0       ??$_Kfn@$$CBW4LoadingUIState@@V?$shared_ptr@VAnimation@@@std@@@?$_Tmap_traits@W4LoadingUIState@@V?$shared_ptr@VAnimation@@@std@@U?$less@W4LoadingUIState@@@3@V?$allocator@U?$pair@$$CBW4LoadingUIState@@V?$shared_ptr@VAnimation@@@std@@@std@@@3@$0A@@std@@SAABW4LoadingUIState@@ABU?$pair@$$CBW4LoadingUIState@@V?$shared_ptr@VAnimation@@@std@@@1@@Z 0043c2f0 f i LoadingUI.obj
 0001:0003b300       ??$_Lower_bound_duplicate@W4LoadingUIState@@@?$_Tree@V?$_Tmap_traits@W4LoadingUIState@@V?$shared_ptr@VAnimation@@@std@@U?$less@W4LoadingUIState@@@3@V?$allocator@U?$pair@$$CBW4LoadingUIState@@V?$shared_ptr@VAnimation@@@std@@@std@@@3@$0A@@std@@@std@@IBE_NQAU?$_Tree_node@U?$pair@$$CBW4LoadingUIState@@V?$shared_ptr@VAnimation@@@std@@@std@@PAX@1@ABW4LoadingUIState@@@Z 0043c300 f i LoadingUI.obj
 0001:0003b370       ??$_UIntegral_to_buff@DI@std@@YAPADPADI@Z 0043c370 f i LoadingUI.obj
 0001:0003b3d0       ??$_UIntegral_to_string@DI@std@@YA?AV?$basic_string@DU?$char_traits@D@std@@V?$allocator@D@2@@0@I@Z 0043c3d0 f i LoadingUI.obj
 0001:0003b460       ??$_Verify_range@D@std@@YAXQBD0@Z 0043c460 f i LoadingUI.obj
 0001:0003b4e0       ??$addressof@$$CBV?$_Tree_val@U?$_Tree_simple_types@U?$pair@$$CBW4LoadingUIState@@V?$shared_ptr@VAnimation@@@std@@@std@@@std@@@std@@@std@@YAPBV?$_Tree_val@U?$_Tree_simple_types@U?$pair@$$CBW4LoadingUIState@@V?$shared_ptr@VAnimation@@@std@@@std@@@std@@@0@ABV10@@Z 0043c4e0 f i LoadingUI.obj
 0001:0003b4f0       ??$addressof@PAU?$_Tree_node@U?$pair@$$CBW4LoadingUIState@@V?$shared_ptr@VAnimation@@@std@@@std@@PAX@std@@@std@@YAPAPAU?$_Tree_node@U?$pair@$$CBW4LoadingUIState@@V?$shared_ptr@VAnimation@@@std@@@std@@PAX@0@AAPAU10@@Z 0043c4f0 f i LoadingUI.obj
 0001:0003b500       ??$addressof@U?$pair@$$CBW4LoadingUIState@@V?$shared_ptr@VAnimation@@@std@@@std@@@std@@YAPAU?$pair@$$CBW4LoadingUIState@@V?$shared_ptr@VAnimation@@@std@@@0@AAU10@@Z 0043c500 f i LoadingUI.obj
 0001:0003b510       ??$addressof@V?$_Tree_val@U?$_Tree_simple_types@U?$pair@$$CBW4LoadingUIState@@V?$shared_ptr@VAnimation@@@std@@@std@@@std@@@std@@@std@@YAPAV?$_Tree_val@U?$_Tree_simple_types@U?$pair@$$CBW4LoadingUIState@@V?$shared_ptr@VAnimation@@@std@@@std@@@std@@@0@AAV10@@Z 0043c510 f i LoadingUI.obj
 0001:0003b520       ??$addressof@V?$basic_string@DU?$char_traits@D@std@@V?$allocator@D@2@@std@@@std@@YAPAV?$basic_string@DU?$char_traits@D@std@@V?$allocator@D@2@@0@AAV10@@Z 0043c520 f i LoadingUI.obj
 0001:0003b530       ??$construct@U?$pair@$$CBW4LoadingUIState@@V?$shared_ptr@VAnimation@@@std@@@std@@U?$pair@W4LoadingUIState@@V?$shared_ptr@VAnimation@@@std@@@2@@?$_Default_allocator_traits@V?$allocator@U?$_Tree_node@U?$pair@$$CBW4LoadingUIState@@V?$shared_ptr@VAnimation@@@std@@@std@@PAX@std@@@std@@@std@@SAXAAV?$allocator@U?$_Tree_node@U?$pair@$$CBW4LoadingUIState@@V?$shared_ptr@VAnimation@@@std@@@std@@PAX@std@@@1@QAU?$pair@$$CBW4LoadingUIState@@V?$shared_ptr@VAnimation@@@std@@@1@$$QAU?$pair@W4LoadingUIState@@V?$shared_ptr@VAnimation@@@std@@@1@@Z 0043c530 f i LoadingUI.obj
 0001:0003b570       ??$destroy@U?$pair@$$CBW4LoadingUIState@@V?$shared_ptr@VAnimation@@@std@@@std@@@?$_Default_allocator_traits@V?$allocator@U?$_Tree_node@U?$pair@$$CBW4LoadingUIState@@V?$shared_ptr@VAnimation@@@std@@@std@@PAX@std@@@std@@@std@@SAXAAV?$allocator@U?$_Tree_node@U?$pair@$$CBW4LoadingUIState@@V?$shared_ptr@VAnimation@@@std@@@std@@PAX@std@@@1@QAU?$pair@$$CBW4LoadingUIState@@V?$shared_ptr@VAnimation@@@std@@@1@@Z 0043c570 f i LoadingUI.obj
 0001:0003b590       ??$emplace@U?$pair@W4LoadingUIState@@V?$shared_ptr@VAnimation@@@std@@@std@@@?$_Tree@V?$_Tmap_traits@W4LoadingUIState@@V?$shared_ptr@VAnimation@@@std@@U?$less@W4LoadingUIState@@@3@V?$allocator@U?$pair@$$CBW4LoadingUIState@@V?$shared_ptr@VAnimation@@@std@@@std@@@3@$0A@@std@@@std@@QAE?AU?$pair@V?$_Tree_iterator@V?$_Tree_val@U?$_Tree_simple_types@U?$pair@$$CBW4LoadingUIState@@V?$shared_ptr@VAnimation@@@std@@@std@@@std@@@std@@@std@@_N@1@$$QAU?$pair@W4LoadingUIState@@V?$shared_ptr@VAnimation@@@std@@@1@@Z 0043c590 f i LoadingUI.obj
 0001:0003b620       ??$end@D$0BF@@std@@YAPADAAY0BF@D@Z 0043c620 f i LoadingUI.obj
 0001:0003b630       ??$exchange@PAU?$_Tree_node@U?$pair@$$CBW4LoadingUIState@@V?$shared_ptr@VAnimation@@@std@@@std@@PAX@std@@$$T@std@@YAPAU?$_Tree_node@U?$pair@$$CBW4LoadingUIState@@V?$shared_ptr@VAnimation@@@std@@@std@@PAX@0@AAPAU10@$$QA$$T@Z 0043c630 f i LoadingUI.obj
 0001:0003b660       ??$exchange@PAU?$_Tree_node@U?$pair@$$CBW4LoadingUIState@@V?$shared_ptr@VAnimation@@@std@@@std@@PAX@std@@AAPAU12@@std@@YAPAU?$_Tree_node@U?$pair@$$CBW4LoadingUIState@@V?$shared_ptr@VAnimation@@@std@@@std@@PAX@0@AAPAU10@0@Z 0043c660 f i LoadingUI.obj
 0001:0003b690       ??$forward@AAPAU?$_Tree_node@U?$pair@$$CBW4LoadingUIState@@V?$shared_ptr@VAnimation@@@std@@@std@@PAX@std@@@std@@YAAAPAU?$_Tree_node@U?$pair@$$CBW4LoadingUIState@@V?$shared_ptr@VAnimation@@@std@@@std@@PAX@0@AAPAU10@@Z 0043c690 f i LoadingUI.obj
 0001:0003b6a0       ??$forward@AAV?$allocator@D@std@@@std@@YAAAV?$allocator@D@0@AAV10@@Z 0043c6a0 f i LoadingUI.obj
 0001:0003b6b0       ??$forward@AAW4LoadingUIState@@@std@@YAAAW4LoadingUIState@@AAW41@@Z 0043c6b0 f i LoadingUI.obj
 0001:0003b6c0       ??$forward@ABQAU?$_Tree_node@U?$pair@$$CBW4LoadingUIState@@V?$shared_ptr@VAnimation@@@std@@@std@@PAX@std@@@std@@YAABQAU?$_Tree_node@U?$pair@$$CBW4LoadingUIState@@V?$shared_ptr@VAnimation@@@std@@@std@@PAX@0@ABQAU10@@Z 0043c6c0 f i LoadingUI.obj
 0001:0003b6d0       ??$forward@ABU?$less@W4LoadingUIState@@@std@@@std@@YAABU?$less@W4LoadingUIState@@@0@ABU10@@Z 0043c6d0 f i LoadingUI.obj
 0001:0003b6e0       ??$forward@ABV?$allocator@D@std@@@std@@YAABV?$allocator@D@0@ABV10@@Z 0043c6e0 f i LoadingUI.obj
 0001:0003b6f0       ??$forward@PAU?$_Tree_node@U?$pair@$$CBW4LoadingUIState@@V?$shared_ptr@VAnimation@@@std@@@std@@PAX@std@@@std@@YA$$QAPAU?$_Tree_node@U?$pair@$$CBW4LoadingUIState@@V?$shared_ptr@VAnimation@@@std@@@std@@PAX@0@AAPAU10@@Z 0043c6f0 f i LoadingUI.obj
 0001:0003b700       ??$forward@U?$pair@W4LoadingUIState@@V?$shared_ptr@VAnimation@@@std@@@std@@@std@@YA$$QAU?$pair@W4LoadingUIState@@V?$shared_ptr@VAnimation@@@std@@@0@AAU10@@Z 0043c700 f i LoadingUI.obj
 0001:0003b710       ??$forward@V?$_Tree_iterator@V?$_Tree_val@U?$_Tree_simple_types@U?$pair@$$CBW4LoadingUIState@@V?$shared_ptr@VAnimation@@@std@@@std@@@std@@@std@@@std@@@std@@YA$$QAV?$_Tree_iterator@V?$_Tree_val@U?$_Tree_simple_types@U?$pair@$$CBW4LoadingUIState@@V?$shared_ptr@VAnimation@@@std@@@std@@@std@@@std@@@0@AAV10@@Z 0043c710 f i LoadingUI.obj
 0001:0003b720       ??$forward@W4LoadingUIState@@@std@@YA$$QAW4LoadingUIState@@AAW41@@Z 0043c720 f i LoadingUI.obj
 0001:0003b730       ??$insert@U?$pair@W4LoadingUIState@@V?$shared_ptr@VAnimation@@@std@@@std@@$0A@@?$map@W4LoadingUIState@@V?$shared_ptr@VAnimation@@@std@@U?$less@W4LoadingUIState@@@3@V?$allocator@U?$pair@$$CBW4LoadingUIState@@V?$shared_ptr@VAnimation@@@std@@@std@@@3@@std@@QAE?AU?$pair@V?$_Tree_iterator@V?$_Tree_val@U?$_Tree_simple_types@U?$pair@$$CBW4LoadingUIState@@V?$shared_ptr@VAnimation@@@std@@@std@@@std@@@std@@@std@@_N@1@$$QAU?$pair@W4LoadingUIState@@V?$shared_ptr@VAnimation@@@std@@@1@@Z 0043c730 f i LoadingUI.obj
 0001:0003b780       ??$make_pair@AAW4LoadingUIState@@AAV?$shared_ptr@VAnimation@@@std@@@std@@YA?AU?$pair@W4LoadingUIState@@V?$shared_ptr@VAnimation@@@std@@@0@AAW4LoadingUIState@@AAV?$shared_ptr@VAnimation@@@0@@Z 0043c780 f i LoadingUI.obj
 0001:0003b7c0       ??0?$Animator@W4LoadingUIState@@X@@QAE@XZ 0043c7c0 f i LoadingUI.obj
 0001:0003b7f0       ??0?$_Alloc_construct_ptr@V?$allocator@U?$_Tree_node@U?$pair@$$CBW4LoadingUIState@@V?$shared_ptr@VAnimation@@@std@@@std@@PAX@std@@@std@@@std@@QAE@AAV?$allocator@U?$_Tree_node@U?$pair@$$CBW4LoadingUIState@@V?$shared_ptr@VAnimation@@@std@@@std@@PAX@std@@@1@@Z 0043c7f0 f i LoadingUI.obj
 0001:0003b820       ??0?$_Tree@V?$_Tmap_traits@W4LoadingUIState@@V?$shared_ptr@VAnimation@@@std@@U?$less@W4LoadingUIState@@@3@V?$allocator@U?$pair@$$CBW4LoadingUIState@@V?$shared_ptr@VAnimation@@@std@@@std@@@3@$0A@@std@@@std@@QAE@ABU?$less@W4LoadingUIState@@@1@@Z 0043c820 f i LoadingUI.obj
 0001:0003b860       ??0?$_Tree_const_iterator@V?$_Tree_val@U?$_Tree_simple_types@U?$pair@$$CBW4LoadingUIState@@V?$shared_ptr@VAnimation@@@std@@@std@@@std@@@std@@@std@@QAE@$$QAV01@@Z 0043c860 f i LoadingUI.obj
 0001:0003b890       ??0?$_Tree_const_iterator@V?$_Tree_val@U?$_Tree_simple_types@U?$pair@$$CBW4LoadingUIState@@V?$shared_ptr@VAnimation@@@std@@@std@@@std@@@std@@@std@@QAE@PAU?$_Tree_node@U?$pair@$$CBW4LoadingUIState@@V?$shared_ptr@VAnimation@@@std@@@std@@PAX@1@PBV?$_Tree_val@U?$_Tree_simple_types@U?$pair@$$CBW4LoadingUIState@@V?$shared_ptr@VAnimation@@@std@@@std@@@std@@@1@@Z 0043c890 f i LoadingUI.obj
 0001:0003b8c0       ??0?$_Tree_iterator@V?$_Tree_val@U?$_Tree_simple_types@U?$pair@$$CBW4LoadingUIState@@V?$shared_ptr@VAnimation@@@std@@@std@@@std@@@std@@@std@@QAE@$$QAV01@@Z 0043c8c0 f i LoadingUI.obj
 0001:0003b8f0       ??0?$_Tree_iterator@V?$_Tree_val@U?$_Tree_simple_types@U?$pair@$$CBW4LoadingUIState@@V?$shared_ptr@VAnimation@@@std@@@std@@@std@@@std@@@std@@QAE@PAU?$_Tree_node@U?$pair@$$CBW4LoadingUIState@@V?$shared_ptr@VAnimation@@@std@@@std@@PAX@1@PBV?$_Tree_val@U?$_Tree_simple_types@U?$pair@$$CBW4LoadingUIState@@V?$shared_ptr@VAnimation@@@std@@@std@@@std@@@1@@Z 0043c8f0 f i LoadingUI.obj
 0001:0003b920       ??0?$_Tree_temp_node_alloc@V?$allocator@U?$_Tree_node@U?$pair@$$CBW4LoadingUIState@@V?$shared_ptr@VAnimation@@@std@@@std@@PAX@std@@@std@@@std@@QAE@AAV?$allocator@U?$_Tree_node@U?$pair@$$CBW4LoadingUIState@@V?$shared_ptr@VAnimation@@@std@@@std@@PAX@std@@@1@@Z 0043c920 f i LoadingUI.obj
 0001:0003b9a0       ??0?$_Tree_unchecked_const_iterator@V?$_Tree_val@U?$_Tree_simple_types@U?$pair@$$CBW4LoadingUIState@@V?$shared_ptr@VAnimation@@@std@@@std@@@std@@@std@@U_Iterator_base12@2@@std@@QAE@$$QAV01@@Z 0043c9a0 f i LoadingUI.obj
 0001:0003b9e0       ??0?$_Tree_unchecked_const_iterator@V?$_Tree_val@U?$_Tree_simple_types@U?$pair@$$CBW4LoadingUIState@@V?$shared_ptr@VAnimation@@@std@@@std@@@std@@@std@@U_Iterator_base12@2@@std@@QAE@PAU?$_Tree_node@U?$pair@$$CBW4LoadingUIState@@V?$shared_ptr@VAnimation@@@std@@@std@@PAX@1@PBV?$_Tree_val@U?$_Tree_simple_types@U?$pair@$$CBW4LoadingUIState@@V?$shared_ptr@VAnimation@@@std@@@std@@@std@@@1@@Z 0043c9e0 f i LoadingUI.obj
 0001:0003ba20       ??0?$_Tree_val@U?$_Tree_simple_types@U?$pair@$$CBW4LoadingUIState@@V?$shared_ptr@VAnimation@@@std@@@std@@@std@@@std@@QAE@XZ 0043ca20 f i LoadingUI.obj
 0001:0003ba60       ??0?$allocator@U?$_Tree_node@U?$pair@$$CBW4LoadingUIState@@V?$shared_ptr@VAnimation@@@std@@@std@@PAX@std@@@std@@QAE@XZ 0043ca60 f i LoadingUI.obj
 0001:0003ba80       ??0?$basic_string@DU?$char_traits@D@std@@V?$allocator@D@2@@std@@QAE@U_String_constructor_concat_tag@1@AAV01@1@Z 0043ca80 f i LoadingUI.obj
 0001:0003be50       ??0?$basic_string@DU?$char_traits@D@std@@V?$allocator@D@2@@std@@QAE@XZ 0043ce50 f i LoadingUI.obj
 0001:0003bee0       ??0?$map@W4LoadingUIState@@V?$shared_ptr@VAnimation@@@std@@U?$less@W4LoadingUIState@@@3@V?$allocator@U?$pair@$$CBW4LoadingUIState@@V?$shared_ptr@VAnimation@@@std@@@std@@@3@@std@@QAE@XZ 0043cee0 f i LoadingUI.obj
 0001:0003bf10       ??1?$Animator@W4LoadingUIState@@X@@QAE@XZ 0043cf10 f i LoadingUI.obj
 0001:0003bf40       ??1?$_Alloc_construct_ptr@V?$allocator@U?$_Tree_node@U?$pair@$$CBW4LoadingUIState@@V?$shared_ptr@VAnimation@@@std@@@std@@PAX@std@@@std@@@std@@QAE@XZ 0043cf40 f i LoadingUI.obj
 0001:0003bfb0       ??1?$_Tree@V?$_Tmap_traits@W4LoadingUIState@@V?$shared_ptr@VAnimation@@@std@@U?$less@W4LoadingUIState@@@3@V?$allocator@U?$pair@$$CBW4LoadingUIState@@V?$shared_ptr@VAnimation@@@std@@@std@@@3@$0A@@std@@@std@@QAE@XZ 0043cfb0 f i LoadingUI.obj
 0001:0003c020       ??1?$_Tree_const_iterator@V?$_Tree_val@U?$_Tree_simple_types@U?$pair@$$CBW4LoadingUIState@@V?$shared_ptr@VAnimation@@@std@@@std@@@std@@@std@@@std@@QAE@XZ 0043d020 f i LoadingUI.obj
 0001:0003c040       ??1?$_Tree_iterator@V?$_Tree_val@U?$_Tree_simple_types@U?$pair@$$CBW4LoadingUIState@@V?$shared_ptr@VAnimation@@@std@@@std@@@std@@@std@@@std@@QAE@XZ 0043d040 f i LoadingUI.obj
 0001:0003c060       ??1?$_Tree_temp_node@V?$allocator@U?$_Tree_node@U?$pair@$$CBW4LoadingUIState@@V?$shared_ptr@VAnimation@@@std@@@std@@PAX@std@@@std@@@std@@QAE@XZ 0043d060 f i LoadingUI.obj
 0001:0003c130       ??1?$_Tree_temp_node_alloc@V?$allocator@U?$_Tree_node@U?$pair@$$CBW4LoadingUIState@@V?$shared_ptr@VAnimation@@@std@@@std@@PAX@std@@@std@@@std@@QAE@XZ 0043d130 f i LoadingUI.obj
 0001:0003c150       ??1?$_Tree_unchecked_const_iterator@V?$_Tree_val@U?$_Tree_simple_types@U?$pair@$$CBW4LoadingUIState@@V?$shared_ptr@VAnimation@@@std@@@std@@@std@@@std@@U_Iterator_base12@2@@std@@QAE@XZ 0043d150 f i LoadingUI.obj
 0001:0003c170       ??1?$map@W4LoadingUIState@@V?$shared_ptr@VAnimation@@@std@@U?$less@W4LoadingUIState@@@3@V?$allocator@U?$pair@$$CBW4LoadingUIState@@V?$shared_ptr@VAnimation@@@std@@@std@@@3@@std@@QAE@XZ 0043d170 f i LoadingUI.obj
 0001:0003c190       ??1?$pair@$$CBW4LoadingUIState@@V?$shared_ptr@VAnimation@@@std@@@std@@QAE@XZ 0043d190 f i LoadingUI.obj
 0001:0003c1b0       ??1?$pair@V?$_Tree_iterator@V?$_Tree_val@U?$_Tree_simple_types@U?$pair@$$CBW4LoadingUIState@@V?$shared_ptr@VAnimation@@@std@@@std@@@std@@@std@@@std@@_N@std@@QAE@XZ 0043d1b0 f i LoadingUI.obj
 0001:0003c1d0       ??1?$pair@W4LoadingUIState@@V?$shared_ptr@VAnimation@@@std@@@std@@QAE@XZ 0043d1d0 f i LoadingUI.obj
 0001:0003c1f0       ??1LoadingUI@@UAE@XZ       0043d1f0 f i LoadingUI.obj
 0001:0003c260       ??8?$_Tree_const_iterator@V?$_Tree_val@U?$_Tree_simple_types@U?$pair@$$CBW4LoadingUIState@@V?$shared_ptr@VAnimation@@@std@@@std@@@std@@@std@@@std@@QBE_NABV01@@Z 0043d260 f i LoadingUI.obj
 0001:0003c320       ??9?$_Tree_const_iterator@V?$_Tree_val@U?$_Tree_simple_types@U?$pair@$$CBW4LoadingUIState@@V?$shared_ptr@VAnimation@@@std@@@std@@@std@@@std@@@std@@QBE_NABV01@@Z 0043d320 f i LoadingUI.obj
 0001:0003c370       ??C?$_Tree_iterator@V?$_Tree_val@U?$_Tree_simple_types@U?$pair@$$CBW4LoadingUIState@@V?$shared_ptr@VAnimation@@@std@@@std@@@std@@@std@@@std@@QBEPAU?$pair@$$CBW4LoadingUIState@@V?$shared_ptr@VAnimation@@@std@@@1@XZ 0043d370 f i LoadingUI.obj
 0001:0003c3a0       ??D?$_Tree_const_iterator@V?$_Tree_val@U?$_Tree_simple_types@U?$pair@$$CBW4LoadingUIState@@V?$shared_ptr@VAnimation@@@std@@@std@@@std@@@std@@@std@@QBEABU?$pair@$$CBW4LoadingUIState@@V?$shared_ptr@VAnimation@@@std@@@1@XZ 0043d3a0 f i LoadingUI.obj
 0001:0003c4b0       ??D?$_Tree_iterator@V?$_Tree_val@U?$_Tree_simple_types@U?$pair@$$CBW4LoadingUIState@@V?$shared_ptr@VAnimation@@@std@@@std@@@std@@@std@@@std@@QBEAAU?$pair@$$CBW4LoadingUIState@@V?$shared_ptr@VAnimation@@@std@@@1@XZ 0043d4b0 f i LoadingUI.obj
 0001:0003c4d0       ??R?$less@W4LoadingUIState@@@std@@QBE_NABW4LoadingUIState@@0@Z 0043d4d0 f i LoadingUI.obj
 0001:0003c510       ??_G?$Animator@W4LoadingUIState@@X@@QAEPAXI@Z 0043d510 f i LoadingUI.obj
 0001:0003c550       ??_G?$pair@$$CBW4LoadingUIState@@V?$shared_ptr@VAnimation@@@std@@@std@@QAEPAXI@Z 0043d550 f i LoadingUI.obj
 0001:0003c590       ??_GLoadingUI@@UAEPAXI@Z   0043d590 f i LoadingUI.obj
 0001:0003c590       ??_ELoadingUI@@UAEPAXI@Z   0043d590 f i LoadingUI.obj
 0001:0003c5d0       ?_Alloc_sentinel_and_proxy@?$_Tree@V?$_Tmap_traits@W4LoadingUIState@@V?$shared_ptr@VAnimation@@@std@@U?$less@W4LoadingUIState@@@3@V?$allocator@U?$pair@$$CBW4LoadingUIState@@V?$shared_ptr@VAnimation@@@std@@@std@@@3@$0A@@std@@@std@@IAEXXZ 0043d5d0 f i LoadingUI.obj
 0001:0003c6a0       ?_Allocate@?$_Alloc_construct_ptr@V?$allocator@U?$_Tree_node@U?$pair@$$CBW4LoadingUIState@@V?$shared_ptr@VAnimation@@@std@@@std@@PAX@std@@@std@@@std@@QAEXXZ 0043d6a0 f i LoadingUI.obj
 0001:0003c6d0       ?_Check_grow_by_1@?$_Tree@V?$_Tmap_traits@W4LoadingUIState@@V?$shared_ptr@VAnimation@@@std@@U?$less@W4LoadingUIState@@@3@V?$allocator@U?$pair@$$CBW4LoadingUIState@@V?$shared_ptr@VAnimation@@@std@@@std@@@3@$0A@@std@@@std@@IAEXXZ 0043d6d0 f i LoadingUI.obj
 0001:0003c710       ?_Construct@?$basic_string@DU?$char_traits@D@std@@V?$allocator@D@2@@std@@QAEXQAD0Urandom_access_iterator_tag@2@@Z 0043d710 f i LoadingUI.obj
 0001:0003c750       ?_Extract@?$_In_place_key_extract_map@W4LoadingUIState@@U?$pair@W4LoadingUIState@@V?$shared_ptr@VAnimation@@@std@@@std@@@std@@SAABW4LoadingUIState@@ABU?$pair@W4LoadingUIState@@V?$shared_ptr@VAnimation@@@std@@@2@@Z 0043d750 f i LoadingUI.obj
 0001:0003c760       ?_Get_first@?$_Compressed_pair@U?$less@W4LoadingUIState@@@std@@V?$_Compressed_pair@V?$allocator@U?$_Tree_node@U?$pair@$$CBW4LoadingUIState@@V?$shared_ptr@VAnimation@@@std@@@std@@PAX@std@@@std@@V?$_Tree_val@U?$_Tree_simple_types@U?$pair@$$CBW4LoadingUIState@@V?$shared_ptr@VAnimation@@@std@@@std@@@std@@@2@$00@2@$00@std@@QBEABU?$less@W4LoadingUIState@@@2@XZ 0043d760 f i LoadingUI.obj
 0001:0003c780       ?_Get_first@?$_Compressed_pair@V?$allocator@U?$_Tree_node@U?$pair@$$CBW4LoadingUIState@@V?$shared_ptr@VAnimation@@@std@@@std@@PAX@std@@@std@@V?$_Tree_val@U?$_Tree_simple_types@U?$pair@$$CBW4LoadingUIState@@V?$shared_ptr@VAnimation@@@std@@@std@@@std@@@2@$00@std@@QAEAAV?$allocator@U?$_Tree_node@U?$pair@$$CBW4LoadingUIState@@V?$shared_ptr@VAnimation@@@std@@@std@@PAX@std@@@2@XZ 0043d780 f i LoadingUI.obj
 0001:0003c7a0       ?_Get_first@?$_Compressed_pair@V?$allocator@U?$_Tree_node@U?$pair@$$CBW4LoadingUIState@@V?$shared_ptr@VAnimation@@@std@@@std@@PAX@std@@@std@@V?$_Tree_val@U?$_Tree_simple_types@U?$pair@$$CBW4LoadingUIState@@V?$shared_ptr@VAnimation@@@std@@@std@@@std@@@2@$00@std@@QBEABV?$allocator@U?$_Tree_node@U?$pair@$$CBW4LoadingUIState@@V?$shared_ptr@VAnimation@@@std@@@std@@PAX@std@@@2@XZ 0043d7a0 f i LoadingUI.obj
 0001:0003c7c0       ?_Get_scary@?$_Tree@V?$_Tmap_traits@W4LoadingUIState@@V?$shared_ptr@VAnimation@@@std@@U?$less@W4LoadingUIState@@@3@V?$allocator@U?$pair@$$CBW4LoadingUIState@@V?$shared_ptr@VAnimation@@@std@@@std@@@3@$0A@@std@@@std@@IAEPAV?$_Tree_val@U?$_Tree_simple_types@U?$pair@$$CBW4LoadingUIState@@V?$shared_ptr@VAnimation@@@std@@@std@@@std@@@2@XZ 0043d7c0 f i LoadingUI.obj
 0001:0003c7e0       ?_Get_scary@?$_Tree@V?$_Tmap_traits@W4LoadingUIState@@V?$shared_ptr@VAnimation@@@std@@U?$less@W4LoadingUIState@@@3@V?$allocator@U?$pair@$$CBW4LoadingUIState@@V?$shared_ptr@VAnimation@@@std@@@std@@@3@$0A@@std@@@std@@IBEPBV?$_Tree_val@U?$_Tree_simple_types@U?$pair@$$CBW4LoadingUIState@@V?$shared_ptr@VAnimation@@@std@@@std@@@std@@@2@XZ 0043d7e0 f i LoadingUI.obj
 0001:0003c800       ?_Getal@?$_Tree@V?$_Tmap_traits@W4LoadingUIState@@V?$shared_ptr@VAnimation@@@std@@U?$less@W4LoadingUIState@@@3@V?$allocator@U?$pair@$$CBW4LoadingUIState@@V?$shared_ptr@VAnimation@@@std@@@std@@@3@$0A@@std@@@std@@IAEAAV?$allocator@U?$_Tree_node@U?$pair@$$CBW4LoadingUIState@@V?$shared_ptr@VAnimation@@@std@@@std@@PAX@std@@@2@XZ 0043d800 f i LoadingUI.obj
 0001:0003c820       ?_Getal@?$_Tree@V?$_Tmap_traits@W4LoadingUIState@@V?$shared_ptr@VAnimation@@@std@@U?$less@W4LoadingUIState@@@3@V?$allocator@U?$pair@$$CBW4LoadingUIState@@V?$shared_ptr@VAnimation@@@std@@@std@@@3@$0A@@std@@@std@@IBEABV?$allocator@U?$_Tree_node@U?$pair@$$CBW4LoadingUIState@@V?$shared_ptr@VAnimation@@@std@@@std@@PAX@std@@@2@XZ 0043d820 f i LoadingUI.obj
 0001:0003c840       ?_Getcomp@?$_Tree@V?$_Tmap_traits@W4LoadingUIState@@V?$shared_ptr@VAnimation@@@std@@U?$less@W4LoadingUIState@@@3@V?$allocator@U?$pair@$$CBW4LoadingUIState@@V?$shared_ptr@VAnimation@@@std@@@std@@@3@$0A@@std@@@std@@IBEABU?$less@W4LoadingUIState@@@2@XZ 0043d840 f i LoadingUI.obj
 0001:0003c860       ?_Insert_node@?$_Tree_val@U?$_Tree_simple_types@U?$pair@$$CBW4LoadingUIState@@V?$shared_ptr@VAnimation@@@std@@@std@@@std@@@std@@QAEPAU?$_Tree_node@U?$pair@$$CBW4LoadingUIState@@V?$shared_ptr@VAnimation@@@std@@@std@@PAX@2@U?$_Tree_id@PAU?$_Tree_node@U?$pair@$$CBW4LoadingUIState@@V?$shared_ptr@VAnimation@@@std@@@std@@PAX@std@@@2@QAU32@@Z 0043d860 f i LoadingUI.obj
 0001:0003caf0       ?_Lrotate@?$_Tree_val@U?$_Tree_simple_types@U?$pair@$$CBW4LoadingUIState@@V?$shared_ptr@VAnimation@@@std@@@std@@@std@@@std@@QAEXPAU?$_Tree_node@U?$pair@$$CBW4LoadingUIState@@V?$shared_ptr@VAnimation@@@std@@@std@@PAX@2@@Z 0043daf0 f i LoadingUI.obj
 0001:0003cbb0       ?_Release@?$_Alloc_construct_ptr@V?$allocator@U?$_Tree_node@U?$pair@$$CBW4LoadingUIState@@V?$shared_ptr@VAnimation@@@std@@@std@@PAX@std@@@std@@@std@@QAEPAU?$_Tree_node@U?$pair@$$CBW4LoadingUIState@@V?$shared_ptr@VAnimation@@@std@@@std@@PAX@2@XZ 0043dbb0 f i LoadingUI.obj
 0001:0003cbe0       ?_Rrotate@?$_Tree_val@U?$_Tree_simple_types@U?$pair@$$CBW4LoadingUIState@@V?$shared_ptr@VAnimation@@@std@@@std@@@std@@@std@@QAEXPAU?$_Tree_node@U?$pair@$$CBW4LoadingUIState@@V?$shared_ptr@VAnimation@@@std@@@std@@PAX@2@@Z 0043dbe0 f i LoadingUI.obj
 0001:0003ccb0       ?addAnimation@?$Animator@W4LoadingUIState@@X@@QAEXW4LoadingUIState@@V?$shared_ptr@VAnimation@@@std@@@Z 0043dcb0 f i LoadingUI.obj
 0001:0003cd70       ?allocate@?$allocator@U?$_Tree_node@U?$pair@$$CBW4LoadingUIState@@V?$shared_ptr@VAnimation@@@std@@@std@@PAX@std@@@std@@QAEPAU?$_Tree_node@U?$pair@$$CBW4LoadingUIState@@V?$shared_ptr@VAnimation@@@std@@@std@@PAX@2@I@Z 0043dd70 f i LoadingUI.obj
 0001:0003cda0       ?deallocate@?$_Default_allocator_traits@V?$allocator@U?$_Tree_node@U?$pair@$$CBW4LoadingUIState@@V?$shared_ptr@VAnimation@@@std@@@std@@PAX@std@@@std@@@std@@SAXAAV?$allocator@U?$_Tree_node@U?$pair@$$CBW4LoadingUIState@@V?$shared_ptr@VAnimation@@@std@@@std@@PAX@std@@@2@QAU?$_Tree_node@U?$pair@$$CBW4LoadingUIState@@V?$shared_ptr@VAnimation@@@std@@@std@@PAX@2@I@Z 0043dda0 f i LoadingUI.obj
 0001:0003cdc0       ?deallocate@?$allocator@U?$_Tree_node@U?$pair@$$CBW4LoadingUIState@@V?$shared_ptr@VAnimation@@@std@@@std@@PAX@std@@@std@@QAEXQAU?$_Tree_node@U?$pair@$$CBW4LoadingUIState@@V?$shared_ptr@VAnimation@@@std@@@std@@PAX@2@I@Z 0043ddc0 f i LoadingUI.obj
 0001:0003cdf0       ?end@?$_Tree@V?$_Tmap_traits@W4LoadingUIState@@V?$shared_ptr@VAnimation@@@std@@U?$less@W4LoadingUIState@@@3@V?$allocator@U?$pair@$$CBW4LoadingUIState@@V?$shared_ptr@VAnimation@@@std@@@std@@@3@$0A@@std@@@std@@QAE?AV?$_Tree_iterator@V?$_Tree_val@U?$_Tree_simple_types@U?$pair@$$CBW4LoadingUIState@@V?$shared_ptr@VAnimation@@@std@@@std@@@std@@@std@@@2@XZ 0043ddf0 f i LoadingUI.obj
 0001:0003ce30       ?find@?$_Tree@V?$_Tmap_traits@W4LoadingUIState@@V?$shared_ptr@VAnimation@@@std@@U?$less@W4LoadingUIState@@@3@V?$allocator@U?$pair@$$CBW4LoadingUIState@@V?$shared_ptr@VAnimation@@@std@@@std@@@3@$0A@@std@@@std@@QAE?AV?$_Tree_iterator@V?$_Tree_val@U?$_Tree_simple_types@U?$pair@$$CBW4LoadingUIState@@V?$shared_ptr@VAnimation@@@std@@@std@@@std@@@std@@@2@ABW4LoadingUIState@@@Z 0043de30 f i LoadingUI.obj
 0001:0003ce80       ?getSeed@CaveGenerator@@SAIXZ 0043de80 f i LoadingUI.obj
 0001:0003ce90       ?max_size@?$_Default_allocator_traits@V?$allocator@U?$_Tree_node@U?$pair@$$CBW4LoadingUIState@@V?$shared_ptr@VAnimation@@@std@@@std@@PAX@std@@@std@@@std@@SAIABV?$allocator@U?$_Tree_node@U?$pair@$$CBW4LoadingUIState@@V?$shared_ptr@VAnimation@@@std@@@std@@PAX@std@@@2@@Z 0043de90 f i LoadingUI.obj
 0001:0003cea0       ?max_size@?$_Tree@V?$_Tmap_traits@W4LoadingUIState@@V?$shared_ptr@VAnimation@@@std@@U?$less@W4LoadingUIState@@@3@V?$allocator@U?$pair@$$CBW4LoadingUIState@@V?$shared_ptr@VAnimation@@@std@@@std@@@3@$0A@@std@@@std@@QBEIXZ 0043dea0 f i LoadingUI.obj
 0001:0003cef0       ?play@?$Animator@W4LoadingUIState@@X@@QAEABVSimpleImage@@XZ 0043def0 f i LoadingUI.obj
 0001:0003cf30       ?pointer_to@?$pointer_traits@PAU?$pair@$$CBW4LoadingUIState@@V?$shared_ptr@VAnimation@@@std@@@std@@@std@@SAPAU?$pair@$$CBW4LoadingUIState@@V?$shared_ptr@VAnimation@@@std@@@2@AAU32@@Z 0043df30 f i LoadingUI.obj
 0001:0003cf50       ?setAnimationState@?$Animator@W4LoadingUIState@@X@@QAEXW4LoadingUIState@@@Z 0043df50 f i LoadingUI.obj
 0001:0003d070       ?to_string@std@@YA?AV?$basic_string@DU?$char_traits@D@std@@V?$allocator@D@2@@1@I@Z 0043e070 f i LoadingUI.obj
 0001:0003d0b0       _SDL_main                  0043e0b0 f   mainfunction.obj
 0001:0003d120       ?doProgram@@YAHHQAPAD@Z    0043e120 f   mainfunction.obj
 0001:0003d250       ??$_Erase_head@V?$allocator@U?$_Tree_node@U?$pair@$$CBV?$basic_string@DU?$char_traits@D@std@@V?$allocator@D@2@@std@@V?$shared_ptr@VRawImageData@@@2@@std@@PAX@std@@@std@@@?$_Tree_val@U?$_Tree_simple_types@U?$pair@$$CBV?$basic_string@DU?$char_traits@D@std@@V?$allocator@D@2@@std@@V?$shared_ptr@VRawImageData@@@2@@std@@@std@@@std@@QAEXAAV?$allocator@U?$_Tree_node@U?$pair@$$CBV?$basic_string@DU?$char_traits@D@std@@V?$allocator@D@2@@std@@V?$shared_ptr@VRawImageData@@@2@@std@@PAX@std@@@1@@Z 0043e250 f i mainfunction.obj
 0001:0003d2a0       ??$_Erase_tree@V?$allocator@U?$_Tree_node@U?$pair@$$CBV?$basic_string@DU?$char_traits@D@std@@V?$allocator@D@2@@std@@V?$shared_ptr@VRawImageData@@@2@@std@@PAX@std@@@std@@@?$_Tree_val@U?$_Tree_simple_types@U?$pair@$$CBV?$basic_string@DU?$char_traits@D@std@@V?$allocator@D@2@@std@@V?$shared_ptr@VRawImageData@@@2@@std@@@std@@@std@@QAEXAAV?$allocator@U?$_Tree_node@U?$pair@$$CBV?$basic_string@DU?$char_traits@D@std@@V?$allocator@D@2@@std@@V?$shared_ptr@VRawImageData@@@2@@std@@PAX@std@@@1@PAU?$_Tree_node@U?$pair@$$CBV?$basic_string@DU?$char_traits@D@std@@V?$allocator@D@2@@std@@V?$shared_ptr@VRawImageData@@@2@@std@@PAX@1@@Z 0043e2a0 f i mainfunction.obj
 0001:0003d300       ??$_Freenode0@V?$allocator@U?$_Tree_node@U?$pair@$$CBV?$basic_string@DU?$char_traits@D@std@@V?$allocator@D@2@@std@@V?$shared_ptr@VRawImageData@@@2@@std@@PAX@std@@@std@@@?$_Tree_node@U?$pair@$$CBV?$basic_string@DU?$char_traits@D@std@@V?$allocator@D@2@@std@@V?$shared_ptr@VRawImageData@@@2@@std@@PAX@std@@SAXAAV?$allocator@U?$_Tree_node@U?$pair@$$CBV?$basic_string@DU?$char_traits@D@std@@V?$allocator@D@2@@std@@V?$shared_ptr@VRawImageData@@@2@@std@@PAX@std@@@1@PAU01@@Z 0043e300 f i mainfunction.obj
 0001:0003d390       ??$_Freenode@V?$allocator@U?$_Tree_node@U?$pair@$$CBV?$basic_string@DU?$char_traits@D@std@@V?$allocator@D@2@@std@@V?$shared_ptr@VRawImageData@@@2@@std@@PAX@std@@@std@@@?$_Tree_node@U?$pair@$$CBV?$basic_string@DU?$char_traits@D@std@@V?$allocator@D@2@@std@@V?$shared_ptr@VRawImageData@@@2@@std@@PAX@std@@SAXAAV?$allocator@U?$_Tree_node@U?$pair@$$CBV?$basic_string@DU?$char_traits@D@std@@V?$allocator@D@2@@std@@V?$shared_ptr@VRawImageData@@@2@@std@@PAX@std@@@1@PAU01@@Z 0043e390 f i mainfunction.obj
 0001:0003d410       ??$exchange@PAU?$_Tree_node@U?$pair@$$CBV?$basic_string@DU?$char_traits@D@std@@V?$allocator@D@2@@std@@V?$shared_ptr@VRawImageData@@@2@@std@@PAX@std@@AAPAU12@@std@@YAPAU?$_Tree_node@U?$pair@$$CBV?$basic_string@DU?$char_traits@D@std@@V?$allocator@D@2@@std@@V?$shared_ptr@VRawImageData@@@2@@std@@PAX@0@AAPAU10@0@Z 0043e410 f i mainfunction.obj
 0001:0003d440       ??1?$_Tree@V?$_Tmap_traits@V?$basic_string@DU?$char_traits@D@std@@V?$allocator@D@2@@std@@V?$shared_ptr@VRawImageData@@@2@U?$less@V?$basic_string@DU?$char_traits@D@std@@V?$allocator@D@2@@std@@@2@V?$allocator@U?$pair@$$CBV?$basic_string@DU?$char_traits@D@std@@V?$allocator@D@2@@std@@V?$shared_ptr@VRawImageData@@@2@@std@@@2@$0A@@std@@@std@@QAE@XZ 0043e440 f i mainfunction.obj
 0001:0003d4b0       ??1?$map@V?$basic_string@DU?$char_traits@D@std@@V?$allocator@D@2@@std@@V?$shared_ptr@VRawImageData@@@2@U?$less@V?$basic_string@DU?$char_traits@D@std@@V?$allocator@D@2@@std@@@2@V?$allocator@U?$pair@$$CBV?$basic_string@DU?$char_traits@D@std@@V?$allocator@D@2@@std@@V?$shared_ptr@VRawImageData@@@2@@std@@@2@@std@@QAE@XZ 0043e4b0 f i mainfunction.obj
 0001:0003d4d0       ??1ImageManager@@QAE@XZ    0043e4d0 f i mainfunction.obj
 0001:0003d500       ??_GImageManager@@QAEPAXI@Z 0043e500 f i mainfunction.obj
 0001:0003d540       ?deallocate@?$_Default_allocator_traits@V?$allocator@U?$_Tree_node@U?$pair@$$CBV?$basic_string@DU?$char_traits@D@std@@V?$allocator@D@2@@std@@V?$shared_ptr@VRawImageData@@@2@@std@@PAX@std@@@std@@@std@@SAXAAV?$allocator@U?$_Tree_node@U?$pair@$$CBV?$basic_string@DU?$char_traits@D@std@@V?$allocator@D@2@@std@@V?$shared_ptr@VRawImageData@@@2@@std@@PAX@std@@@2@QAU?$_Tree_node@U?$pair@$$CBV?$basic_string@DU?$char_traits@D@std@@V?$allocator@D@2@@std@@V?$shared_ptr@VRawImageData@@@2@@std@@PAX@2@I@Z 0043e540 f i mainfunction.obj
 0001:0003d560       ?destroyImageManager@ImageManager@@SAXXZ 0043e560 f i mainfunction.obj
 0001:0003d5c0       ??0BaseEngine@@QAE@XZ      0043e5c0 f   BaseEngine.obj
 0001:0003d800       ??1BaseEngine@@UAE@XZ      0043e800 f   BaseEngine.obj
 0001:0003d850       ?initialise@BaseEngine@@QAEHPBDHH0H@Z 0043e850 f   BaseEngine.obj
 0001:0003d980       ?deinitialise@BaseEngine@@QAEXXZ 0043e980 f   BaseEngine.obj
 0001:0003d9b0       ?mainLoop@BaseEngine@@QAEHXZ 0043e9b0 f   BaseEngine.obj
 0001:0003dae0       ?handleEvent@BaseEngine@@QAE_NPATSDL_Event@@@Z 0043eae0 f   BaseEngine.obj
 0001:0003e120       ?isKeyPressed@BaseEngine@@QBE_NH@Z 0043f120 f   BaseEngine.obj
 0001:0003e150       ?virtKeyUp@BaseEngine@@UAEXH@Z 0043f150 f   BaseEngine.obj
 0001:0003e160       ?virtKeyDown@BaseEngine@@UAEXH@Z 0043f160 f   BaseEngine.obj
 0001:0003e170       ?virtMouseMoved@BaseEngine@@UAEXHH@Z 0043f170 f   BaseEngine.obj
 0001:0003e180       ?virtMouseDown@BaseEngine@@UAEXHHH@Z 0043f180 f   BaseEngine.obj
 0001:0003e190       ?virtMouseUp@BaseEngine@@UAEXHHH@Z 0043f190 f   BaseEngine.obj
 0001:0003e1a0       ?virtInitialise@BaseEngine@@UAEHXZ 0043f1a0 f   BaseEngine.obj
 0001:0003e1f0       ?virtCreateWindows@BaseEngine@@UAEXPBD@Z 0043f1f0 f   BaseEngine.obj
 0001:0003e280       ?virtCreateSurfaces@BaseEngine@@UAEXXZ 0043f280 f   BaseEngine.obj
 0001:0003e2d0       ?virtCleanUp@BaseEngine@@UAEXXZ 0043f2d0 f   BaseEngine.obj
 0001:0003e2e0       ?virtSetupBackgroundBuffer@BaseEngine@@UAEXXZ 0043f2e0 f   BaseEngine.obj
 0001:0003e300       ?virtDrawStringsUnderneath@BaseEngine@@UAEXXZ 0043f300 f   BaseEngine.obj
 0001:0003e310       ?virtDrawStringsOnTop@BaseEngine@@UAEXXZ 0043f310 f   BaseEngine.obj
 0001:0003e320       ?virtCheckForUpdateTime@BaseEngine@@UAE_NXZ 0043f320 f   BaseEngine.obj
 0001:0003e370       ?virtRenderScreen@BaseEngine@@UAEXXZ 0043f370 f   BaseEngine.obj
 0001:0003e500       ?getColour@BaseEngine@@QBEIH@Z 0043f500 f   BaseEngine.obj
 0001:0003e740       ?virtInitialiseObjects@BaseEngine@@UAEHXZ 0043f740 f   BaseEngine.obj
 0001:0003e770       ?drawAllObjects@BaseEngine@@UAEXXZ 0043f770 f   BaseEngine.obj
 0001:0003e950       ?updateAllObjects@BaseEngine@@UAEXH@Z 0043f950 f   BaseEngine.obj
 0001:0003eb30       _mydebug                   0043fb30 f   BaseEngine.obj
 0001:0003f0b0       ??$?0ABV?$allocator@PAVDisplayableObject@@@std@@$$V@?$_Compressed_pair@V?$allocator@PAVDisplayableObject@@@std@@V?$_Vector_val@U?$_Simple_types@PAVDisplayableObject@@@std@@@2@$00@std@@QAE@U_One_then_variadic_args_t@1@ABV?$allocator@PAVDisplayableObject@@@1@@Z 004400b0 f i BaseEngine.obj
 0001:0003f0e0       ??$?0PAVDisplayableObject@@@?$allocator@U_Container_proxy@std@@@std@@QAE@ABV?$allocator@PAVDisplayableObject@@@1@@Z 004400e0 f i BaseEngine.obj
 0001:0003f100       ??$_Construct_n_copies_of_ty@U_Value_init_tag@std@@@?$vector@PAVDisplayableObject@@V?$allocator@PAVDisplayableObject@@@std@@@std@@AAEXIABU_Value_init_tag@1@@Z 00440100 f i BaseEngine.obj
 0001:0003f690       ??$forward@ABV?$allocator@PAVDisplayableObject@@@std@@@std@@YAABV?$allocator@PAVDisplayableObject@@@0@ABV10@@Z 00440690 f i BaseEngine.obj
 0001:0003f760       ??0?$_Vector_iterator@V?$_Vector_val@U?$_Simple_types@PAVDisplayableObject@@@std@@@std@@@std@@QAE@ABV01@@Z 00440760 f i BaseEngine.obj
 0001:0003f790       ??0?$_Vector_val@U?$_Simple_types@PAVDisplayableObject@@@std@@@std@@QAE@XZ 00440790 f i BaseEngine.obj
 0001:0003f7e0       ??0?$allocator@PAVDisplayableObject@@@std@@QAE@XZ 004407e0 f i BaseEngine.obj
 0001:0003f800       ??0?$vector@PAVDisplayableObject@@V?$allocator@PAVDisplayableObject@@@std@@@std@@QAE@IABV?$allocator@PAVDisplayableObject@@@1@@Z 00440800 f i BaseEngine.obj
 0001:0003f840       ??0DisplayableObjectContainer@@QAE@H@Z 00440840 f i BaseEngine.obj
 0001:0003f8a0       ??1?$_Tidy_guard@V?$vector@PAVDisplayableObject@@V?$allocator@PAVDisplayableObject@@@std@@@std@@@std@@QAE@XZ 004408a0 f i BaseEngine.obj
 0001:0003f8d0       ??1?$vector@PAVDisplayableObject@@V?$allocator@PAVDisplayableObject@@@std@@@std@@QAE@XZ 004408d0 f i BaseEngine.obj
 0001:0003f940       ??1DisplayableObjectContainer@@UAE@XZ 00440940 f i BaseEngine.obj
 0001:0003f9b0       ??D?$_Vector_const_iterator@V?$_Vector_val@U?$_Simple_types@PAVDisplayableObject@@@std@@@std@@@std@@QBEABQAVDisplayableObject@@XZ 004409b0 f i BaseEngine.obj
 0001:0003fac0       ??D?$_Vector_iterator@V?$_Vector_val@U?$_Simple_types@PAVDisplayableObject@@@std@@@std@@@std@@QBEAAPAVDisplayableObject@@XZ 00440ac0 f i BaseEngine.obj
 0001:0003fae0       ??E?$_Vector_const_iterator@V?$_Vector_val@U?$_Simple_types@PAVDisplayableObject@@@std@@@std@@@std@@QAEAAV01@XZ 00440ae0 f i BaseEngine.obj
 0001:0003fbf0       ??E?$_Vector_iterator@V?$_Vector_val@U?$_Simple_types@PAVDisplayableObject@@@std@@@std@@@std@@QAE?AV01@H@Z 00440bf0 f i BaseEngine.obj
 0001:0003fe10       ??_EBaseEngine@@UAEPAXI@Z  00440e10 f i BaseEngine.obj
 0001:0003fe10       ??_GBaseEngine@@UAEPAXI@Z  00440e10 f i BaseEngine.obj
 0001:0003fe50       ??_EDisplayableObjectContainer@@UAEPAXI@Z 00440e50 f i BaseEngine.obj
 0001:0003fe50       ??_GDisplayableObjectContainer@@UAEPAXI@Z 00440e50 f i BaseEngine.obj
 0001:0003fe90       ?_Buy_nonzero@?$vector@PAVDisplayableObject@@V?$allocator@PAVDisplayableObject@@@std@@@std@@AAEXI@Z 00440e90 f i BaseEngine.obj
 0001:0003fed0       ?_Buy_raw@?$vector@PAVDisplayableObject@@V?$allocator@PAVDisplayableObject@@@std@@@std@@AAEXI@Z 00440ed0 f i BaseEngine.obj
 0001:0003ff50       ?_Tidy@?$vector@PAVDisplayableObject@@V?$allocator@PAVDisplayableObject@@@std@@@std@@AAEXXZ 00440f50 f i BaseEngine.obj
 0001:00040040       ?getHasActed@DisplayableObject@@QBE_NXZ 00441040 f i BaseEngine.obj
 0001:00040060       ?isTimeToAct@BaseEngine@@QBE_NXZ 00441060 f i BaseEngine.obj
 0001:000400a0       ?mySDLUpdateTexture@DrawingSurface@@QAEXPAUSDL_Texture@@@Z 004410a0 f i BaseEngine.obj
 0001:000400e0       ?setHasActed@DisplayableObject@@QAEX_N@Z 004410e0 f i BaseEngine.obj
 0001:00040100       ?setTimeToAct@BaseEngine@@QAEXH@Z 00441100 f i BaseEngine.obj
 0001:00040130       ?symbolToKeycode@BaseEngine@@SAHH@Z 00441130 f i BaseEngine.obj
 0001:00040620       ?virtMainLoopDoBeforeUpdate@BaseEngine@@UAEXXZ 00441620 f i BaseEngine.obj
 0001:00040630       _fprintf                   00441630 f i BaseEngine.obj
 0001:00040670       ??0DisplayableObject@@QAE@PAVBaseEngine@@HH_N@Z 00441670 f   DisplayableObject.obj
 0001:00040730       ??0DisplayableObject@@QAE@HHPAVBaseEngine@@HH_N@Z 00441730 f   DisplayableObject.obj
 0001:000407f0       ??1DisplayableObject@@UAE@XZ 004417f0 f   DisplayableObject.obj
 0001:00040810       ?virtDraw@DisplayableObject@@UAEXXZ 00441810 f   DisplayableObject.obj
 0001:000408b0       ?virtDoUpdate@DisplayableObject@@UAEXH@Z 004418b0 f   DisplayableObject.obj
 0001:000408c0       ?redrawDisplay@DisplayableObject@@QAEXXZ 004418c0 f   DisplayableObject.obj
 0001:000408e0       ?redrawRectangle@DisplayableObject@@QAEXXZ 004418e0 f   DisplayableObject.obj
 0001:00040920       ?virtIsObjectInRedrawArea@DisplayableObject@@QAE_NXZ 00441920 f   DisplayableObject.obj
 0001:000409c0       ?fixPosition@DisplayableObject@@QAEXXZ 004419c0 f   DisplayableObject.obj
 0001:00040b90       ??_EDisplayableObject@@UAEPAXI@Z 00441b90 f i DisplayableObject.obj
 0001:00040b90       ??_GDisplayableObject@@UAEPAXI@Z 00441b90 f i DisplayableObject.obj
 0001:00040bd0       ?convertVirtualPixelToClickedXPosition@BaseEngine@@QAEHH@Z 00441bd0 f i DisplayableObject.obj
 0001:00040c00       ?convertVirtualPixelToClickedYPosition@BaseEngine@@QAEHH@Z 00441c00 f i DisplayableObject.obj
 0001:00040c30       ?convertVirtualToRealXPosition@DrawingSurface@@QAEHH@Z 00441c30 f i DisplayableObject.obj
 0001:00040c70       ?convertVirtualToRealYPosition@DrawingSurface@@QAEHH@Z 00441c70 f i DisplayableObject.obj
 0001:00040cb0       ?redrawRectangle@BaseEngine@@QAEXHHHH@Z 00441cb0 f i DisplayableObject.obj
 0001:00040e20       ?setForegroundPixel@BaseEngine@@QAEXHHI@Z 00441e20 f i DisplayableObject.obj
 0001:00040e50       ??0FontManager@@QAE@XZ     00441e50 f   FontManager.obj
 0001:00040ec0       ??1FontManager@@QAE@XZ     00441ec0 f   FontManager.obj
 0001:00040f30       ?getFont@FontManager@@QAEPAVFont@@PBDH@Z 00441f30 f   FontManager.obj
 0001:000410d0       ?loadFonts@FontManager@@QAEXXZ 004420d0 f   FontManager.obj
 0001:00041200       ??$growArrayOfObjects@PAVFont@@@@YAPAPAVFont@@PAPAV0@AAHH@Z 00442200 f i FontManager.obj
 0001:000412c0       ??0Font@@QAE@PBDH@Z        004422c0 f i FontManager.obj
 0001:00041340       ??1Font@@QAE@XZ            00442340 f i FontManager.obj
 0001:000413c0       ??_GFont@@QAEPAXI@Z        004423c0 f i FontManager.obj
 0001:00041400       ?getName@Font@@QAEPBDXZ    00442400 f i FontManager.obj
 0001:00041420       ?getSize@Font@@QAEHXZ      00442420 f i FontManager.obj
 0001:00041440       ??0MenuIntroButton@@IAE@HHHH@Z 00442440 f   MenuIntroButton.obj
 0001:00041500       ?getInstance@MenuIntroButton@@SAPAV1@XZ 00442500 f   MenuIntroButton.obj
 0001:000415a0       ??1MenuIntroButton@@UAE@XZ 004425a0 f   MenuIntroButton.obj
 0001:000415d0       ?virtStart@MenuIntroButton@@UAEXXZ 004425d0 f   MenuIntroButton.obj
 0001:000417d0       ?virtDraw@MenuIntroButton@@UAEXXZ 004427d0 f   MenuIntroButton.obj
 0001:00041870       ?virtDoUpdate@MenuIntroButton@@UAEXH@Z 00442870 f   MenuIntroButton.obj
 0001:000418a0       ?onClick@MenuIntroButton@@UAEXXZ 004428a0 f   MenuIntroButton.obj
 0001:000418c0       ?drawSprite@MenuIntroButton@@UAEXXZ 004428c0 f   MenuIntroButton.obj
 0001:00041ac0       ??_EMenuIntroButton@@UAEPAXI@Z 00442ac0 f i MenuIntroButton.obj
 0001:00041ac0       ??_GMenuIntroButton@@UAEPAXI@Z 00442ac0 f i MenuIntroButton.obj
 0001:00041b00       ??0MenuQuitButton@@IAE@HHHH@Z 00442b00 f   MenuQuitButton.obj
 0001:00041bc0       ?getInstance@MenuQuitButton@@SAPAV1@XZ 00442bc0 f   MenuQuitButton.obj
 0001:00041c60       ??1MenuQuitButton@@UAE@XZ  00442c60 f   MenuQuitButton.obj
 0001:00041c90       ?virtStart@MenuQuitButton@@UAEXXZ 00442c90 f   MenuQuitButton.obj
 0001:00041e90       ?virtDraw@MenuQuitButton@@UAEXXZ 00442e90 f   MenuQuitButton.obj
 0001:00041f30       ?virtDoUpdate@MenuQuitButton@@UAEXH@Z 00442f30 f   MenuQuitButton.obj
 0001:00041f60       ?onClick@MenuQuitButton@@UAEXXZ 00442f60 f   MenuQuitButton.obj
 0001:00041f80       ?drawSprite@MenuQuitButton@@UAEXXZ 00442f80 f   MenuQuitButton.obj
 0001:00042180       ??_GMenuQuitButton@@UAEPAXI@Z 00443180 f i MenuQuitButton.obj
 0001:00042180       ??_EMenuQuitButton@@UAEPAXI@Z 00443180 f i MenuQuitButton.obj
 0001:000421c0       ??0MenuRecordButton@@IAE@HHHH@Z 004431c0 f   MenuRecordButton.obj
 0001:00042280       ?getInstance@MenuRecordButton@@SAPAV1@XZ 00443280 f   MenuRecordButton.obj
 0001:00042320       ??1MenuRecordButton@@UAE@XZ 00443320 f   MenuRecordButton.obj
 0001:00042350       ?virtStart@MenuRecordButton@@UAEXXZ 00443350 f   MenuRecordButton.obj
 0001:00042550       ?virtDraw@MenuRecordButton@@UAEXXZ 00443550 f   MenuRecordButton.obj
 0001:000425f0       ?virtDoUpdate@MenuRecordButton@@UAEXH@Z 004435f0 f   MenuRecordButton.obj
 0001:00042620       ?onClick@MenuRecordButton@@UAEXXZ 00443620 f   MenuRecordButton.obj
 0001:00042640       ?drawSprite@MenuRecordButton@@UAEXXZ 00443640 f   MenuRecordButton.obj
 0001:00042840       ??_GMenuRecordButton@@UAEPAXI@Z 00443840 f i MenuRecordButton.obj
 0001:00042840       ??_EMenuRecordButton@@UAEPAXI@Z 00443840 f i MenuRecordButton.obj
 0001:00042880       ?onCreate@MenuScene@@UAEXXZ 00443880 f   MenuScene.obj
 0001:000428a0       ?onDestroy@MenuScene@@UAEXXZ 004438a0 f   MenuScene.obj
 0001:00042900       ?onActivate@MenuScene@@UAEXXZ 00443900 f   MenuScene.obj
 0001:00042aa0       ?onDeactivate@MenuScene@@UAEXXZ 00443aa0 f   MenuScene.obj
 0001:00042ae0       ?virtMainLoopPreUpdate@MenuScene@@UAEXXZ 00443ae0 f   MenuScene.obj
 0001:00042b90       ?virtPreDraw@MenuScene@@UAEXXZ 00443b90 f   MenuScene.obj
 0001:00042bc0       ?virtPostDraw@MenuScene@@UAEXXZ 00443bc0 f   MenuScene.obj
 0001:00042bd0       ?virtMouseDown@MenuScene@@UAEXHHH@Z 00443bd0 f   MenuScene.obj
 0001:00042c10       ?virtMouseUp@MenuScene@@UAEXHHH@Z 00443c10 f   MenuScene.obj
 0001:00042d60       ?isClicked@BaseButton@@QAE_NXZ 00443d60 f i MenuScene.obj
 0001:00042da0       ??0MenuStartButton@@IAE@HHHH@Z 00443da0 f   MenuStartButton.obj
 0001:00042e60       ?getInstance@MenuStartButton@@SAPAV1@XZ 00443e60 f   MenuStartButton.obj
 0001:00042f00       ??1MenuStartButton@@UAE@XZ 00443f00 f   MenuStartButton.obj
 0001:00042f30       ?virtStart@MenuStartButton@@UAEXXZ 00443f30 f   MenuStartButton.obj
 0001:00043130       ?virtDraw@MenuStartButton@@UAEXXZ 00444130 f   MenuStartButton.obj
 0001:000431d0       ?virtDoUpdate@MenuStartButton@@UAEXH@Z 004441d0 f   MenuStartButton.obj
 0001:00043200       ?onClick@MenuStartButton@@UAEXXZ 00444200 f   MenuStartButton.obj
 0001:00043220       ?drawSprite@MenuStartButton@@UAEXXZ 00444220 f   MenuStartButton.obj
 0001:00043420       ??_GMenuStartButton@@UAEPAXI@Z 00444420 f i MenuStartButton.obj
 0001:00043420       ??_EMenuStartButton@@UAEPAXI@Z 00444420 f i MenuStartButton.obj
 0001:00043460       ?virtSetupBackgroundBuffer@MyDemoA@@UAEXXZ 00444460 f   MyDemoA.obj
 0001:000436a0       ?virtMouseDown@MyDemoA@@UAEXHHH@Z 004446a0 f   MyDemoA.obj
 0001:000437b0       ?virtKeyDown@MyDemoA@@UAEXH@Z 004447b0 f   MyDemoA.obj
 0001:00043800       ?virtInitialiseObjects@MyDemoA@@UAEHXZ 00444800 f   MyDemoA.obj
 0001:000439d0       ??$addressof@$$CBV?$_Vector_val@U?$_Simple_types@PAVDisplayableObject@@@std@@@std@@@std@@YAPBV?$_Vector_val@U?$_Simple_types@PAVDisplayableObject@@@std@@@0@ABV10@@Z 004449d0 f i MyDemoA.obj
 0001:000439e0       ??E?$_Vector_const_iterator@V?$_Vector_val@U?$_Simple_types@PAVDisplayableObject@@@std@@@std@@@std@@QAE?AV01@H@Z 004449e0 f i MyDemoA.obj
 0001:00043a90       ?begin@?$vector@PAVDisplayableObject@@V?$allocator@PAVDisplayableObject@@@std@@@std@@QBE?AV?$_Vector_const_iterator@V?$_Vector_val@U?$_Simple_types@PAVDisplayableObject@@@std@@@std@@@2@XZ 00444a90 f i MyDemoA.obj
 0001:00043ae0       ?drawBackgroundOval@BaseEngine@@QAEXHHHHI@Z 00444ae0 f i MyDemoA.obj
 0001:00043b20       ?end@?$vector@PAVDisplayableObject@@V?$allocator@PAVDisplayableObject@@@std@@@std@@QBE?AV?$_Vector_const_iterator@V?$_Vector_val@U?$_Simple_types@PAVDisplayableObject@@@std@@@std@@@2@XZ 00444b20 f i MyDemoA.obj
 0001:00043b70       ?isValidTilePosition@TileManager@@QBE_NHH@Z 00444b70 f i MyDemoA.obj
 0001:00043c00       ?loadImage@ImageManager@@SA?AVSimpleImage@@V?$basic_string@DU?$char_traits@D@std@@V?$allocator@D@2@@std@@_N@Z 00444c00 f i MyDemoA.obj
 0001:00043cc0       ?lockBackgroundForDrawing@BaseEngine@@QAEXXZ 00444cc0 f i MyDemoA.obj
 0001:00043ce0       ?setAllObjectsVisible@DisplayableObjectContainer@@QBEX_N@Z 00444ce0 f i MyDemoA.obj
 0001:00043df0       ?setAndRedrawMapValueAt@TileManager@@QAEXHHHPAVBaseEngine@@PAVDrawingSurface@@@Z 00444df0 f i MyDemoA.obj
 0001:00043e90       ?unlockBackgroundForDrawing@BaseEngine@@QAEXXZ 00444e90 f i MyDemoA.obj
 0001:00043eb0       ??0MyObjectB@@QAE@PAVBaseEngine@@@Z 00444eb0 f   MyObjectB.obj
 0001:00043ef0       ?virtDraw@MyObjectB@@UAEXXZ 00444ef0 f   MyObjectB.obj
 0001:00043f40       ?virtDoUpdate@MyObjectB@@UAEXH@Z 00444f40 f   MyObjectB.obj
 0001:00044110       ??1MyObjectB@@UAE@XZ       00445110 f i MyObjectB.obj
 0001:00044130       ??_GMyObjectB@@UAEPAXI@Z   00445130 f i MyObjectB.obj
 0001:00044130       ??_EMyObjectB@@UAEPAXI@Z   00445130 f i MyObjectB.obj
 0001:00044170       ??0MyTileManager@@QAE@XZ   00445170 f   MyTileManager.obj
 0001:000441a0       ?virtDrawTileAt@MyTileManager@@UBEXPAVBaseEngine@@PAVDrawingSurface@@HHHH@Z 004451a0 f   MyTileManager.obj
 0001:00044250       ??1MyTileManager@@UAE@XZ   00445250 f i MyTileManager.obj
 0001:00044270       ??_GMyTileManager@@UAEPAXI@Z 00445270 f i MyTileManager.obj
 0001:00044270       ??_EMyTileManager@@UAEPAXI@Z 00445270 f i MyTileManager.obj
 0001:000442b0       ??0ParticleMap@@IAE@HHH@Z  004452b0 f   ParticleMap.obj
 0001:00044360       ?getInstance@ParticleMap@@SAPAV1@XZ 00445360 f   ParticleMap.obj
 0001:00044400       ??1ParticleMap@@UAE@XZ     00445400 f   ParticleMap.obj
 0001:00044450       ?virtDrawTileAt@ParticleMap@@UBEXPAVBaseEngine@@PAVDrawingSurface@@HHHH@Z 00445450 f   ParticleMap.obj
 0001:000444c0       ?initParticleMap@ParticleMap@@QAEXXZ 004454c0 f   ParticleMap.obj
 0001:000446b0       ?generateSpirit@ParticleMap@@QAEXXZ 004456b0 f   ParticleMap.obj
 0001:00044a10       ?generateEmpty@ParticleMap@@QAEXXZ 00445a10 f   ParticleMap.obj
 0001:00044b10       ?updateParticleMap@ParticleMap@@QAEXXZ 00445b10 f   ParticleMap.obj
 0001:00044c60       ?updateSpirit@ParticleMap@@QAEXHH@Z 00445c60 f   ParticleMap.obj
 0001:00045180       ?setSpiritFollowMouse@ParticleMap@@QAEX_N@Z 00446180 f   ParticleMap.obj
 0001:000451a0       ?setEmptyFollowMouse@ParticleMap@@QAEX_N@Z 004461a0 f   ParticleMap.obj
 0001:000451c0       ?setParticleAt@ParticleMap@@QAEXHHUParticle@@@Z 004461c0 f   ParticleMap.obj
 0001:00045200       ?setParticleAt@ParticleMap@@QAEXHHH@Z 00446200 f   ParticleMap.obj
 0001:000452b0       ?getParticleAt@ParticleMap@@QBEAAUParticle@@HH@Z 004462b0 f   ParticleMap.obj
 0001:000452e0       ?getParticleIdAt@ParticleMap@@QBEHHH@Z 004462e0 f   ParticleMap.obj
 0001:00045310       ?isEmpty@ParticleMap@@UBE_NHH@Z 00446310 f   ParticleMap.obj
 0001:00045790       ??$utils_clamp_g@M@@YAMMMM@Z 00446790 f i ParticleMap.obj
 0001:00045800       ??0Particle@@QAE@XZ        00446800 f i ParticleMap.obj
 0001:00045850       ??_GParticleMap@@UAEPAXI@Z 00446850 f i ParticleMap.obj
 0001:00045850       ??_EParticleMap@@UAEPAXI@Z 00446850 f i ParticleMap.obj
 0001:00045890       ??_H@YGXPAXIIP6EPAX0@Z@Z   00446890 f i ParticleMap.obj
 0001:000458d0       ?getCurrentSceneID@SceneStateMachine@@QAE?AW4SceneID@@XZ 004468d0 f i ParticleMap.obj
 0001:000458f0       ??0PauseUI@@IAE@XZ         004468f0 f   PauseUI.obj
 0001:000459d0       ?getInstance@PauseUI@@SAPAV1@XZ 004469d0 f   PauseUI.obj
 0001:00045a60       ?virtDoUpdate@PauseUI@@UAEXH@Z 00446a60 f   PauseUI.obj
 0001:00045a70       ?drawUI@PauseUI@@QAEXXZ    00446a70 f   PauseUI.obj
 0001:00045e50       ??1PauseUI@@UAE@XZ         00446e50 f i PauseUI.obj
 0001:00045e80       ??_EPauseUI@@UAEPAXI@Z     00446e80 f i PauseUI.obj
 0001:00045e80       ??_GPauseUI@@UAEPAXI@Z     00446e80 f i PauseUI.obj
 0001:00045ec0       ??0Player@@IAE@HHHHH@Z     00446ec0 f   Player.obj
 0001:00045ff0       ?getInstance@Player@@SAPAV1@XZ 00446ff0 f   Player.obj
 0001:00046090       ??1Player@@UAE@XZ          00447090 f   Player.obj
 0001:00046160       ?virtStart@Player@@UAEXXZ  00447160 f   Player.obj
 0001:00046470       ?virtDraw@Player@@UAEXXZ   00447470 f   Player.obj
 0001:000464a0       ?virtDoUpdate@Player@@UAEXH@Z 004474a0 f   Player.obj
 0001:00046500       ?takeHit@Player@@UAEXH@Z   00447500 f   Player.obj
 0001:00046540       ?onDeath@Player@@UAEXXZ    00447540 f   Player.obj
 0001:00046560       ?drawSprite@Player@@UAEXXZ 00447560 f   Player.obj
 0001:00046880       ??$?0$$V@?$_Compressed_pair@V?$allocator@U?$_Tree_node@U?$pair@$$CBW4PlayerState@@V?$shared_ptr@VAnimation@@@std@@@std@@PAX@std@@@std@@V?$_Tree_val@U?$_Tree_simple_types@U?$pair@$$CBW4PlayerState@@V?$shared_ptr@VAnimation@@@std@@@std@@@std@@@2@$00@std@@QAE@U_Zero_then_variadic_args_t@1@@Z 00447880 f i Player.obj
 0001:000468b0       ??$?0AAPAU?$_Tree_node@U?$pair@$$CBW4PlayerState@@V?$shared_ptr@VAnimation@@@std@@@std@@PAX@std@@_N$0A@@?$pair@PAU?$_Tree_node@U?$pair@$$CBW4PlayerState@@V?$shared_ptr@VAnimation@@@std@@@std@@PAX@std@@_N@std@@QAE@AAPAU?$_Tree_node@U?$pair@$$CBW4PlayerState@@V?$shared_ptr@VAnimation@@@std@@@std@@PAX@1@$$QA_N@Z 004478b0 f i Player.obj
 0001:00046900       ??$?0AAW4PlayerState@@AAV?$shared_ptr@VAnimation@@@std@@$0A@@?$pair@W4PlayerState@@V?$shared_ptr@VAnimation@@@std@@@std@@QAE@AAW4PlayerState@@AAV?$shared_ptr@VAnimation@@@1@@Z 00447900 f i Player.obj
 0001:00046950       ??$?0ABU?$less@W4PlayerState@@@std@@U_Zero_then_variadic_args_t@1@@?$_Compressed_pair@U?$less@W4PlayerState@@@std@@V?$_Compressed_pair@V?$allocator@U?$_Tree_node@U?$pair@$$CBW4PlayerState@@V?$shared_ptr@VAnimation@@@std@@@std@@PAX@std@@@std@@V?$_Tree_val@U?$_Tree_simple_types@U?$pair@$$CBW4PlayerState@@V?$shared_ptr@VAnimation@@@std@@@std@@@std@@@2@$00@2@$00@std@@QAE@U_One_then_variadic_args_t@1@ABU?$less@W4PlayerState@@@1@$$QAU_Zero_then_variadic_args_t@1@@Z 00447950 f i Player.obj
 0001:000469a0       ??$?0PAU?$_Tree_node@U?$pair@$$CBW4PlayerState@@V?$shared_ptr@VAnimation@@@std@@@std@@PAX@std@@_N$0A@@?$pair@PAU?$_Tree_node@U?$pair@$$CBW4PlayerState@@V?$shared_ptr@VAnimation@@@std@@@std@@PAX@std@@_N@std@@QAE@$$QAPAU?$_Tree_node@U?$pair@$$CBW4PlayerState@@V?$shared_ptr@VAnimation@@@std@@@std@@PAX@1@$$QA_N@Z 004479a0 f i Player.obj
 0001:000469f0       ??$?0U?$_Tree_node@U?$pair@$$CBW4PlayerState@@V?$shared_ptr@VAnimation@@@std@@@std@@PAX@std@@@?$allocator@U_Container_proxy@std@@@std@@QAE@ABV?$allocator@U?$_Tree_node@U?$pair@$$CBW4PlayerState@@V?$shared_ptr@VAnimation@@@std@@@std@@PAX@std@@@1@@Z 004479f0 f i Player.obj
 0001:00046a10       ??$?0U?$pair@W4PlayerState@@V?$shared_ptr@VAnimation@@@std@@@std@@@?$_Tree_temp_node@V?$allocator@U?$_Tree_node@U?$pair@$$CBW4PlayerState@@V?$shared_ptr@VAnimation@@@std@@@std@@PAX@std@@@std@@@std@@QAE@AAV?$allocator@U?$_Tree_node@U?$pair@$$CBW4PlayerState@@V?$shared_ptr@VAnimation@@@std@@@std@@PAX@std@@@1@PAU?$_Tree_node@U?$pair@$$CBW4PlayerState@@V?$shared_ptr@VAnimation@@@std@@@std@@PAX@1@$$QAU?$pair@W4PlayerState@@V?$shared_ptr@VAnimation@@@std@@@1@@Z 00447a10 f i Player.obj
 0001:00046b20       ??$?0V?$_Tree_iterator@V?$_Tree_val@U?$_Tree_simple_types@U?$pair@$$CBW4PlayerState@@V?$shared_ptr@VAnimation@@@std@@@std@@@std@@@std@@@std@@AB_N$0A@@?$pair@V?$_Tree_iterator@V?$_Tree_val@U?$_Tree_simple_types@U?$pair@$$CBW4PlayerState@@V?$shared_ptr@VAnimation@@@std@@@std@@@std@@@std@@@std@@_N@std@@QAE@$$QAV?$_Tree_iterator@V?$_Tree_val@U?$_Tree_simple_types@U?$pair@$$CBW4PlayerState@@V?$shared_ptr@VAnimation@@@std@@@std@@@std@@@std@@@1@AB_N@Z 00447b20 f i Player.obj
 0001:00046b70       ??$?0W4PlayerState@@V?$shared_ptr@VAnimation@@@std@@$0A@@?$pair@$$CBW4PlayerState@@V?$shared_ptr@VAnimation@@@std@@@std@@QAE@$$QAU?$pair@W4PlayerState@@V?$shared_ptr@VAnimation@@@std@@@1@@Z 00447b70 f i Player.obj
 0001:00046bc0       ??$?0W4PlayerState@@V?$shared_ptr@VAnimation@@@std@@$0A@@?$pair@W4PlayerState@@V?$shared_ptr@VAnimation@@@std@@@std@@QAE@XZ 00447bc0 f i Player.obj
 0001:00046c00       ??$_Buyheadnode@V?$allocator@U?$_Tree_node@U?$pair@$$CBW4PlayerState@@V?$shared_ptr@VAnimation@@@std@@@std@@PAX@std@@@std@@@?$_Tree_node@U?$pair@$$CBW4PlayerState@@V?$shared_ptr@VAnimation@@@std@@@std@@PAX@std@@SAPAU01@AAV?$allocator@U?$_Tree_node@U?$pair@$$CBW4PlayerState@@V?$shared_ptr@VAnimation@@@std@@@std@@PAX@std@@@1@@Z 00447c00 f i Player.obj
 0001:00046c80       ??$_Construct_in_place@PAU?$_Tree_node@U?$pair@$$CBW4PlayerState@@V?$shared_ptr@VAnimation@@@std@@@std@@PAX@std@@AAPAU12@@std@@YAXAAPAU?$_Tree_node@U?$pair@$$CBW4PlayerState@@V?$shared_ptr@VAnimation@@@std@@@std@@PAX@0@0@Z 00447c80 f i Player.obj
 0001:00046cd0       ??$_Construct_in_place@PAU?$_Tree_node@U?$pair@$$CBW4PlayerState@@V?$shared_ptr@VAnimation@@@std@@@std@@PAX@std@@ABQAU12@@std@@YAXAAPAU?$_Tree_node@U?$pair@$$CBW4PlayerState@@V?$shared_ptr@VAnimation@@@std@@@std@@PAX@0@ABQAU10@@Z 00447cd0 f i Player.obj
 0001:00046d20       ??$_Debug_lt_pred@ABU?$less@W4PlayerState@@@std@@ABW4PlayerState@@ABW43@$0A@@std@@YA_NABU?$less@W4PlayerState@@@0@ABW4PlayerState@@1@Z 00447d20 f i Player.obj
 0001:00046dd0       ??$_Destroy_in_place@PAU?$_Tree_node@U?$pair@$$CBW4PlayerState@@V?$shared_ptr@VAnimation@@@std@@@std@@PAX@std@@@std@@YAXAAPAU?$_Tree_node@U?$pair@$$CBW4PlayerState@@V?$shared_ptr@VAnimation@@@std@@@std@@PAX@0@@Z 00447dd0 f i Player.obj
 0001:00046de0       ??$_Emplace@U?$pair@W4PlayerState@@V?$shared_ptr@VAnimation@@@std@@@std@@@?$_Tree@V?$_Tmap_traits@W4PlayerState@@V?$shared_ptr@VAnimation@@@std@@U?$less@W4PlayerState@@@3@V?$allocator@U?$pair@$$CBW4PlayerState@@V?$shared_ptr@VAnimation@@@std@@@std@@@3@$0A@@std@@@std@@IAE?AU?$pair@PAU?$_Tree_node@U?$pair@$$CBW4PlayerState@@V?$shared_ptr@VAnimation@@@std@@@std@@PAX@std@@_N@1@$$QAU?$pair@W4PlayerState@@V?$shared_ptr@VAnimation@@@std@@@1@@Z 00447de0 f i Player.obj
 0001:00046f10       ??$_Erase_head@V?$allocator@U?$_Tree_node@U?$pair@$$CBW4PlayerState@@V?$shared_ptr@VAnimation@@@std@@@std@@PAX@std@@@std@@@?$_Tree_val@U?$_Tree_simple_types@U?$pair@$$CBW4PlayerState@@V?$shared_ptr@VAnimation@@@std@@@std@@@std@@@std@@QAEXAAV?$allocator@U?$_Tree_node@U?$pair@$$CBW4PlayerState@@V?$shared_ptr@VAnimation@@@std@@@std@@PAX@std@@@1@@Z 00447f10 f i Player.obj
 0001:00046f60       ??$_Erase_tree@V?$allocator@U?$_Tree_node@U?$pair@$$CBW4PlayerState@@V?$shared_ptr@VAnimation@@@std@@@std@@PAX@std@@@std@@@?$_Tree_val@U?$_Tree_simple_types@U?$pair@$$CBW4PlayerState@@V?$shared_ptr@VAnimation@@@std@@@std@@@std@@@std@@QAEXAAV?$allocator@U?$_Tree_node@U?$pair@$$CBW4PlayerState@@V?$shared_ptr@VAnimation@@@std@@@std@@PAX@std@@@1@PAU?$_Tree_node@U?$pair@$$CBW4PlayerState@@V?$shared_ptr@VAnimation@@@std@@@std@@PAX@1@@Z 00447f60 f i Player.obj
 0001:00046fc0       ??$_Find@W4PlayerState@@@?$_Tree@V?$_Tmap_traits@W4PlayerState@@V?$shared_ptr@VAnimation@@@std@@U?$less@W4PlayerState@@@3@V?$allocator@U?$pair@$$CBW4PlayerState@@V?$shared_ptr@VAnimation@@@std@@@std@@@3@$0A@@std@@@std@@ABEPAU?$_Tree_node@U?$pair@$$CBW4PlayerState@@V?$shared_ptr@VAnimation@@@std@@@std@@PAX@1@ABW4PlayerState@@@Z 00447fc0 f i Player.obj
 0001:00047020       ??$_Find_lower_bound@W4PlayerState@@@?$_Tree@V?$_Tmap_traits@W4PlayerState@@V?$shared_ptr@VAnimation@@@std@@U?$less@W4PlayerState@@@3@V?$allocator@U?$pair@$$CBW4PlayerState@@V?$shared_ptr@VAnimation@@@std@@@std@@@3@$0A@@std@@@std@@IBE?AU?$_Tree_find_result@PAU?$_Tree_node@U?$pair@$$CBW4PlayerState@@V?$shared_ptr@VAnimation@@@std@@@std@@PAX@std@@@1@ABW4PlayerState@@@Z 00448020 f i Player.obj
 0001:00047110       ??$_Freenode0@V?$allocator@U?$_Tree_node@U?$pair@$$CBW4PlayerState@@V?$shared_ptr@VAnimation@@@std@@@std@@PAX@std@@@std@@@?$_Tree_node@U?$pair@$$CBW4PlayerState@@V?$shared_ptr@VAnimation@@@std@@@std@@PAX@std@@SAXAAV?$allocator@U?$_Tree_node@U?$pair@$$CBW4PlayerState@@V?$shared_ptr@VAnimation@@@std@@@std@@PAX@std@@@1@PAU01@@Z 00448110 f i Player.obj
 0001:000471a0       ??$_Freenode@V?$allocator@U?$_Tree_node@U?$pair@$$CBW4PlayerState@@V?$shared_ptr@VAnimation@@@std@@@std@@PAX@std@@@std@@@?$_Tree_node@U?$pair@$$CBW4PlayerState@@V?$shared_ptr@VAnimation@@@std@@@std@@PAX@std@@SAXAAV?$allocator@U?$_Tree_node@U?$pair@$$CBW4PlayerState@@V?$shared_ptr@VAnimation@@@std@@@std@@PAX@std@@@1@PAU01@@Z 004481a0 f i Player.obj
 0001:00047220       ??$_Kfn@$$CBW4PlayerState@@V?$shared_ptr@VAnimation@@@std@@@?$_Tmap_traits@W4PlayerState@@V?$shared_ptr@VAnimation@@@std@@U?$less@W4PlayerState@@@3@V?$allocator@U?$pair@$$CBW4PlayerState@@V?$shared_ptr@VAnimation@@@std@@@std@@@3@$0A@@std@@SAABW4PlayerState@@ABU?$pair@$$CBW4PlayerState@@V?$shared_ptr@VAnimation@@@std@@@1@@Z 00448220 f i Player.obj
 0001:00047230       ??$_Lower_bound_duplicate@W4PlayerState@@@?$_Tree@V?$_Tmap_traits@W4PlayerState@@V?$shared_ptr@VAnimation@@@std@@U?$less@W4PlayerState@@@3@V?$allocator@U?$pair@$$CBW4PlayerState@@V?$shared_ptr@VAnimation@@@std@@@std@@@3@$0A@@std@@@std@@IBE_NQAU?$_Tree_node@U?$pair@$$CBW4PlayerState@@V?$shared_ptr@VAnimation@@@std@@@std@@PAX@1@ABW4PlayerState@@@Z 00448230 f i Player.obj
 0001:000472a0       ??$addressof@$$CBV?$_Tree_val@U?$_Tree_simple_types@U?$pair@$$CBW4PlayerState@@V?$shared_ptr@VAnimation@@@std@@@std@@@std@@@std@@@std@@YAPBV?$_Tree_val@U?$_Tree_simple_types@U?$pair@$$CBW4PlayerState@@V?$shared_ptr@VAnimation@@@std@@@std@@@std@@@0@ABV10@@Z 004482a0 f i Player.obj
 0001:000472b0       ??$addressof@PAU?$_Tree_node@U?$pair@$$CBW4PlayerState@@V?$shared_ptr@VAnimation@@@std@@@std@@PAX@std@@@std@@YAPAPAU?$_Tree_node@U?$pair@$$CBW4PlayerState@@V?$shared_ptr@VAnimation@@@std@@@std@@PAX@0@AAPAU10@@Z 004482b0 f i Player.obj
 0001:000472c0       ??$addressof@U?$pair@$$CBW4PlayerState@@V?$shared_ptr@VAnimation@@@std@@@std@@@std@@YAPAU?$pair@$$CBW4PlayerState@@V?$shared_ptr@VAnimation@@@std@@@0@AAU10@@Z 004482c0 f i Player.obj
 0001:000472d0       ??$addressof@V?$_Tree_val@U?$_Tree_simple_types@U?$pair@$$CBW4PlayerState@@V?$shared_ptr@VAnimation@@@std@@@std@@@std@@@std@@@std@@YAPAV?$_Tree_val@U?$_Tree_simple_types@U?$pair@$$CBW4PlayerState@@V?$shared_ptr@VAnimation@@@std@@@std@@@std@@@0@AAV10@@Z 004482d0 f i Player.obj
 0001:000472e0       ??$construct@U?$pair@$$CBW4PlayerState@@V?$shared_ptr@VAnimation@@@std@@@std@@U?$pair@W4PlayerState@@V?$shared_ptr@VAnimation@@@std@@@2@@?$_Default_allocator_traits@V?$allocator@U?$_Tree_node@U?$pair@$$CBW4PlayerState@@V?$shared_ptr@VAnimation@@@std@@@std@@PAX@std@@@std@@@std@@SAXAAV?$allocator@U?$_Tree_node@U?$pair@$$CBW4PlayerState@@V?$shared_ptr@VAnimation@@@std@@@std@@PAX@std@@@1@QAU?$pair@$$CBW4PlayerState@@V?$shared_ptr@VAnimation@@@std@@@1@$$QAU?$pair@W4PlayerState@@V?$shared_ptr@VAnimation@@@std@@@1@@Z 004482e0 f i Player.obj
 0001:00047320       ??$destroy@U?$pair@$$CBW4PlayerState@@V?$shared_ptr@VAnimation@@@std@@@std@@@?$_Default_allocator_traits@V?$allocator@U?$_Tree_node@U?$pair@$$CBW4PlayerState@@V?$shared_ptr@VAnimation@@@std@@@std@@PAX@std@@@std@@@std@@SAXAAV?$allocator@U?$_Tree_node@U?$pair@$$CBW4PlayerState@@V?$shared_ptr@VAnimation@@@std@@@std@@PAX@std@@@1@QAU?$pair@$$CBW4PlayerState@@V?$shared_ptr@VAnimation@@@std@@@1@@Z 00448320 f i Player.obj
 0001:00047340       ??$emplace@U?$pair@W4PlayerState@@V?$shared_ptr@VAnimation@@@std@@@std@@@?$_Tree@V?$_Tmap_traits@W4PlayerState@@V?$shared_ptr@VAnimation@@@std@@U?$less@W4PlayerState@@@3@V?$allocator@U?$pair@$$CBW4PlayerState@@V?$shared_ptr@VAnimation@@@std@@@std@@@3@$0A@@std@@@std@@QAE?AU?$pair@V?$_Tree_iterator@V?$_Tree_val@U?$_Tree_simple_types@U?$pair@$$CBW4PlayerState@@V?$shared_ptr@VAnimation@@@std@@@std@@@std@@@std@@@std@@_N@1@$$QAU?$pair@W4PlayerState@@V?$shared_ptr@VAnimation@@@std@@@1@@Z 00448340 f i Player.obj
 0001:000473d0       ??$exchange@PAU?$_Tree_node@U?$pair@$$CBW4PlayerState@@V?$shared_ptr@VAnimation@@@std@@@std@@PAX@std@@$$T@std@@YAPAU?$_Tree_node@U?$pair@$$CBW4PlayerState@@V?$shared_ptr@VAnimation@@@std@@@std@@PAX@0@AAPAU10@$$QA$$T@Z 004483d0 f i Player.obj
 0001:00047400       ??$exchange@PAU?$_Tree_node@U?$pair@$$CBW4PlayerState@@V?$shared_ptr@VAnimation@@@std@@@std@@PAX@std@@AAPAU12@@std@@YAPAU?$_Tree_node@U?$pair@$$CBW4PlayerState@@V?$shared_ptr@VAnimation@@@std@@@std@@PAX@0@AAPAU10@0@Z 00448400 f i Player.obj
 0001:00047430       ??$forward@AAPAU?$_Tree_node@U?$pair@$$CBW4PlayerState@@V?$shared_ptr@VAnimation@@@std@@@std@@PAX@std@@@std@@YAAAPAU?$_Tree_node@U?$pair@$$CBW4PlayerState@@V?$shared_ptr@VAnimation@@@std@@@std@@PAX@0@AAPAU10@@Z 00448430 f i Player.obj
 0001:00047440       ??$forward@AAW4PlayerState@@@std@@YAAAW4PlayerState@@AAW41@@Z 00448440 f i Player.obj
 0001:00047450       ??$forward@ABQAU?$_Tree_node@U?$pair@$$CBW4PlayerState@@V?$shared_ptr@VAnimation@@@std@@@std@@PAX@std@@@std@@YAABQAU?$_Tree_node@U?$pair@$$CBW4PlayerState@@V?$shared_ptr@VAnimation@@@std@@@std@@PAX@0@ABQAU10@@Z 00448450 f i Player.obj
 0001:00047460       ??$forward@ABU?$less@W4PlayerState@@@std@@@std@@YAABU?$less@W4PlayerState@@@0@ABU10@@Z 00448460 f i Player.obj
 0001:00047470       ??$forward@PAU?$_Tree_node@U?$pair@$$CBW4PlayerState@@V?$shared_ptr@VAnimation@@@std@@@std@@PAX@std@@@std@@YA$$QAPAU?$_Tree_node@U?$pair@$$CBW4PlayerState@@V?$shared_ptr@VAnimation@@@std@@@std@@PAX@0@AAPAU10@@Z 00448470 f i Player.obj
 0001:00047480       ??$forward@U?$pair@W4PlayerState@@V?$shared_ptr@VAnimation@@@std@@@std@@@std@@YA$$QAU?$pair@W4PlayerState@@V?$shared_ptr@VAnimation@@@std@@@0@AAU10@@Z 00448480 f i Player.obj
 0001:00047490       ??$forward@V?$_Tree_iterator@V?$_Tree_val@U?$_Tree_simple_types@U?$pair@$$CBW4PlayerState@@V?$shared_ptr@VAnimation@@@std@@@std@@@std@@@std@@@std@@@std@@YA$$QAV?$_Tree_iterator@V?$_Tree_val@U?$_Tree_simple_types@U?$pair@$$CBW4PlayerState@@V?$shared_ptr@VAnimation@@@std@@@std@@@std@@@std@@@0@AAV10@@Z 00448490 f i Player.obj
 0001:000474a0       ??$forward@W4PlayerState@@@std@@YA$$QAW4PlayerState@@AAW41@@Z 004484a0 f i Player.obj
 0001:000474b0       ??$insert@U?$pair@W4PlayerState@@V?$shared_ptr@VAnimation@@@std@@@std@@$0A@@?$map@W4PlayerState@@V?$shared_ptr@VAnimation@@@std@@U?$less@W4PlayerState@@@3@V?$allocator@U?$pair@$$CBW4PlayerState@@V?$shared_ptr@VAnimation@@@std@@@std@@@3@@std@@QAE?AU?$pair@V?$_Tree_iterator@V?$_Tree_val@U?$_Tree_simple_types@U?$pair@$$CBW4PlayerState@@V?$shared_ptr@VAnimation@@@std@@@std@@@std@@@std@@@std@@_N@1@$$QAU?$pair@W4PlayerState@@V?$shared_ptr@VAnimation@@@std@@@1@@Z 004484b0 f i Player.obj
 0001:00047500       ??$make_pair@AAW4PlayerState@@AAV?$shared_ptr@VAnimation@@@std@@@std@@YA?AU?$pair@W4PlayerState@@V?$shared_ptr@VAnimation@@@std@@@0@AAW4PlayerState@@AAV?$shared_ptr@VAnimation@@@0@@Z 00448500 f i Player.obj
 0001:00047540       ??0?$Animator@W4PlayerState@@X@@QAE@XZ 00448540 f i Player.obj
 0001:00047570       ??0?$_Alloc_construct_ptr@V?$allocator@U?$_Tree_node@U?$pair@$$CBW4PlayerState@@V?$shared_ptr@VAnimation@@@std@@@std@@PAX@std@@@std@@@std@@QAE@AAV?$allocator@U?$_Tree_node@U?$pair@$$CBW4PlayerState@@V?$shared_ptr@VAnimation@@@std@@@std@@PAX@std@@@1@@Z 00448570 f i Player.obj
 0001:000475a0       ??0?$_Tree@V?$_Tmap_traits@W4PlayerState@@V?$shared_ptr@VAnimation@@@std@@U?$less@W4PlayerState@@@3@V?$allocator@U?$pair@$$CBW4PlayerState@@V?$shared_ptr@VAnimation@@@std@@@std@@@3@$0A@@std@@@std@@QAE@ABU?$less@W4PlayerState@@@1@@Z 004485a0 f i Player.obj
 0001:000475e0       ??0?$_Tree_const_iterator@V?$_Tree_val@U?$_Tree_simple_types@U?$pair@$$CBW4PlayerState@@V?$shared_ptr@VAnimation@@@std@@@std@@@std@@@std@@@std@@QAE@$$QAV01@@Z 004485e0 f i Player.obj
 0001:00047610       ??0?$_Tree_const_iterator@V?$_Tree_val@U?$_Tree_simple_types@U?$pair@$$CBW4PlayerState@@V?$shared_ptr@VAnimation@@@std@@@std@@@std@@@std@@@std@@QAE@PAU?$_Tree_node@U?$pair@$$CBW4PlayerState@@V?$shared_ptr@VAnimation@@@std@@@std@@PAX@1@PBV?$_Tree_val@U?$_Tree_simple_types@U?$pair@$$CBW4PlayerState@@V?$shared_ptr@VAnimation@@@std@@@std@@@std@@@1@@Z 00448610 f i Player.obj
 0001:00047640       ??0?$_Tree_iterator@V?$_Tree_val@U?$_Tree_simple_types@U?$pair@$$CBW4PlayerState@@V?$shared_ptr@VAnimation@@@std@@@std@@@std@@@std@@@std@@QAE@$$QAV01@@Z 00448640 f i Player.obj
 0001:00047670       ??0?$_Tree_iterator@V?$_Tree_val@U?$_Tree_simple_types@U?$pair@$$CBW4PlayerState@@V?$shared_ptr@VAnimation@@@std@@@std@@@std@@@std@@@std@@QAE@PAU?$_Tree_node@U?$pair@$$CBW4PlayerState@@V?$shared_ptr@VAnimation@@@std@@@std@@PAX@1@PBV?$_Tree_val@U?$_Tree_simple_types@U?$pair@$$CBW4PlayerState@@V?$shared_ptr@VAnimation@@@std@@@std@@@std@@@1@@Z 00448670 f i Player.obj
 0001:000476a0       ??0?$_Tree_temp_node_alloc@V?$allocator@U?$_Tree_node@U?$pair@$$CBW4PlayerState@@V?$shared_ptr@VAnimation@@@std@@@std@@PAX@std@@@std@@@std@@QAE@AAV?$allocator@U?$_Tree_node@U?$pair@$$CBW4PlayerState@@V?$shared_ptr@VAnimation@@@std@@@std@@PAX@std@@@1@@Z 004486a0 f i Player.obj
 0001:00047720       ??0?$_Tree_unchecked_const_iterator@V?$_Tree_val@U?$_Tree_simple_types@U?$pair@$$CBW4PlayerState@@V?$shared_ptr@VAnimation@@@std@@@std@@@std@@@std@@U_Iterator_base12@2@@std@@QAE@$$QAV01@@Z 00448720 f i Player.obj
 0001:00047760       ??0?$_Tree_unchecked_const_iterator@V?$_Tree_val@U?$_Tree_simple_types@U?$pair@$$CBW4PlayerState@@V?$shared_ptr@VAnimation@@@std@@@std@@@std@@@std@@U_Iterator_base12@2@@std@@QAE@PAU?$_Tree_node@U?$pair@$$CBW4PlayerState@@V?$shared_ptr@VAnimation@@@std@@@std@@PAX@1@PBV?$_Tree_val@U?$_Tree_simple_types@U?$pair@$$CBW4PlayerState@@V?$shared_ptr@VAnimation@@@std@@@std@@@std@@@1@@Z 00448760 f i Player.obj
 0001:000477a0       ??0?$_Tree_val@U?$_Tree_simple_types@U?$pair@$$CBW4PlayerState@@V?$shared_ptr@VAnimation@@@std@@@std@@@std@@@std@@QAE@XZ 004487a0 f i Player.obj
 0001:000477e0       ??0?$allocator@U?$_Tree_node@U?$pair@$$CBW4PlayerState@@V?$shared_ptr@VAnimation@@@std@@@std@@PAX@std@@@std@@QAE@XZ 004487e0 f i Player.obj
 0001:00047800       ??0?$map@W4PlayerState@@V?$shared_ptr@VAnimation@@@std@@U?$less@W4PlayerState@@@3@V?$allocator@U?$pair@$$CBW4PlayerState@@V?$shared_ptr@VAnimation@@@std@@@std@@@3@@std@@QAE@XZ 00448800 f i Player.obj
 0001:00047830       ??1?$Animator@W4PlayerState@@X@@QAE@XZ 00448830 f i Player.obj
 0001:00047860       ??1?$_Alloc_construct_ptr@V?$allocator@U?$_Tree_node@U?$pair@$$CBW4PlayerState@@V?$shared_ptr@VAnimation@@@std@@@std@@PAX@std@@@std@@@std@@QAE@XZ 00448860 f i Player.obj
 0001:000478d0       ??1?$_Tree@V?$_Tmap_traits@W4PlayerState@@V?$shared_ptr@VAnimation@@@std@@U?$less@W4PlayerState@@@3@V?$allocator@U?$pair@$$CBW4PlayerState@@V?$shared_ptr@VAnimation@@@std@@@std@@@3@$0A@@std@@@std@@QAE@XZ 004488d0 f i Player.obj
 0001:00047940       ??1?$_Tree_const_iterator@V?$_Tree_val@U?$_Tree_simple_types@U?$pair@$$CBW4PlayerState@@V?$shared_ptr@VAnimation@@@std@@@std@@@std@@@std@@@std@@QAE@XZ 00448940 f i Player.obj
 0001:00047960       ??1?$_Tree_iterator@V?$_Tree_val@U?$_Tree_simple_types@U?$pair@$$CBW4PlayerState@@V?$shared_ptr@VAnimation@@@std@@@std@@@std@@@std@@@std@@QAE@XZ 00448960 f i Player.obj
 0001:00047980       ??1?$_Tree_temp_node@V?$allocator@U?$_Tree_node@U?$pair@$$CBW4PlayerState@@V?$shared_ptr@VAnimation@@@std@@@std@@PAX@std@@@std@@@std@@QAE@XZ 00448980 f i Player.obj
 0001:00047a50       ??1?$_Tree_temp_node_alloc@V?$allocator@U?$_Tree_node@U?$pair@$$CBW4PlayerState@@V?$shared_ptr@VAnimation@@@std@@@std@@PAX@std@@@std@@@std@@QAE@XZ 00448a50 f i Player.obj
 0001:00047a70       ??1?$_Tree_unchecked_const_iterator@V?$_Tree_val@U?$_Tree_simple_types@U?$pair@$$CBW4PlayerState@@V?$shared_ptr@VAnimation@@@std@@@std@@@std@@@std@@U_Iterator_base12@2@@std@@QAE@XZ 00448a70 f i Player.obj
 0001:00047a90       ??1?$map@W4PlayerState@@V?$shared_ptr@VAnimation@@@std@@U?$less@W4PlayerState@@@3@V?$allocator@U?$pair@$$CBW4PlayerState@@V?$shared_ptr@VAnimation@@@std@@@std@@@3@@std@@QAE@XZ 00448a90 f i Player.obj
 0001:00047ab0       ??1?$pair@$$CBW4PlayerState@@V?$shared_ptr@VAnimation@@@std@@@std@@QAE@XZ 00448ab0 f i Player.obj
 0001:00047ad0       ??1?$pair@V?$_Tree_iterator@V?$_Tree_val@U?$_Tree_simple_types@U?$pair@$$CBW4PlayerState@@V?$shared_ptr@VAnimation@@@std@@@std@@@std@@@std@@@std@@_N@std@@QAE@XZ 00448ad0 f i Player.obj
 0001:00047af0       ??1?$pair@W4PlayerState@@V?$shared_ptr@VAnimation@@@std@@@std@@QAE@XZ 00448af0 f i Player.obj
 0001:00047b10       ??8?$_Tree_const_iterator@V?$_Tree_val@U?$_Tree_simple_types@U?$pair@$$CBW4PlayerState@@V?$shared_ptr@VAnimation@@@std@@@std@@@std@@@std@@@std@@QBE_NABV01@@Z 00448b10 f i Player.obj
 0001:00047bd0       ??9?$_Tree_const_iterator@V?$_Tree_val@U?$_Tree_simple_types@U?$pair@$$CBW4PlayerState@@V?$shared_ptr@VAnimation@@@std@@@std@@@std@@@std@@@std@@QBE_NABV01@@Z 00448bd0 f i Player.obj
 0001:00047c20       ??C?$_Tree_iterator@V?$_Tree_val@U?$_Tree_simple_types@U?$pair@$$CBW4PlayerState@@V?$shared_ptr@VAnimation@@@std@@@std@@@std@@@std@@@std@@QBEPAU?$pair@$$CBW4PlayerState@@V?$shared_ptr@VAnimation@@@std@@@1@XZ 00448c20 f i Player.obj
 0001:00047c50       ??D?$_Tree_const_iterator@V?$_Tree_val@U?$_Tree_simple_types@U?$pair@$$CBW4PlayerState@@V?$shared_ptr@VAnimation@@@std@@@std@@@std@@@std@@@std@@QBEABU?$pair@$$CBW4PlayerState@@V?$shared_ptr@VAnimation@@@std@@@1@XZ 00448c50 f i Player.obj
 0001:00047d60       ??D?$_Tree_iterator@V?$_Tree_val@U?$_Tree_simple_types@U?$pair@$$CBW4PlayerState@@V?$shared_ptr@VAnimation@@@std@@@std@@@std@@@std@@@std@@QBEAAU?$pair@$$CBW4PlayerState@@V?$shared_ptr@VAnimation@@@std@@@1@XZ 00448d60 f i Player.obj
 0001:00047d80       ??R?$less@W4PlayerState@@@std@@QBE_NABW4PlayerState@@0@Z 00448d80 f i Player.obj
 0001:00047db9       ??_EPlayer@@WEI@AEPAXI@Z   00448db9 f i Player.obj
 0001:00047dd0       ??_G?$Animator@W4PlayerState@@X@@QAEPAXI@Z 00448dd0 f i Player.obj
 0001:00047e10       ??_G?$pair@$$CBW4PlayerState@@V?$shared_ptr@VAnimation@@@std@@@std@@QAEPAXI@Z 00448e10 f i Player.obj
 0001:00047e50       ??_EPlayer@@UAEPAXI@Z      00448e50 f i Player.obj
 0001:00047e50       ??_GPlayer@@UAEPAXI@Z      00448e50 f i Player.obj
 0001:00047e90       ??_GPlayerController@@QAEPAXI@Z 00448e90 f i Player.obj
 0001:00047ed0       ?_Alloc_sentinel_and_proxy@?$_Tree@V?$_Tmap_traits@W4PlayerState@@V?$shared_ptr@VAnimation@@@std@@U?$less@W4PlayerState@@@3@V?$allocator@U?$pair@$$CBW4PlayerState@@V?$shared_ptr@VAnimation@@@std@@@std@@@3@$0A@@std@@@std@@IAEXXZ 00448ed0 f i Player.obj
 0001:00047fa0       ?_Allocate@?$_Alloc_construct_ptr@V?$allocator@U?$_Tree_node@U?$pair@$$CBW4PlayerState@@V?$shared_ptr@VAnimation@@@std@@@std@@PAX@std@@@std@@@std@@QAEXXZ 00448fa0 f i Player.obj
 0001:00047fd0       ?_Check_grow_by_1@?$_Tree@V?$_Tmap_traits@W4PlayerState@@V?$shared_ptr@VAnimation@@@std@@U?$less@W4PlayerState@@@3@V?$allocator@U?$pair@$$CBW4PlayerState@@V?$shared_ptr@VAnimation@@@std@@@std@@@3@$0A@@std@@@std@@IAEXXZ 00448fd0 f i Player.obj
 0001:00048010       ?_Extract@?$_In_place_key_extract_map@W4PlayerState@@U?$pair@W4PlayerState@@V?$shared_ptr@VAnimation@@@std@@@std@@@std@@SAABW4PlayerState@@ABU?$pair@W4PlayerState@@V?$shared_ptr@VAnimation@@@std@@@2@@Z 00449010 f i Player.obj
 0001:00048020       ?_Get_first@?$_Compressed_pair@U?$less@W4PlayerState@@@std@@V?$_Compressed_pair@V?$allocator@U?$_Tree_node@U?$pair@$$CBW4PlayerState@@V?$shared_ptr@VAnimation@@@std@@@std@@PAX@std@@@std@@V?$_Tree_val@U?$_Tree_simple_types@U?$pair@$$CBW4PlayerState@@V?$shared_ptr@VAnimation@@@std@@@std@@@std@@@2@$00@2@$00@std@@QBEABU?$less@W4PlayerState@@@2@XZ 00449020 f i Player.obj
 0001:00048040       ?_Get_first@?$_Compressed_pair@V?$allocator@U?$_Tree_node@U?$pair@$$CBW4PlayerState@@V?$shared_ptr@VAnimation@@@std@@@std@@PAX@std@@@std@@V?$_Tree_val@U?$_Tree_simple_types@U?$pair@$$CBW4PlayerState@@V?$shared_ptr@VAnimation@@@std@@@std@@@std@@@2@$00@std@@QAEAAV?$allocator@U?$_Tree_node@U?$pair@$$CBW4PlayerState@@V?$shared_ptr@VAnimation@@@std@@@std@@PAX@std@@@2@XZ 00449040 f i Player.obj
 0001:00048060       ?_Get_first@?$_Compressed_pair@V?$allocator@U?$_Tree_node@U?$pair@$$CBW4PlayerState@@V?$shared_ptr@VAnimation@@@std@@@std@@PAX@std@@@std@@V?$_Tree_val@U?$_Tree_simple_types@U?$pair@$$CBW4PlayerState@@V?$shared_ptr@VAnimation@@@std@@@std@@@std@@@2@$00@std@@QBEABV?$allocator@U?$_Tree_node@U?$pair@$$CBW4PlayerState@@V?$shared_ptr@VAnimation@@@std@@@std@@PAX@std@@@2@XZ 00449060 f i Player.obj
 0001:00048080       ?_Get_scary@?$_Tree@V?$_Tmap_traits@W4PlayerState@@V?$shared_ptr@VAnimation@@@std@@U?$less@W4PlayerState@@@3@V?$allocator@U?$pair@$$CBW4PlayerState@@V?$shared_ptr@VAnimation@@@std@@@std@@@3@$0A@@std@@@std@@IAEPAV?$_Tree_val@U?$_Tree_simple_types@U?$pair@$$CBW4PlayerState@@V?$shared_ptr@VAnimation@@@std@@@std@@@std@@@2@XZ 00449080 f i Player.obj
 0001:000480a0       ?_Get_scary@?$_Tree@V?$_Tmap_traits@W4PlayerState@@V?$shared_ptr@VAnimation@@@std@@U?$less@W4PlayerState@@@3@V?$allocator@U?$pair@$$CBW4PlayerState@@V?$shared_ptr@VAnimation@@@std@@@std@@@3@$0A@@std@@@std@@IBEPBV?$_Tree_val@U?$_Tree_simple_types@U?$pair@$$CBW4PlayerState@@V?$shared_ptr@VAnimation@@@std@@@std@@@std@@@2@XZ 004490a0 f i Player.obj
 0001:000480c0       ?_Getal@?$_Tree@V?$_Tmap_traits@W4PlayerState@@V?$shared_ptr@VAnimation@@@std@@U?$less@W4PlayerState@@@3@V?$allocator@U?$pair@$$CBW4PlayerState@@V?$shared_ptr@VAnimation@@@std@@@std@@@3@$0A@@std@@@std@@IAEAAV?$allocator@U?$_Tree_node@U?$pair@$$CBW4PlayerState@@V?$shared_ptr@VAnimation@@@std@@@std@@PAX@std@@@2@XZ 004490c0 f i Player.obj
 0001:000480e0       ?_Getal@?$_Tree@V?$_Tmap_traits@W4PlayerState@@V?$shared_ptr@VAnimation@@@std@@U?$less@W4PlayerState@@@3@V?$allocator@U?$pair@$$CBW4PlayerState@@V?$shared_ptr@VAnimation@@@std@@@std@@@3@$0A@@std@@@std@@IBEABV?$allocator@U?$_Tree_node@U?$pair@$$CBW4PlayerState@@V?$shared_ptr@VAnimation@@@std@@@std@@PAX@std@@@2@XZ 004490e0 f i Player.obj
 0001:00048100       ?_Getcomp@?$_Tree@V?$_Tmap_traits@W4PlayerState@@V?$shared_ptr@VAnimation@@@std@@U?$less@W4PlayerState@@@3@V?$allocator@U?$pair@$$CBW4PlayerState@@V?$shared_ptr@VAnimation@@@std@@@std@@@3@$0A@@std@@@std@@IBEABU?$less@W4PlayerState@@@2@XZ 00449100 f i Player.obj
 0001:00048120       ?_Insert_node@?$_Tree_val@U?$_Tree_simple_types@U?$pair@$$CBW4PlayerState@@V?$shared_ptr@VAnimation@@@std@@@std@@@std@@@std@@QAEPAU?$_Tree_node@U?$pair@$$CBW4PlayerState@@V?$shared_ptr@VAnimation@@@std@@@std@@PAX@2@U?$_Tree_id@PAU?$_Tree_node@U?$pair@$$CBW4PlayerState@@V?$shared_ptr@VAnimation@@@std@@@std@@PAX@std@@@2@QAU32@@Z 00449120 f i Player.obj
 0001:000483b0       ?_Lrotate@?$_Tree_val@U?$_Tree_simple_types@U?$pair@$$CBW4PlayerState@@V?$shared_ptr@VAnimation@@@std@@@std@@@std@@@std@@QAEXPAU?$_Tree_node@U?$pair@$$CBW4PlayerState@@V?$shared_ptr@VAnimation@@@std@@@std@@PAX@2@@Z 004493b0 f i Player.obj
 0001:00048470       ?_Release@?$_Alloc_construct_ptr@V?$allocator@U?$_Tree_node@U?$pair@$$CBW4PlayerState@@V?$shared_ptr@VAnimation@@@std@@@std@@PAX@std@@@std@@@std@@QAEPAU?$_Tree_node@U?$pair@$$CBW4PlayerState@@V?$shared_ptr@VAnimation@@@std@@@std@@PAX@2@XZ 00449470 f i Player.obj
 0001:000484a0       ?_Rrotate@?$_Tree_val@U?$_Tree_simple_types@U?$pair@$$CBW4PlayerState@@V?$shared_ptr@VAnimation@@@std@@@std@@@std@@@std@@QAEXPAU?$_Tree_node@U?$pair@$$CBW4PlayerState@@V?$shared_ptr@VAnimation@@@std@@@std@@PAX@2@@Z 004494a0 f i Player.obj
 0001:00048570       ?addAnimation@?$Animator@W4PlayerState@@X@@QAEXW4PlayerState@@V?$shared_ptr@VAnimation@@@std@@@Z 00449570 f i Player.obj
 0001:00048630       ?allocate@?$allocator@U?$_Tree_node@U?$pair@$$CBW4PlayerState@@V?$shared_ptr@VAnimation@@@std@@@std@@PAX@std@@@std@@QAEPAU?$_Tree_node@U?$pair@$$CBW4PlayerState@@V?$shared_ptr@VAnimation@@@std@@@std@@PAX@2@I@Z 00449630 f i Player.obj
 0001:00048660       ?deallocate@?$_Default_allocator_traits@V?$allocator@U?$_Tree_node@U?$pair@$$CBW4PlayerState@@V?$shared_ptr@VAnimation@@@std@@@std@@PAX@std@@@std@@@std@@SAXAAV?$allocator@U?$_Tree_node@U?$pair@$$CBW4PlayerState@@V?$shared_ptr@VAnimation@@@std@@@std@@PAX@std@@@2@QAU?$_Tree_node@U?$pair@$$CBW4PlayerState@@V?$shared_ptr@VAnimation@@@std@@@std@@PAX@2@I@Z 00449660 f i Player.obj
 0001:00048680       ?deallocate@?$allocator@U?$_Tree_node@U?$pair@$$CBW4PlayerState@@V?$shared_ptr@VAnimation@@@std@@@std@@PAX@std@@@std@@QAEXQAU?$_Tree_node@U?$pair@$$CBW4PlayerState@@V?$shared_ptr@VAnimation@@@std@@@std@@PAX@2@I@Z 00449680 f i Player.obj
 0001:000486b0       ?end@?$_Tree@V?$_Tmap_traits@W4PlayerState@@V?$shared_ptr@VAnimation@@@std@@U?$less@W4PlayerState@@@3@V?$allocator@U?$pair@$$CBW4PlayerState@@V?$shared_ptr@VAnimation@@@std@@@std@@@3@$0A@@std@@@std@@QAE?AV?$_Tree_iterator@V?$_Tree_val@U?$_Tree_simple_types@U?$pair@$$CBW4PlayerState@@V?$shared_ptr@VAnimation@@@std@@@std@@@std@@@std@@@2@XZ 004496b0 f i Player.obj
 0001:000486f0       ?find@?$_Tree@V?$_Tmap_traits@W4PlayerState@@V?$shared_ptr@VAnimation@@@std@@U?$less@W4PlayerState@@@3@V?$allocator@U?$pair@$$CBW4PlayerState@@V?$shared_ptr@VAnimation@@@std@@@std@@@3@$0A@@std@@@std@@QAE?AV?$_Tree_iterator@V?$_Tree_val@U?$_Tree_simple_types@U?$pair@$$CBW4PlayerState@@V?$shared_ptr@VAnimation@@@std@@@std@@@std@@@std@@@2@ABW4PlayerState@@@Z 004496f0 f i Player.obj
 0001:00048740       ?max_size@?$_Default_allocator_traits@V?$allocator@U?$_Tree_node@U?$pair@$$CBW4PlayerState@@V?$shared_ptr@VAnimation@@@std@@@std@@PAX@std@@@std@@@std@@SAIABV?$allocator@U?$_Tree_node@U?$pair@$$CBW4PlayerState@@V?$shared_ptr@VAnimation@@@std@@@std@@PAX@std@@@2@@Z 00449740 f i Player.obj
 0001:00048750       ?max_size@?$_Tree@V?$_Tmap_traits@W4PlayerState@@V?$shared_ptr@VAnimation@@@std@@U?$less@W4PlayerState@@@3@V?$allocator@U?$pair@$$CBW4PlayerState@@V?$shared_ptr@VAnimation@@@std@@@std@@@3@$0A@@std@@@std@@QBEIXZ 00449750 f i Player.obj
 0001:000487a0       ?play@?$Animator@W4PlayerState@@X@@QAEABVSimpleImage@@XZ 004497a0 f i Player.obj
 0001:000487e0       ?pointer_to@?$pointer_traits@PAU?$pair@$$CBW4PlayerState@@V?$shared_ptr@VAnimation@@@std@@@std@@@std@@SAPAU?$pair@$$CBW4PlayerState@@V?$shared_ptr@VAnimation@@@std@@@2@AAU32@@Z 004497e0 f i Player.obj
 0001:00048800       ?setAnimationState@?$Animator@W4PlayerState@@X@@QAEXW4PlayerState@@@Z 00449800 f i Player.obj
 0001:00048920       ?setBrightnessPercentage@ImageMappingGeneralist@@QAEXH@Z 00449920 f i Player.obj
 0001:00048940       ?setNthPixelColours@ImageMappingGeneralist@@QAEXHHH@Z 00449940 f i Player.obj
 0001:00048980       ??0PlayerController@@QAE@XZ 00449980 f   PlayerController.obj
 0001:000489a0       ??1PlayerController@@QAE@XZ 004499a0 f   PlayerController.obj
 0001:000489b0       ?move@PlayerController@@QAE?AW4PlayerState@@XZ 004499b0 f   PlayerController.obj
 0001:00048b40       ?lookAt@PlayerController@@QAEXXZ 00449b40 f   PlayerController.obj
 0001:00048c30       ??$?DH$0A@@Vec2@@QBE?AU0@H@Z 00449c30 f i PlayerController.obj
 0001:00048c70       ?getMoveSpeed@Player@@QAEHXZ 00449c70 f i PlayerController.obj
 0001:00048c90       ?setAngle@GameObject@@QAEXN@Z 00449c90 f i PlayerController.obj
 0001:00048cb0       ??0Projectile@@QAE@UVec2@@0@Z 00449cb0 f   Projectile.obj
 0001:00048d40       ?fly@Projectile@@QAE_NXZ   00449d40 f   Projectile.obj
 0001:00048e50       ?checkCollision@Projectile@@UAE_NXZ 00449e50 f   Projectile.obj
 0001:00049060       ?getEffectRadiusFly@Projectile@@QAEHXZ 0044a060 f   Projectile.obj
 0001:000490f0       ?getEffectRadiusHit@Projectile@@QAEHXZ 0044a0f0 f   Projectile.obj
 0001:00049260       ??$?0V?$allocator@PAVGallo@@@std@@$$V@?$_Compressed_pair@V?$allocator@PAVGallo@@@std@@V?$_Vector_val@U?$_Simple_types@PAVGallo@@@std@@@2@$00@std@@QAE@U_One_then_variadic_args_t@1@$$QAV?$allocator@PAVGallo@@@1@@Z 0044a260 f i Projectile.obj
 0001:00049290       ??$_Ucopy@PAPAVGallo@@@?$vector@PAVGallo@@V?$allocator@PAVGallo@@@std@@@std@@AAEPAPAVGallo@@PAPAV2@00@Z 0044a290 f i Projectile.obj
 0001:000492d0       ??$_Uninitialized_copy@PAPAVGallo@@V?$allocator@PAVGallo@@@std@@@std@@YAPAPAVGallo@@QAPAV1@0PAPAV1@AAV?$allocator@PAVGallo@@@0@@Z 0044a2d0 f i Projectile.obj
 0001:00049340       ??$forward@V?$allocator@PAVGallo@@@std@@@std@@YA$$QAV?$allocator@PAVGallo@@@0@AAV10@@Z 0044a340 f i Projectile.obj
 0001:00049350       ??0?$vector@PAVGallo@@V?$allocator@PAVGallo@@@std@@@std@@QAE@ABV01@@Z 0044a350 f i Projectile.obj
 0001:000494b0       ??0Collidable@@QAE@XZ      0044a4b0 f i Projectile.obj
 0001:000494d0       ??1?$_Tidy_guard@V?$vector@PAVGallo@@V?$allocator@PAVGallo@@@std@@@std@@@std@@QAE@XZ 0044a4d0 f i Projectile.obj
 0001:00049500       ?_Buy_raw@?$vector@PAVGallo@@V?$allocator@PAVGallo@@@std@@@std@@AAEXI@Z 0044a500 f i Projectile.obj
 0001:00049580       ?select_on_container_copy_construction@?$_Default_allocator_traits@V?$allocator@PAVGallo@@@std@@@std@@SA?AV?$allocator@PAVGallo@@@2@ABV32@@Z 0044a580 f i Projectile.obj
 0001:00049590       ??0RecordManager@@IAE@XZ   0044a590 f   RecordManager.obj
 0001:00049680       ?getInstance@RecordManager@@SAPAV1@XZ 0044a680 f   RecordManager.obj
 0001:00049710       ?readRecordFromFile@RecordManager@@QAEXXZ 0044a710 f   RecordManager.obj
 0001:000499c0       ?updateRecordToFile@RecordManager@@QAEXV?$basic_string@DU?$char_traits@D@std@@V?$allocator@D@2@@std@@@Z 0044a9c0 f   RecordManager.obj
 0001:00049c90       ?resetRecordFile@RecordManager@@QAEXXZ 0044ac90 f   RecordManager.obj
 0001:00049eb0       ?updateInGameData@RecordManager@@QAEXHHHH@Z 0044aeb0 f   RecordManager.obj
 0001:00049ee0       ?decodeResult@RecordManager@@QAEABV?$vector@V?$basic_string@DU?$char_traits@D@std@@V?$allocator@D@2@@std@@V?$allocator@V?$basic_string@DU?$char_traits@D@std@@V?$allocator@D@2@@std@@@2@@std@@XZ 0044aee0 f   RecordManager.obj
 0001:0004a740       ?decodeRecord@RecordManager@@QAEABV?$vector@V?$basic_string@DU?$char_traits@D@std@@V?$allocator@D@2@@std@@V?$allocator@V?$basic_string@DU?$char_traits@D@std@@V?$allocator@D@2@@std@@@2@@std@@XZ 0044b740 f   RecordManager.obj
 0001:0004b190       ??$?0$$V@?$_Compressed_pair@V?$allocator@V?$basic_string@DU?$char_traits@D@std@@V?$allocator@D@2@@std@@@std@@V?$_Vector_val@U?$_Simple_types@V?$basic_string@DU?$char_traits@D@std@@V?$allocator@D@2@@std@@@std@@@2@$00@std@@QAE@U_Zero_then_variadic_args_t@1@@Z 0044c190 f i RecordManager.obj
 0001:0004b1c0       ??$?0AAPAV_Facet_base@std@@@?$_Compressed_pair@U?$default_delete@V_Facet_base@std@@@std@@PAV_Facet_base@2@$00@std@@QAE@U_Zero_then_variadic_args_t@1@AAPAV_Facet_base@1@@Z 0044c1c0 f i RecordManager.obj
 0001:0004b1f0       ??$?0U?$default_delete@V_Facet_base@std@@@std@@$0A@@?$unique_ptr@V_Facet_base@std@@U?$default_delete@V_Facet_base@std@@@2@@std@@QAE@PAV_Facet_base@1@@Z 0044c1f0 f i RecordManager.obj
 0001:0004b220       ??$?0V?$basic_string@DU?$char_traits@D@std@@V?$allocator@D@2@@std@@@?$allocator@U_Container_proxy@std@@@std@@QAE@ABV?$allocator@V?$basic_string@DU?$char_traits@D@std@@V?$allocator@D@2@@std@@@1@@Z 0044c220 f i RecordManager.obj
 0001:0004b240       ??$?HDU?$char_traits@D@std@@V?$allocator@D@1@@std@@YA?AV?$basic_string@DU?$char_traits@D@std@@V?$allocator@D@2@@0@$$QAV10@ABV10@@Z 0044c240 f i RecordManager.obj
 0001:0004b290       ??$?HDU?$char_traits@D@std@@V?$allocator@D@1@@std@@YA?AV?$basic_string@DU?$char_traits@D@std@@V?$allocator@D@2@@0@$$QAV10@QBD@Z 0044c290 f i RecordManager.obj
 0001:0004b2e0       ??$?HDU?$char_traits@D@std@@V?$allocator@D@1@@std@@YA?AV?$basic_string@DU?$char_traits@D@std@@V?$allocator@D@2@@0@QBD$$QAV10@@Z 0044c2e0 f i RecordManager.obj
 0001:0004b330       ??$_Destroy_range@V?$allocator@V?$basic_string@DU?$char_traits@D@std@@V?$allocator@D@2@@std@@@std@@@std@@YAXPAV?$basic_string@DU?$char_traits@D@std@@V?$allocator@D@2@@0@QAV10@AAV?$allocator@V?$basic_string@DU?$char_traits@D@std@@V?$allocator@D@2@@std@@@0@@Z 0044c330 f i RecordManager.obj
 0001:0004b3b0       ??$_Emplace_back@V?$basic_string@DU?$char_traits@D@std@@V?$allocator@D@2@@std@@@?$_Uninitialized_backout_al@V?$allocator@V?$basic_string@DU?$char_traits@D@std@@V?$allocator@D@2@@std@@@std@@@std@@QAEX$$QAV?$basic_string@DU?$char_traits@D@std@@V?$allocator@D@2@@1@@Z 0044c3b0 f i RecordManager.obj
 0001:0004b410       ??$_Emplace_back_with_unused_capacity@ABV?$basic_string@DU?$char_traits@D@std@@V?$allocator@D@2@@std@@@?$vector@V?$basic_string@DU?$char_traits@D@std@@V?$allocator@D@2@@std@@V?$allocator@V?$basic_string@DU?$char_traits@D@std@@V?$allocator@D@2@@std@@@2@@std@@AAE@ABV?$basic_string@DU?$char_traits@D@std@@V?$allocator@D@2@@1@@Z 0044c410 f i RecordManager.obj
 0001:0004b4b0       ??$_Emplace_back_with_unused_capacity@V?$basic_string@DU?$char_traits@D@std@@V?$allocator@D@2@@std@@@?$vector@V?$basic_string@DU?$char_traits@D@std@@V?$allocator@D@2@@std@@V?$allocator@V?$basic_string@DU?$char_traits@D@std@@V?$allocator@D@2@@std@@@2@@std@@AAE@$$QAV?$basic_string@DU?$char_traits@D@std@@V?$allocator@D@2@@1@@Z 0044c4b0 f i RecordManager.obj
 0001:0004b550       ??$_Emplace_reallocate@ABV?$basic_string@DU?$char_traits@D@std@@V?$allocator@D@2@@std@@@?$vector@V?$basic_string@DU?$char_traits@D@std@@V?$allocator@D@2@@std@@V?$allocator@V?$basic_string@DU?$char_traits@D@std@@V?$allocator@D@2@@std@@@2@@std@@QAEPAV?$basic_string@DU?$char_traits@D@std@@V?$allocator@D@2@@1@QAV21@ABV21@@Z 0044c550 f i RecordManager.obj
 0001:0004b7a0       ??$_Emplace_reallocate@V?$basic_string@DU?$char_traits@D@std@@V?$allocator@D@2@@std@@@?$vector@V?$basic_string@DU?$char_traits@D@std@@V?$allocator@D@2@@std@@V?$allocator@V?$basic_string@DU?$char_traits@D@std@@V?$allocator@D@2@@std@@@2@@std@@QAEPAV?$basic_string@DU?$char_traits@D@std@@V?$allocator@D@2@@1@QAV21@$$QAV21@@Z 0044c7a0 f i RecordManager.obj
 0001:0004b9f0       ??$_Fgetc@D@std@@YA_NAADPAU_iobuf@@@Z 0044c9f0 f i RecordManager.obj
 0001:0004ba30       ??$_Fputc@D@std@@YA_NDPAU_iobuf@@@Z 0044ca30 f i RecordManager.obj
 0001:0004ba70       ??$_Get_unwrapped@ABQAV?$basic_string@DU?$char_traits@D@std@@V?$allocator@D@2@@std@@@std@@YA@ABQAV?$basic_string@DU?$char_traits@D@std@@V?$allocator@D@2@@0@@Z 0044ca70 f i RecordManager.obj
 0001:0004ba80       ??$_Integral_to_string@DH@std@@YA?AV?$basic_string@DU?$char_traits@D@std@@V?$allocator@D@2@@0@H@Z 0044ca80 f i RecordManager.obj
 0001:0004bb50       ??$_Pocca@V?$allocator@D@std@@@std@@YAXAAV?$allocator@D@0@ABV10@@Z 0044cb50 f i RecordManager.obj
 0001:0004bb60       ??$_Reallocate_grow_by@V<lambda_15711c68e099a15a58f4d77303cb286d>@@D@?$basic_string@DU?$char_traits@D@std@@V?$allocator@D@2@@std@@AAEAAV01@IV<lambda_15711c68e099a15a58f4d77303cb286d>@@D@Z 0044cb60 f i RecordManager.obj
 0001:0004bcd0       ??$_Reallocate_grow_by@V<lambda_4d79bb85f269e6e8002a4599002d832c>@@IPBDI@?$basic_string@DU?$char_traits@D@std@@V?$allocator@D@2@@std@@AAEAAV01@IV<lambda_4d79bb85f269e6e8002a4599002d832c>@@IPBDI@Z 0044ccd0 f i RecordManager.obj
 0001:0004be50       ??$_Reallocate_grow_by@V<lambda_ab246b20b9526e2ef7792587e4298a77>@@PBDI@?$basic_string@DU?$char_traits@D@std@@V?$allocator@D@2@@std@@AAEAAV01@IV<lambda_ab246b20b9526e2ef7792587e4298a77>@@PBDI@Z 0044ce50 f i RecordManager.obj
 0001:0004bfc0       ??$_Unfancy@V?$basic_string@DU?$char_traits@D@std@@V?$allocator@D@2@@std@@@std@@YAPAV?$basic_string@DU?$char_traits@D@std@@V?$allocator@D@2@@0@PAV10@@Z 0044cfc0 f i RecordManager.obj
 0001:0004bfd0       ??$_Ungetc@D@std@@YA_NABDPAU_iobuf@@@Z 0044cfd0 f i RecordManager.obj
 0001:0004c020       ??$_Uninitialized_move@PAV?$basic_string@DU?$char_traits@D@std@@V?$allocator@D@2@@std@@V?$allocator@V?$basic_string@DU?$char_traits@D@std@@V?$allocator@D@2@@std@@@2@@std@@YAPAV?$basic_string@DU?$char_traits@D@std@@V?$allocator@D@2@@0@QAV10@0PAV10@AAV?$allocator@V?$basic_string@DU?$char_traits@D@std@@V?$allocator@D@2@@std@@@0@@Z 0044d020 f i RecordManager.obj
 0001:0004c100       ??$addressof@$$CBV?$basic_string@DU?$char_traits@D@std@@V?$allocator@D@2@@std@@@std@@YAPBV?$basic_string@DU?$char_traits@D@std@@V?$allocator@D@2@@0@ABV10@@Z 0044d100 f i RecordManager.obj
 0001:0004c110       ??$addressof@$$CBV?$codecvt@DDU_Mbstatet@@@std@@@std@@YAPBV?$codecvt@DDU_Mbstatet@@@0@ABV10@@Z 0044d110 f i RecordManager.obj
 0001:0004c120       ??$addressof@V?$basic_filebuf@DU?$char_traits@D@std@@@std@@@std@@YAPAV?$basic_filebuf@DU?$char_traits@D@std@@@0@AAV10@@Z 0044d120 f i RecordManager.obj
 0001:0004c130       ??$construct@V?$basic_string@DU?$char_traits@D@std@@V?$allocator@D@2@@std@@ABV12@@?$_Default_allocator_traits@V?$allocator@V?$basic_string@DU?$char_traits@D@std@@V?$allocator@D@2@@std@@@std@@@std@@SAXAAV?$allocator@V?$basic_string@DU?$char_traits@D@std@@V?$allocator@D@2@@std@@@1@QAV?$basic_string@DU?$char_traits@D@std@@V?$allocator@D@2@@1@ABV31@@Z 0044d130 f i RecordManager.obj
 0001:0004c170       ??$construct@V?$basic_string@DU?$char_traits@D@std@@V?$allocator@D@2@@std@@V12@@?$_Default_allocator_traits@V?$allocator@V?$basic_string@DU?$char_traits@D@std@@V?$allocator@D@2@@std@@@std@@@std@@SAXAAV?$allocator@V?$basic_string@DU?$char_traits@D@std@@V?$allocator@D@2@@std@@@1@QAV?$basic_string@DU?$char_traits@D@std@@V?$allocator@D@2@@1@$$QAV31@@Z 0044d170 f i RecordManager.obj
 0001:0004c1b0       ??$destroy@V?$basic_string@DU?$char_traits@D@std@@V?$allocator@D@2@@std@@@?$_Default_allocator_traits@V?$allocator@V?$basic_string@DU?$char_traits@D@std@@V?$allocator@D@2@@std@@@std@@@std@@SAXAAV?$allocator@V?$basic_string@DU?$char_traits@D@std@@V?$allocator@D@2@@std@@@1@QAV?$basic_string@DU?$char_traits@D@std@@V?$allocator@D@2@@1@@Z 0044d1b0 f i RecordManager.obj
 0001:0004c1d0       ??$emplace_back@ABV?$basic_string@DU?$char_traits@D@std@@V?$allocator@D@2@@std@@@?$vector@V?$basic_string@DU?$char_traits@D@std@@V?$allocator@D@2@@std@@V?$allocator@V?$basic_string@DU?$char_traits@D@std@@V?$allocator@D@2@@std@@@2@@std@@QAE@ABV?$basic_string@DU?$char_traits@D@std@@V?$allocator@D@2@@1@@Z 0044d1d0 f i RecordManager.obj
 0001:0004c250       ??$emplace_back@V?$basic_string@DU?$char_traits@D@std@@V?$allocator@D@2@@std@@@?$vector@V?$basic_string@DU?$char_traits@D@std@@V?$allocator@D@2@@std@@V?$allocator@V?$basic_string@DU?$char_traits@D@std@@V?$allocator@D@2@@std@@@2@@std@@QAE@$$QAV?$basic_string@DU?$char_traits@D@std@@V?$allocator@D@2@@1@@Z 0044d250 f i RecordManager.obj
 0001:0004c2d0       ??$exchange@PAV_Facet_base@std@@PAV12@@std@@YAPAV_Facet_base@0@AAPAV10@$$QAPAV10@@Z 0044d2d0 f i RecordManager.obj
 0001:0004c300       ??$forward@AAPAV_Facet_base@std@@@std@@YAAAPAV_Facet_base@0@AAPAV10@@Z 0044d300 f i RecordManager.obj
 0001:0004c310       ??$forward@ABV?$basic_string@DU?$char_traits@D@std@@V?$allocator@D@2@@std@@@std@@YAABV?$basic_string@DU?$char_traits@D@std@@V?$allocator@D@2@@0@ABV10@@Z 0044d310 f i RecordManager.obj
 0001:0004c320       ??$getline@DU?$char_traits@D@std@@V?$allocator@D@2@@std@@YAAAV?$basic_istream@DU?$char_traits@D@std@@@0@$$QAV10@AAV?$basic_string@DU?$char_traits@D@std@@V?$allocator@D@2@@0@D@Z 0044d320 f i RecordManager.obj
 0001:0004c5a0       ??$getline@DU?$char_traits@D@std@@V?$allocator@D@2@@std@@YAAAV?$basic_istream@DU?$char_traits@D@std@@@0@AAV10@AAV?$basic_string@DU?$char_traits@D@std@@V?$allocator@D@2@@0@@Z 0044d5a0 f i RecordManager.obj
 0001:0004c5f0       ??$move@AAV?$basic_istream@DU?$char_traits@D@std@@@std@@@std@@YA$$QAV?$basic_istream@DU?$char_traits@D@std@@@0@AAV10@@Z 0044d5f0 f i RecordManager.obj
 0001:0004c600       ??$move@AAV?$basic_string@DU?$char_traits@D@std@@V?$allocator@D@2@@std@@@std@@YA$$QAV?$basic_string@DU?$char_traits@D@std@@V?$allocator@D@2@@0@AAV10@@Z 0044d600 f i RecordManager.obj
 0001:0004c610       ??$use_facet@V?$codecvt@DDU_Mbstatet@@@std@@@std@@YAABV?$codecvt@DDU_Mbstatet@@@0@ABVlocale@0@@Z 0044d610 f i RecordManager.obj
 0001:0004c760       ??0?$_Uninitialized_backout_al@V?$allocator@V?$basic_string@DU?$char_traits@D@std@@V?$allocator@D@2@@std@@@std@@@std@@QAE@PAV?$basic_string@DU?$char_traits@D@std@@V?$allocator@D@2@@1@AAV?$allocator@V?$basic_string@DU?$char_traits@D@std@@V?$allocator@D@2@@std@@@1@@Z 0044d760 f i RecordManager.obj
 0001:0004c7a0       ??0?$_Vector_val@U?$_Simple_types@V?$basic_string@DU?$char_traits@D@std@@V?$allocator@D@2@@std@@@std@@@std@@QAE@XZ 0044d7a0 f i RecordManager.obj
 0001:0004c7f0       ??0?$allocator@V?$basic_string@DU?$char_traits@D@std@@V?$allocator@D@2@@std@@@std@@QAE@XZ 0044d7f0 f i RecordManager.obj
 0001:0004c810       ??0?$basic_filebuf@DU?$char_traits@D@std@@@std@@QAE@XZ 0044d810 f i RecordManager.obj
 0001:0004c890       ??0?$basic_ifstream@DU?$char_traits@D@std@@@std@@QAE@PBDHH@Z 0044d890 f i RecordManager.obj
 0001:0004c9e0       ??0?$basic_ofstream@DU?$char_traits@D@std@@@std@@QAE@PBDHH@Z 0044d9e0 f i RecordManager.obj
 0001:0004cb30       ??0?$fpos@U_Mbstatet@@@std@@QAE@U_Mbstatet@@_J@Z 0044db30 f i RecordManager.obj
 0001:0004cb80       ??0?$fpos@U_Mbstatet@@@std@@QAE@_J@Z 0044db80 f i RecordManager.obj
 0001:0004cbd0       ??0?$vector@V?$basic_string@DU?$char_traits@D@std@@V?$allocator@D@2@@std@@V?$allocator@V?$basic_string@DU?$char_traits@D@std@@V?$allocator@D@2@@std@@@2@@std@@QAE@XZ 0044dbd0 f i RecordManager.obj
 0001:0004cc50       ??0_Sentry_base@?$basic_istream@DU?$char_traits@D@std@@@std@@QAE@AAV12@@Z 0044dc50 f i RecordManager.obj
 0001:0004ccb0       ??0bad_cast@std@@QAE@ABV01@@Z 0044dcb0 f i RecordManager.obj
 0001:0004cce0       ??0bad_cast@std@@QAE@XZ    0044dce0 f i RecordManager.obj
 0001:0004cd10       ??0sentry@?$basic_istream@DU?$char_traits@D@std@@@std@@QAE@AAV12@_N@Z 0044dd10 f i RecordManager.obj
 0001:0004cda0       ??1?$_Uninitialized_backout_al@V?$allocator@V?$basic_string@DU?$char_traits@D@std@@V?$allocator@D@2@@std@@@std@@@std@@QAE@XZ 0044dda0 f i RecordManager.obj
 0001:0004cdd0       ??1?$basic_filebuf@DU?$char_traits@D@std@@@std@@UAE@XZ 0044ddd0 f i RecordManager.obj
 0001:0004ce60       ??1?$basic_ifstream@DU?$char_traits@D@std@@@std@@UAE@XZ 0044de60 f i RecordManager.obj
 0001:0004ced0       ??1?$basic_ofstream@DU?$char_traits@D@std@@@std@@UAE@XZ 0044ded0 f i RecordManager.obj
 0001:0004cf40       ??1?$unique_ptr@V_Facet_base@std@@U?$default_delete@V_Facet_base@std@@@2@@std@@QAE@XZ 0044df40 f i RecordManager.obj
 0001:0004cf80       ??1?$vector@V?$basic_string@DU?$char_traits@D@std@@V?$allocator@D@2@@std@@V?$allocator@V?$basic_string@DU?$char_traits@D@std@@V?$allocator@D@2@@std@@@2@@std@@QAE@XZ 0044df80 f i RecordManager.obj
 0001:0004cff0       ??1_Sentry_base@?$basic_istream@DU?$char_traits@D@std@@@std@@QAE@XZ 0044dff0 f i RecordManager.obj
 0001:0004d080       ??1bad_cast@std@@UAE@XZ    0044e080 f i RecordManager.obj
 0001:0004d0a0       ??1locale@std@@QAE@XZ      0044e0a0 f i RecordManager.obj
 0001:0004d100       ??1sentry@?$basic_istream@DU?$char_traits@D@std@@@std@@QAE@XZ 0044e100 f i RecordManager.obj
 0001:0004d120       ??4?$basic_string@DU?$char_traits@D@std@@V?$allocator@D@2@@std@@QAEAAV01@ABV01@@Z 0044e120 f i RecordManager.obj
 0001:0004d170       ??B?$fpos@U_Mbstatet@@@std@@QBE_JXZ 0044e170 f i RecordManager.obj
 0001:0004d1a0       ??Bsentry@?$basic_istream@DU?$char_traits@D@std@@@std@@QBE_NXZ 0044e1a0 f i RecordManager.obj
 0001:0004d1c0       ??R<lambda_15711c68e099a15a58f4d77303cb286d>@@QBE@QADQBDID@Z 0044e1c0 f i RecordManager.obj
 0001:0004d230       ??R<lambda_4d79bb85f269e6e8002a4599002d832c>@@QBE@QADQBDII1I@Z 0044e230 f i RecordManager.obj
 0001:0004d2b0       ??R<lambda_ab246b20b9526e2ef7792587e4298a77>@@QBE@QADQBDI1I@Z 0044e2b0 f i RecordManager.obj
 0001:0004d320       ??R?$default_delete@V_Facet_base@std@@@std@@QBEXPAV_Facet_base@1@@Z 0044e320 f i RecordManager.obj
 0001:0004d370       ??Y?$basic_string@DU?$char_traits@D@std@@V?$allocator@D@2@@std@@QAEAAV01@ABV01@@Z 0044e370 f i RecordManager.obj
 0001:0004d390       ??Y?$basic_string@DU?$char_traits@D@std@@V?$allocator@D@2@@std@@QAEAAV01@D@Z 0044e390 f i RecordManager.obj
 0001:0004d3c0       ??Y?$basic_string@DU?$char_traits@D@std@@V?$allocator@D@2@@std@@QAEAAV01@QBD@Z 0044e3c0 f i RecordManager.obj
 0001:0004d3e0       ??_D?$basic_ifstream@DU?$char_traits@D@std@@@std@@QAEXXZ 0044e3e0 f i RecordManager.obj
 0001:0004d410       ??_D?$basic_ofstream@DU?$char_traits@D@std@@@std@@QAEXXZ 0044e410 f i RecordManager.obj
 0001:0004d43a       ??_E?$basic_ifstream@DU?$char_traits@D@std@@@std@@$4PPPPPPPM@A@AEPAXI@Z 0044e43a f i RecordManager.obj
 0001:0004d444       ??_E?$basic_ofstream@DU?$char_traits@D@std@@@std@@$4PPPPPPPM@A@AEPAXI@Z 0044e444 f i RecordManager.obj
 0001:0004d450       ??_E?$basic_filebuf@DU?$char_traits@D@std@@@std@@UAEPAXI@Z 0044e450 f i RecordManager.obj
 0001:0004d450       ??_G?$basic_filebuf@DU?$char_traits@D@std@@@std@@UAEPAXI@Z 0044e450 f i RecordManager.obj
 0001:0004d490       ??_G?$basic_ifstream@DU?$char_traits@D@std@@@std@@UAEPAXI@Z 0044e490 f i RecordManager.obj
 0001:0004d490       ??_E?$basic_ifstream@DU?$char_traits@D@std@@@std@@UAEPAXI@Z 0044e490 f i RecordManager.obj
 0001:0004d4e0       ??_G?$basic_ofstream@DU?$char_traits@D@std@@@std@@UAEPAXI@Z 0044e4e0 f i RecordManager.obj
 0001:0004d4e0       ??_E?$basic_ofstream@DU?$char_traits@D@std@@@std@@UAEPAXI@Z 0044e4e0 f i RecordManager.obj
 0001:0004d530       ??_G?$basic_string@DU?$char_traits@D@std@@V?$allocator@D@2@@std@@QAEPAXI@Z 0044e530 f i RecordManager.obj
 0001:0004d570       ??_Ebad_cast@std@@UAEPAXI@Z 0044e570 f i RecordManager.obj
 0001:0004d570       ??_Gbad_cast@std@@UAEPAXI@Z 0044e570 f i RecordManager.obj
 0001:0004d5b0       ?_Calculate_growth@?$vector@V?$basic_string@DU?$char_traits@D@std@@V?$allocator@D@2@@std@@V?$allocator@V?$basic_string@DU?$char_traits@D@std@@V?$allocator@D@2@@std@@@2@@std@@ABEII@Z 0044e5b0 f i RecordManager.obj
 0001:0004d620       ?_Change_array@?$vector@V?$basic_string@DU?$char_traits@D@std@@V?$allocator@D@2@@std@@V?$allocator@V?$basic_string@DU?$char_traits@D@std@@V?$allocator@D@2@@std@@@2@@std@@AAEXQAV?$basic_string@DU?$char_traits@D@std@@V?$allocator@D@2@@2@II@Z 0044e620 f i RecordManager.obj
 0001:0004d6f0       ?_Check_offset@?$_String_val@U?$_Simple_types@D@std@@@std@@QBEXI@Z 0044e6f0 f i RecordManager.obj
 0001:0004d720       ?_Clamp_suffix_size@?$_String_val@U?$_Simple_types@D@std@@@std@@QBEIII@Z 0044e720 f i RecordManager.obj
 0001:0004d760       ?_Copy_assign@?$basic_string@DU?$char_traits@D@std@@V?$allocator@D@2@@std@@AAEXABV12@U?$integral_constant@_N$0A@@2@@Z 0044e760 f i RecordManager.obj
 0001:0004d7b0       ?_Destroy@?$vector@V?$basic_string@DU?$char_traits@D@std@@V?$allocator@D@2@@std@@V?$allocator@V?$basic_string@DU?$char_traits@D@std@@V?$allocator@D@2@@std@@@2@@std@@AAEXPAV?$basic_string@DU?$char_traits@D@std@@V?$allocator@D@2@@2@0@Z 0044e7b0 f i RecordManager.obj
 0001:0004d7e0       ?_Endwrite@?$basic_filebuf@DU?$char_traits@D@std@@@std@@IAE_NXZ 0044e7e0 f i RecordManager.obj
 0001:0004d940       ?_Eos@?$basic_string@DU?$char_traits@D@std@@V?$allocator@D@2@@std@@AAEXI@Z 0044e940 f i RecordManager.obj
 0001:0004d990       ?_Get_first@?$_Compressed_pair@U?$default_delete@V_Facet_base@std@@@std@@PAV_Facet_base@2@$00@std@@QAEAAU?$default_delete@V_Facet_base@std@@@2@XZ 0044e990 f i RecordManager.obj
 0001:0004d9b0       ?_Get_first@?$_Compressed_pair@V?$allocator@V?$basic_string@DU?$char_traits@D@std@@V?$allocator@D@2@@std@@@std@@V?$_Vector_val@U?$_Simple_types@V?$basic_string@DU?$char_traits@D@std@@V?$allocator@D@2@@std@@@std@@@2@$00@std@@QAEAAV?$allocator@V?$basic_string@DU?$char_traits@D@std@@V?$allocator@D@2@@std@@@2@XZ 0044e9b0 f i RecordManager.obj
 0001:0004d9d0       ?_Get_first@?$_Compressed_pair@V?$allocator@V?$basic_string@DU?$char_traits@D@std@@V?$allocator@D@2@@std@@@std@@V?$_Vector_val@U?$_Simple_types@V?$basic_string@DU?$char_traits@D@std@@V?$allocator@D@2@@std@@@std@@@2@$00@std@@QBEABV?$allocator@V?$basic_string@DU?$char_traits@D@std@@V?$allocator@D@2@@std@@@2@XZ 0044e9d0 f i RecordManager.obj
 0001:0004d9f0       ?_Getal@?$vector@V?$basic_string@DU?$char_traits@D@std@@V?$allocator@D@2@@std@@V?$allocator@V?$basic_string@DU?$char_traits@D@std@@V?$allocator@D@2@@std@@@2@@std@@AAEAAV?$allocator@V?$basic_string@DU?$char_traits@D@std@@V?$allocator@D@2@@std@@@2@XZ 0044e9f0 f i RecordManager.obj
 0001:0004da10       ?_Getal@?$vector@V?$basic_string@DU?$char_traits@D@std@@V?$allocator@D@2@@std@@V?$allocator@V?$basic_string@DU?$char_traits@D@std@@V?$allocator@D@2@@std@@@2@@std@@ABEABV?$allocator@V?$basic_string@DU?$char_traits@D@std@@V?$allocator@D@2@@std@@@2@XZ 0044ea10 f i RecordManager.obj
 0001:0004da30       ?_Getfacet@locale@std@@QBEPBVfacet@12@I@Z 0044ea30 f i RecordManager.obj
 0001:0004dad0       ?_Init@?$basic_filebuf@DU?$char_traits@D@std@@@std@@IAEXPAU_iobuf@@W4_Initfl@12@@Z 0044ead0 f i RecordManager.obj
 0001:0004dbd0       ?_Initcvt@?$basic_filebuf@DU?$char_traits@D@std@@@std@@IAEXABV?$codecvt@DDU_Mbstatet@@@2@@Z 0044ebd0 f i RecordManager.obj
 0001:0004dc30       ?_Lock@?$basic_filebuf@DU?$char_traits@D@std@@@std@@UAEXXZ 0044ec30 f i RecordManager.obj
 0001:0004dc60       ?_Orphan_range@?$vector@V?$basic_string@DU?$char_traits@D@std@@V?$allocator@D@2@@std@@V?$allocator@V?$basic_string@DU?$char_traits@D@std@@V?$allocator@D@2@@std@@@2@@std@@ABEXPAV?$basic_string@DU?$char_traits@D@std@@V?$allocator@D@2@@2@0@Z 0044ec60 f i RecordManager.obj
 0001:0004dd00       ?_Release@?$_Uninitialized_backout_al@V?$allocator@V?$basic_string@DU?$char_traits@D@std@@V?$allocator@D@2@@std@@@std@@@std@@QAEPAV?$basic_string@DU?$char_traits@D@std@@V?$allocator@D@2@@2@XZ 0044ed00 f i RecordManager.obj
 0001:0004dd30       ?_Reset_back@?$basic_filebuf@DU?$char_traits@D@std@@@std@@AAEXXZ 0044ed30 f i RecordManager.obj
 0001:0004dd80       ?_Set_back@?$basic_filebuf@DU?$char_traits@D@std@@@std@@AAEXXZ 0044ed80 f i RecordManager.obj
 0001:0004ddf0       ?_Throw_bad_cast@std@@YAXXZ 0044edf0 f i RecordManager.obj
 0001:0004de20       ?_Tidy@?$vector@V?$basic_string@DU?$char_traits@D@std@@V?$allocator@D@2@@std@@V?$allocator@V?$basic_string@DU?$char_traits@D@std@@V?$allocator@D@2@@std@@@2@@std@@AAEXXZ 0044ee20 f i RecordManager.obj
 0001:0004df20       ?_Umove@?$vector@V?$basic_string@DU?$char_traits@D@std@@V?$allocator@D@2@@std@@V?$allocator@V?$basic_string@DU?$char_traits@D@std@@V?$allocator@D@2@@std@@@2@@std@@AAEPAV?$basic_string@DU?$char_traits@D@std@@V?$allocator@D@2@@2@PAV32@00@Z 0044ef20 f i RecordManager.obj
 0001:0004df60       ?_Umove_if_noexcept1@?$vector@V?$basic_string@DU?$char_traits@D@std@@V?$allocator@D@2@@std@@V?$allocator@V?$basic_string@DU?$char_traits@D@std@@V?$allocator@D@2@@std@@@2@@std@@AAEXPAV?$basic_string@DU?$char_traits@D@std@@V?$allocator@D@2@@2@00U?$integral_constant@_N$00@2@@Z 0044ef60 f i RecordManager.obj
 0001:0004dfa0       ?_Umove_if_noexcept@?$vector@V?$basic_string@DU?$char_traits@D@std@@V?$allocator@D@2@@std@@V?$allocator@V?$basic_string@DU?$char_traits@D@std@@V?$allocator@D@2@@std@@@2@@std@@AAEXPAV?$basic_string@DU?$char_traits@D@std@@V?$allocator@D@2@@2@00@Z 0044efa0 f i RecordManager.obj
 0001:0004dfe0       ?_Unlock@?$basic_filebuf@DU?$char_traits@D@std@@@std@@UAEXXZ 0044efe0 f i RecordManager.obj
 0001:0004e010       ?_Xlength@?$vector@V?$basic_string@DU?$char_traits@D@std@@V?$allocator@D@2@@std@@V?$allocator@V?$basic_string@DU?$char_traits@D@std@@V?$allocator@D@2@@std@@@2@@std@@CAXXZ 0044f010 f i RecordManager.obj
 0001:0004e030       ?_Xran@?$_String_val@U?$_Simple_types@D@std@@@std@@SAXXZ 0044f030 f i RecordManager.obj
 0001:0004e050       ?allocate@?$allocator@V?$basic_string@DU?$char_traits@D@std@@V?$allocator@D@2@@std@@@std@@QAEPAV?$basic_string@DU?$char_traits@D@std@@V?$allocator@D@2@@2@I@Z 0044f050 f i RecordManager.obj
 0001:0004e080       ?append@?$basic_string@DU?$char_traits@D@std@@V?$allocator@D@2@@std@@QAEAAV12@ABV12@@Z 0044f080 f i RecordManager.obj
 0001:0004e0b0       ?append@?$basic_string@DU?$char_traits@D@std@@V?$allocator@D@2@@std@@QAEAAV12@QBD@Z 0044f0b0 f i RecordManager.obj
 0001:0004e0f0       ?append@?$basic_string@DU?$char_traits@D@std@@V?$allocator@D@2@@std@@QAEAAV12@QBDI@Z 0044f0f0 f i RecordManager.obj
 0001:0004e1b0       ?capacity@?$vector@V?$basic_string@DU?$char_traits@D@std@@V?$allocator@D@2@@std@@V?$allocator@V?$basic_string@DU?$char_traits@D@std@@V?$allocator@D@2@@std@@@2@@std@@QBEIXZ 0044f1b0 f i RecordManager.obj
 0001:0004e1e0       ?clear@?$vector@V?$basic_string@DU?$char_traits@D@std@@V?$allocator@D@2@@std@@V?$allocator@V?$basic_string@DU?$char_traits@D@std@@V?$allocator@D@2@@std@@@2@@std@@QAEXXZ 0044f1e0 f i RecordManager.obj
 0001:0004e280       ?close@?$basic_filebuf@DU?$char_traits@D@std@@@std@@QAEPAV12@XZ 0044f280 f i RecordManager.obj
 0001:0004e300       ?close@?$basic_ifstream@DU?$char_traits@D@std@@@std@@QAEXXZ 0044f300 f i RecordManager.obj
 0001:0004e340       ?close@?$basic_ofstream@DU?$char_traits@D@std@@@std@@QAEXXZ 0044f340 f i RecordManager.obj
 0001:0004e380       ?deallocate@?$allocator@V?$basic_string@DU?$char_traits@D@std@@V?$allocator@D@2@@std@@@std@@QAEXQAV?$basic_string@DU?$char_traits@D@std@@V?$allocator@D@2@@2@I@Z 0044f380 f i RecordManager.obj
 0001:0004e3b0       ?erase@?$basic_string@DU?$char_traits@D@std@@V?$allocator@D@2@@std@@QAEAAV12@I@Z 0044f3b0 f i RecordManager.obj
 0001:0004e3f0       ?erase@?$basic_string@DU?$char_traits@D@std@@V?$allocator@D@2@@std@@QAEAAV12@II@Z 0044f3f0 f i RecordManager.obj
 0001:0004e490       ?front@?$basic_string@DU?$char_traits@D@std@@V?$allocator@D@2@@std@@QAEAADXZ 0044f490 f i RecordManager.obj
 0001:0004e530       ?imbue@?$basic_filebuf@DU?$char_traits@D@std@@@std@@MAEXABVlocale@2@@Z 0044f530 f i RecordManager.obj
 0001:0004e560       ?insert@?$basic_string@DU?$char_traits@D@std@@V?$allocator@D@2@@std@@QAEAAV12@IQBD@Z 0044f560 f i RecordManager.obj
 0001:0004e5a0       ?insert@?$basic_string@DU?$char_traits@D@std@@V?$allocator@D@2@@std@@QAEAAV12@IQBDI@Z 0044f5a0 f i RecordManager.obj
 0001:0004e6f0       ?is_open@?$basic_filebuf@DU?$char_traits@D@std@@@std@@QBE_NXZ 0044f6f0 f i RecordManager.obj
 0001:0004e720       ?is_open@?$basic_ifstream@DU?$char_traits@D@std@@@std@@QBE_NXZ 0044f720 f i RecordManager.obj
 0001:0004e740       ?is_open@?$basic_ofstream@DU?$char_traits@D@std@@@std@@QBE_NXZ 0044f740 f i RecordManager.obj
 0001:0004e760       ?max_size@?$_Default_allocator_traits@V?$allocator@V?$basic_string@DU?$char_traits@D@std@@V?$allocator@D@2@@std@@@std@@@std@@SAIABV?$allocator@V?$basic_string@DU?$char_traits@D@std@@V?$allocator@D@2@@std@@@2@@Z 0044f760 f i RecordManager.obj
 0001:0004e770       ?max_size@?$vector@V?$basic_string@DU?$char_traits@D@std@@V?$allocator@D@2@@std@@V?$allocator@V?$basic_string@DU?$char_traits@D@std@@V?$allocator@D@2@@std@@@2@@std@@QBEIXZ 0044f770 f i RecordManager.obj
 0001:0004e7c0       ?not_eof@?$_Narrow_char_traits@DH@std@@SAHABH@Z 0044f7c0 f i RecordManager.obj
 0001:0004e820       ?open@?$basic_filebuf@DU?$char_traits@D@std@@@std@@QAEPAV12@PBDHH@Z 0044f820 f i RecordManager.obj
 0001:0004e910       ?overflow@?$basic_filebuf@DU?$char_traits@D@std@@@std@@MAEHH@Z 0044f910 f i RecordManager.obj
 0001:0004eb70       ?pbackfail@?$basic_filebuf@DU?$char_traits@D@std@@@std@@MAEHH@Z 0044fb70 f i RecordManager.obj
 0001:0004ed20       ?push_back@?$basic_string@DU?$char_traits@D@std@@V?$allocator@D@2@@std@@QAEXD@Z 0044fd20 f i RecordManager.obj
 0001:0004edd0       ?push_back@?$vector@V?$basic_string@DU?$char_traits@D@std@@V?$allocator@D@2@@std@@V?$allocator@V?$basic_string@DU?$char_traits@D@std@@V?$allocator@D@2@@std@@@2@@std@@QAEX$$QAV?$basic_string@DU?$char_traits@D@std@@V?$allocator@D@2@@2@@Z 0044fdd0 f i RecordManager.obj
 0001:0004ee00       ?push_back@?$vector@V?$basic_string@DU?$char_traits@D@std@@V?$allocator@D@2@@std@@V?$allocator@V?$basic_string@DU?$char_traits@D@std@@V?$allocator@D@2@@std@@@2@@std@@QAEXABV?$basic_string@DU?$char_traits@D@std@@V?$allocator@D@2@@2@@Z 0044fe00 f i RecordManager.obj
 0001:0004ee20       ?release@?$unique_ptr@V_Facet_base@std@@U?$default_delete@V_Facet_base@std@@@2@@std@@QAEPAV_Facet_base@2@XZ 0044fe20 f i RecordManager.obj
 0001:0004ee50       ?seekoff@?$basic_filebuf@DU?$char_traits@D@std@@@std@@MAE?AV?$fpos@U_Mbstatet@@@2@_JHH@Z 0044fe50 f i RecordManager.obj
 0001:0004ef60       ?seekpos@?$basic_filebuf@DU?$char_traits@D@std@@@std@@MAE?AV?$fpos@U_Mbstatet@@@2@V32@H@Z 0044ff60 f i RecordManager.obj
 0001:0004f030       ?setbuf@?$basic_filebuf@DU?$char_traits@D@std@@@std@@MAEPAV?$basic_streambuf@DU?$char_traits@D@std@@@2@PAD_J@Z 00450030 f i RecordManager.obj
 0001:0004f0d0       ?state@?$fpos@U_Mbstatet@@@std@@QBE?AU_Mbstatet@@XZ 004500d0 f i RecordManager.obj
 0001:0004f100       ?stoi@std@@YAHABV?$basic_string@DU?$char_traits@D@std@@V?$allocator@D@2@@1@PAIH@Z 00450100 f i RecordManager.obj
 0001:0004f1b0       ?sync@?$basic_filebuf@DU?$char_traits@D@std@@@std@@MAEHXZ 004501b0 f i RecordManager.obj
 0001:0004f230       ?to_char_type@?$_Narrow_char_traits@DH@std@@SADABH@Z 00450230 f i RecordManager.obj
 0001:0004f240       ?to_int_type@?$_Narrow_char_traits@DH@std@@SAHABD@Z 00450240 f i RecordManager.obj
 0001:0004f250       ?to_string@std@@YA?AV?$basic_string@DU?$char_traits@D@std@@V?$allocator@D@2@@1@H@Z 00450250 f i RecordManager.obj
 0001:0004f290       ?uflow@?$basic_filebuf@DU?$char_traits@D@std@@@std@@MAEHXZ 00450290 f i RecordManager.obj
 0001:0004f5b0       ?underflow@?$basic_filebuf@DU?$char_traits@D@std@@@std@@MAEHXZ 004505b0 f i RecordManager.obj
 0001:0004f670       ?xsgetn@?$basic_filebuf@DU?$char_traits@D@std@@@std@@MAE_JPAD_J@Z 00450670 f i RecordManager.obj
 0001:0004f830       ?xsputn@?$basic_filebuf@DU?$char_traits@D@std@@@std@@MAE_JPBD_J@Z 00450830 f i RecordManager.obj
 0001:0004f990       ?onCreate@RecordScene@@UAEXXZ 00450990 f   RecordScene.obj
 0001:0004f9b0       ?onDestroy@RecordScene@@UAEXXZ 004509b0 f   RecordScene.obj
 0001:0004f9c0       ?onActivate@RecordScene@@UAEXXZ 004509c0 f   RecordScene.obj
 0001:0004fa80       ?onDeactivate@RecordScene@@UAEXXZ 00450a80 f   RecordScene.obj
 0001:0004fa90       ?virtMainLoopPreUpdate@RecordScene@@UAEXXZ 00450a90 f   RecordScene.obj
 0001:0004fad0       ?virtPreDraw@RecordScene@@UAEXXZ 00450ad0 f   RecordScene.obj
 0001:0004fae0       ?virtPostDraw@RecordScene@@UAEXXZ 00450ae0 f   RecordScene.obj
 0001:0004faf0       ?virtKeyDown@RecordScene@@UAEXH@Z 00450af0 f   RecordScene.obj
 0001:0004fb80       ??0RecordUI@@IAE@XZ        00450b80 f   RecordUI.obj
 0001:0004fc40       ?getInstance@RecordUI@@SAPAV1@XZ 00450c40 f   RecordUI.obj
 0001:0004fcd0       ?virtDoUpdate@RecordUI@@UAEXH@Z 00450cd0 f   RecordUI.obj
 0001:0004fce0       ?virtDraw@RecordUI@@UAEXXZ 00450ce0 f   RecordUI.obj
 0001:0004fd20       ?drawReturnButton@RecordUI@@QAEXXZ 00450d20 f   RecordUI.obj
 0001:0004fd80       ?drawBackground@RecordUI@@QAEXXZ 00450d80 f   RecordUI.obj
 0001:0004fde0       ?drawBoardFrame@RecordUI@@QAEXXZ 00450de0 f   RecordUI.obj
 0001:0004ff40       ?drawRecord@RecordUI@@QAEXXZ 00450f40 f   RecordUI.obj
 0001:000502f0       ??$?0V?$allocator@V?$basic_string@DU?$char_traits@D@std@@V?$allocator@D@2@@std@@@std@@$$V@?$_Compressed_pair@V?$allocator@V?$basic_string@DU?$char_traits@D@std@@V?$allocator@D@2@@std@@@std@@V?$_Vector_val@U?$_Simple_types@V?$basic_string@DU?$char_traits@D@std@@V?$allocator@D@2@@std@@@std@@@2@$00@std@@QAE@U_One_then_variadic_args_t@1@$$QAV?$allocator@V?$basic_string@DU?$char_traits@D@std@@V?$allocator@D@2@@std@@@1@@Z 004512f0 f i RecordUI.obj
 0001:00050320       ??$_Emplace_back@AAV?$basic_string@DU?$char_traits@D@std@@V?$allocator@D@2@@std@@@?$_Uninitialized_backout_al@V?$allocator@V?$basic_string@DU?$char_traits@D@std@@V?$allocator@D@2@@std@@@std@@@std@@QAEXAAV?$basic_string@DU?$char_traits@D@std@@V?$allocator@D@2@@1@@Z 00451320 f i RecordUI.obj
 0001:00050380       ??$_Ucopy@PAV?$basic_string@DU?$char_traits@D@std@@V?$allocator@D@2@@std@@@?$vector@V?$basic_string@DU?$char_traits@D@std@@V?$allocator@D@2@@std@@V?$allocator@V?$basic_string@DU?$char_traits@D@std@@V?$allocator@D@2@@std@@@2@@std@@AAEPAV?$basic_string@DU?$char_traits@D@std@@V?$allocator@D@2@@1@PAV21@00@Z 00451380 f i RecordUI.obj
 0001:000503c0       ??$_Uninitialized_copy@PAV?$basic_string@DU?$char_traits@D@std@@V?$allocator@D@2@@std@@V?$allocator@V?$basic_string@DU?$char_traits@D@std@@V?$allocator@D@2@@std@@@2@@std@@YAPAV?$basic_string@DU?$char_traits@D@std@@V?$allocator@D@2@@0@QAV10@0PAV10@AAV?$allocator@V?$basic_string@DU?$char_traits@D@std@@V?$allocator@D@2@@std@@@0@@Z 004513c0 f i RecordUI.obj
 0001:00050490       ??$construct@V?$basic_string@DU?$char_traits@D@std@@V?$allocator@D@2@@std@@AAV12@@?$_Default_allocator_traits@V?$allocator@V?$basic_string@DU?$char_traits@D@std@@V?$allocator@D@2@@std@@@std@@@std@@SAXAAV?$allocator@V?$basic_string@DU?$char_traits@D@std@@V?$allocator@D@2@@std@@@1@QAV?$basic_string@DU?$char_traits@D@std@@V?$allocator@D@2@@1@AAV31@@Z 00451490 f i RecordUI.obj
 0001:000504d0       ??$forward@V?$allocator@V?$basic_string@DU?$char_traits@D@std@@V?$allocator@D@2@@std@@@std@@@std@@YA$$QAV?$allocator@V?$basic_string@DU?$char_traits@D@std@@V?$allocator@D@2@@std@@@0@AAV10@@Z 004514d0 f i RecordUI.obj
 0001:000504e0       ??0?$vector@V?$basic_string@DU?$char_traits@D@std@@V?$allocator@D@2@@std@@V?$allocator@V?$basic_string@DU?$char_traits@D@std@@V?$allocator@D@2@@std@@@2@@std@@QAE@ABV01@@Z 004514e0 f i RecordUI.obj
 0001:00050650       ??1?$_Tidy_guard@V?$vector@V?$basic_string@DU?$char_traits@D@std@@V?$allocator@D@2@@std@@V?$allocator@V?$basic_string@DU?$char_traits@D@std@@V?$allocator@D@2@@std@@@2@@std@@@std@@QAE@XZ 00451650 f i RecordUI.obj
 0001:00050680       ??1RecordUI@@UAE@XZ        00451680 f i RecordUI.obj
 0001:000506b0       ??A?$vector@V?$basic_string@DU?$char_traits@D@std@@V?$allocator@D@2@@std@@V?$allocator@V?$basic_string@DU?$char_traits@D@std@@V?$allocator@D@2@@std@@@2@@std@@QAEAAV?$basic_string@DU?$char_traits@D@std@@V?$allocator@D@2@@1@I@Z 004516b0 f i RecordUI.obj
 0001:00050760       ??_ERecordUI@@UAEPAXI@Z    00451760 f i RecordUI.obj
 0001:00050760       ??_GRecordUI@@UAEPAXI@Z    00451760 f i RecordUI.obj
 0001:000507a0       ?_Buy_raw@?$vector@V?$basic_string@DU?$char_traits@D@std@@V?$allocator@D@2@@std@@V?$allocator@V?$basic_string@DU?$char_traits@D@std@@V?$allocator@D@2@@std@@@2@@std@@AAEXI@Z 004517a0 f i RecordUI.obj
 0001:00050820       ?select_on_container_copy_construction@?$_Default_allocator_traits@V?$allocator@V?$basic_string@DU?$char_traits@D@std@@V?$allocator@D@2@@std@@@std@@@std@@SA?AV?$allocator@V?$basic_string@DU?$char_traits@D@std@@V?$allocator@D@2@@std@@@2@ABV32@@Z 00451820 f i RecordUI.obj
 0001:00050830       ??0ResetButton@@IAE@HHHH@Z 00451830 f   ResetButton.obj
 0001:000508f0       ?getInstance@ResetButton@@SAPAV1@XZ 004518f0 f   ResetButton.obj
 0001:00050990       ??1ResetButton@@UAE@XZ     00451990 f   ResetButton.obj
 0001:000509c0       ?virtStart@ResetButton@@UAEXXZ 004519c0 f   ResetButton.obj
 0001:00050bc0       ?virtDraw@ResetButton@@UAEXXZ 00451bc0 f   ResetButton.obj
 0001:00050cb0       ?virtDoUpdate@ResetButton@@UAEXH@Z 00451cb0 f   ResetButton.obj
 0001:00050ce0       ?onClick@ResetButton@@UAEXXZ 00451ce0 f   ResetButton.obj
 0001:00050d00       ?drawSprite@ResetButton@@UAEXXZ 00451d00 f   ResetButton.obj
 0001:00050f10       ??_EResetButton@@UAEPAXI@Z 00451f10 f i ResetButton.obj
 0001:00050f10       ??_GResetButton@@UAEPAXI@Z 00451f10 f i ResetButton.obj
 0001:00050f50       ?onCreate@ResultScene@@UAEXXZ 00451f50 f   ResultScene.obj
 0001:00050f70       ?onDestroy@ResultScene@@UAEXXZ 00451f70 f   ResultScene.obj
 0001:00050f80       ?onActivate@ResultScene@@UAEXXZ 00451f80 f   ResultScene.obj
 0001:00051070       ?onDeactivate@ResultScene@@UAEXXZ 00452070 f   ResultScene.obj
 0001:00051090       ?virtMainLoopPreUpdate@ResultScene@@UAEXXZ 00452090 f   ResultScene.obj
 0001:000511d0       ?virtPreDraw@ResultScene@@UAEXXZ 004521d0 f   ResultScene.obj
 0001:000511e0       ?virtPostDraw@ResultScene@@UAEXXZ 004521e0 f   ResultScene.obj
 0001:000512a0       ??$?9DU?$char_traits@D@std@@V?$allocator@D@1@@std@@YA_NABV?$basic_string@DU?$char_traits@D@std@@V?$allocator@D@2@@0@QBD@Z 004522a0 f i ResultScene.obj
 0001:000512e0       ??0ResultUI@@IAE@XZ        004522e0 f   ResultUI.obj
 0001:000513b0       ?getInstance@ResultUI@@SAPAV1@XZ 004523b0 f   ResultUI.obj
 0001:00051440       ?virtDoUpdate@ResultUI@@UAEXH@Z 00452440 f   ResultUI.obj
 0001:00051450       ?virtDraw@ResultUI@@UAEXXZ 00452450 f   ResultUI.obj
 0001:00051490       ?virtKeyDown@ResultUI@@UAEXH@Z 00452490 f   ResultUI.obj
 0001:00051500       ?drawBackground@ResultUI@@QAEXXZ 00452500 f   ResultUI.obj
 0001:00051560       ?drawBoardFrame@ResultUI@@QAEXXZ 00452560 f   ResultUI.obj
 0001:00051990       ?drawResult@ResultUI@@QAEXXZ 00452990 f   ResultUI.obj
 0001:00051c10       ?getPlayerName@ResultUI@@QAE?AV?$basic_string@DU?$char_traits@D@std@@V?$allocator@D@2@@std@@XZ 00452c10 f   ResultUI.obj
 0001:00051ea0       ??$?HDU?$char_traits@D@std@@V?$allocator@D@1@@std@@YA?AV?$basic_string@DU?$char_traits@D@std@@V?$allocator@D@2@@0@QBDABV10@@Z 00452ea0 f i ResultUI.obj
 0001:00051f50       ??0?$basic_string@DU?$char_traits@D@std@@V?$allocator@D@2@@std@@QAE@U_String_constructor_concat_tag@1@ABV01@QBDI2I@Z 00452f50 f i ResultUI.obj
 0001:00052130       ??1ResultUI@@UAE@XZ        00453130 f i ResultUI.obj
 0001:00052170       ??_EResultUI@@UAEPAXI@Z    00453170 f i ResultUI.obj
 0001:00052170       ??_GResultUI@@UAEPAXI@Z    00453170 f i ResultUI.obj
 0001:000521b0       ?pop_back@?$basic_string@DU?$char_traits@D@std@@V?$allocator@D@2@@std@@QAEXXZ 004531b0 f i ResultUI.obj
 0001:00052290       ??0Room@@QAE@XZ            00453290 f   Room.obj
 0001:00052320       ??0Room@@QAE@V?$list@UVec2@@V?$allocator@UVec2@@@std@@@std@@PBVCaveGenerator@@I@Z 00453320 f   Room.obj
 0001:000524f0       ?setAccessToMainRoom@Room@@QAEXXZ 004534f0 f   Room.obj
 0001:00052570       ?isConnected@Room@@QBE_NABV1@@Z 00453570 f   Room.obj
 0001:00052640       ??8Room@@QBE_NABV0@@Z      00453640 f   Room.obj
 0001:00052670       ?connectRooms@Room@@SAXAAV1@0@Z 00453670 f   Room.obj
 0001:000527d0       ??$?0ABVRoom@@@?$_List_node_emplace_op2@V?$allocator@U?$_List_node@VRoom@@PAX@std@@@std@@@std@@QAE@AAV?$allocator@U?$_List_node@VRoom@@PAX@std@@@1@ABVRoom@@@Z 004537d0 f i Room.obj
 0001:00052880       ??$_Adl_verify_range@V?$_List_const_iterator@V?$_List_val@U?$_List_simple_types@VRoom@@@std@@@std@@@std@@V12@@std@@YAXABV?$_List_const_iterator@V?$_List_val@U?$_List_simple_types@VRoom@@@std@@@std@@@0@0@Z 00453880 f i Room.obj
 0001:000528a0       ??$_Append_range_unchecked@V?$_List_unchecked_const_iterator@V?$_List_val@U?$_List_simple_types@VRoom@@@std@@@std@@U_Iterator_base0@2@@std@@V12@@?$_List_node_insert_op2@V?$allocator@U?$_List_node@VRoom@@PAX@std@@@std@@@std@@QAEXV?$_List_unchecked_const_iterator@V?$_List_val@U?$_List_simple_types@VRoom@@@std@@@std@@U_Iterator_base0@2@@1@V21@@Z 004538a0 f i Room.obj
 0001:00052aa0       ??$_Attach_head@U?$_List_simple_types@VRoom@@@std@@@?$_List_node_insert_op2@V?$allocator@U?$_List_node@VRoom@@PAX@std@@@std@@@std@@QAEXAAV?$_List_val@U?$_List_simple_types@VRoom@@@std@@@1@@Z 00453aa0 f i Room.obj
 0001:00052c10       ??$_Construct_in_place@PAU?$_List_node@VRoom@@PAX@std@@PAU12@@std@@YAXAAPAU?$_List_node@VRoom@@PAX@0@$$QAPAU10@@Z 00453c10 f i Room.obj
 0001:00052c60       ??$_Construct_range_unchecked@V?$_List_unchecked_const_iterator@V?$_List_val@U?$_List_simple_types@VRoom@@@std@@@std@@U_Iterator_base0@2@@std@@@?$list@VRoom@@V?$allocator@VRoom@@@std@@@std@@AAEXV?$_List_unchecked_const_iterator@V?$_List_val@U?$_List_simple_types@VRoom@@@std@@@std@@U_Iterator_base0@2@@1@0@Z 00453c60 f i Room.obj
 0001:00052d50       ??$_Emplace@ABVRoom@@@?$list@VRoom@@V?$allocator@VRoom@@@std@@@std@@QAEPAU?$_List_node@VRoom@@PAX@1@QAU21@ABVRoom@@@Z 00453d50 f i Room.obj
 0001:00052e00       ??$_Find_unchecked1@V?$_List_unchecked_const_iterator@V?$_List_val@U?$_List_simple_types@VRoom@@@std@@@std@@U_Iterator_base0@2@@std@@VRoom@@@std@@YA?AV?$_List_unchecked_const_iterator@V?$_List_val@U?$_List_simple_types@VRoom@@@std@@@std@@U_Iterator_base0@2@@0@V10@V10@ABVRoom@@U?$integral_constant@_N$0A@@0@@Z 00453e00 f i Room.obj
 0001:00052e60       ??$_Find_unchecked@V?$_List_unchecked_const_iterator@V?$_List_val@U?$_List_simple_types@VRoom@@@std@@@std@@U_Iterator_base0@2@@std@@VRoom@@@std@@YA?AV?$_List_unchecked_const_iterator@V?$_List_val@U?$_List_simple_types@VRoom@@@std@@@std@@U_Iterator_base0@2@@0@V10@0ABVRoom@@@Z 00453e60 f i Room.obj
 0001:00052ea0       ??$_Get_unwrapped@AAV?$_List_const_iterator@V?$_List_val@U?$_List_simple_types@VRoom@@@std@@@std@@@std@@@std@@YA@AAV?$_List_const_iterator@V?$_List_val@U?$_List_simple_types@VRoom@@@std@@@std@@@0@@Z 00453ea0 f i Room.obj
 0001:00052ec0       ??$_Get_unwrapped@ABV?$_List_const_iterator@V?$_List_val@U?$_List_simple_types@VRoom@@@std@@@std@@@std@@@std@@YA@ABV?$_List_const_iterator@V?$_List_val@U?$_List_simple_types@VRoom@@@std@@@std@@@0@@Z 00453ec0 f i Room.obj
 0001:00052ee0       ??$_Seek_wrapped@V?$_List_const_iterator@V?$_List_val@U?$_List_simple_types@VRoom@@@std@@@std@@@std@@V?$_List_unchecked_const_iterator@V?$_List_val@U?$_List_simple_types@VRoom@@@std@@@std@@U_Iterator_base0@2@@2@@std@@YAXAAV?$_List_const_iterator@V?$_List_val@U?$_List_simple_types@VRoom@@@std@@@std@@@0@$$QAV?$_List_unchecked_const_iterator@V?$_List_val@U?$_List_simple_types@VRoom@@@std@@@std@@U_Iterator_base0@2@@0@@Z 00453ee0 f i Room.obj
 0001:00052f00       ??$addressof@$$CBV?$_List_val@U?$_List_simple_types@VRoom@@@std@@@std@@@std@@YAPBV?$_List_val@U?$_List_simple_types@VRoom@@@std@@@0@ABV10@@Z 00453f00 f i Room.obj
 0001:00052f10       ??$construct@VRoom@@ABV1@@?$_Default_allocator_traits@V?$allocator@U?$_List_node@VRoom@@PAX@std@@@std@@@std@@SAXAAV?$allocator@U?$_List_node@VRoom@@PAX@std@@@1@QAVRoom@@ABV3@@Z 00453f10 f i Room.obj
 0001:00052f50       ??$exchange@PAU?$_List_node@VRoom@@PAX@std@@$$T@std@@YAPAU?$_List_node@VRoom@@PAX@0@AAPAU10@$$QA$$T@Z 00453f50 f i Room.obj
 0001:00052f80       ??$exchange@PAU?$_List_node@VRoom@@PAX@std@@AAPAU12@@std@@YAPAU?$_List_node@VRoom@@PAX@0@AAPAU10@0@Z 00453f80 f i Room.obj
 0001:00052fb0       ??$exchange@PAU?$_List_node@VRoom@@PAX@std@@PAU12@@std@@YAPAU?$_List_node@VRoom@@PAX@0@AAPAU10@$$QAPAU10@@Z 00453fb0 f i Room.obj
 0001:00052fe0       ??$find@V?$_List_const_iterator@V?$_List_val@U?$_List_simple_types@VRoom@@@std@@@std@@@std@@VRoom@@@std@@YA?AV?$_List_const_iterator@V?$_List_val@U?$_List_simple_types@VRoom@@@std@@@std@@@0@V10@V10@ABVRoom@@@Z 00453fe0 f i Room.obj
 0001:000530e0       ??$forward@ABVRoom@@@std@@YAABVRoom@@ABV1@@Z 004540e0 f i Room.obj
 0001:000530f0       ??$forward@PAU?$_List_node@VRoom@@PAX@std@@@std@@YA$$QAPAU?$_List_node@VRoom@@PAX@0@AAPAU10@@Z 004540f0 f i Room.obj
 0001:00053100       ??0?$_List_const_iterator@V?$_List_val@U?$_List_simple_types@VRoom@@@std@@@std@@@std@@QAE@$$QAV01@@Z 00454100 f i Room.obj
 0001:00053130       ??0?$_List_const_iterator@V?$_List_val@U?$_List_simple_types@VRoom@@@std@@@std@@@std@@QAE@PAU?$_List_node@VRoom@@PAX@1@PBV?$_List_val@U?$_List_simple_types@VRoom@@@std@@@1@@Z 00454130 f i Room.obj
 0001:00053160       ??0?$_List_node_insert_op2@V?$allocator@U?$_List_node@VRoom@@PAX@std@@@std@@@std@@QAE@AAV?$allocator@U?$_List_node@VRoom@@PAX@std@@@1@@Z 00454160 f i Room.obj
 0001:00053190       ??0?$_List_unchecked_const_iterator@V?$_List_val@U?$_List_simple_types@VRoom@@@std@@@std@@U_Iterator_base12@2@@std@@QAE@$$QAV01@@Z 00454190 f i Room.obj
 0001:000531d0       ??0?$_List_unchecked_const_iterator@V?$_List_val@U?$_List_simple_types@VRoom@@@std@@@std@@U_Iterator_base12@2@@std@@QAE@PAU?$_List_node@VRoom@@PAX@1@PBV?$_List_val@U?$_List_simple_types@VRoom@@@std@@@1@@Z 004541d0 f i Room.obj
 0001:00053210       ??0?$list@VRoom@@V?$allocator@VRoom@@@std@@@std@@QAE@ABV01@@Z 00454210 f i Room.obj
 0001:00053290       ??0Room@@QAE@ABV0@@Z       00454290 f i Room.obj
 0001:00053370       ??1?$_List_const_iterator@V?$_List_val@U?$_List_simple_types@VRoom@@@std@@@std@@@std@@QAE@XZ 00454370 f i Room.obj
 0001:00053390       ??1?$_List_node_insert_op2@V?$allocator@U?$_List_node@VRoom@@PAX@std@@@std@@@std@@QAE@XZ 00454390 f i Room.obj
 0001:00053430       ??1?$_List_unchecked_const_iterator@V?$_List_val@U?$_List_simple_types@VRoom@@@std@@@std@@U_Iterator_base12@2@@std@@QAE@XZ 00454430 f i Room.obj
 0001:00053450       ??8?$_List_const_iterator@V?$_List_val@U?$_List_simple_types@VRoom@@@std@@@std@@@std@@QBE_NABV01@@Z 00454450 f i Room.obj
 0001:00053510       ??9?$_List_const_iterator@V?$_List_val@U?$_List_simple_types@VRoom@@@std@@@std@@@std@@QBE_NABV01@@Z 00454510 f i Room.obj
 0001:00053560       ?_Release@?$_Alloc_construct_ptr@V?$allocator@U?$_List_node@VRoom@@PAX@std@@@std@@@std@@QAEPAU?$_List_node@VRoom@@PAX@2@XZ 00454560 f i Room.obj
 0001:00053590       ?_Seek_to@?$_List_const_iterator@V?$_List_val@U?$_List_simple_types@VRoom@@@std@@@std@@@std@@QAEXV?$_List_unchecked_const_iterator@V?$_List_val@U?$_List_simple_types@VRoom@@@std@@@std@@U_Iterator_base0@2@@2@@Z 00454590 f i Room.obj
 0001:000535b0       ?_Unchecked_begin@?$list@VRoom@@V?$allocator@VRoom@@@std@@@std@@QBE?AV?$_List_unchecked_const_iterator@V?$_List_val@U?$_List_simple_types@VRoom@@@std@@@std@@U_Iterator_base0@2@@2@XZ 004545b0 f i Room.obj
 0001:000535e0       ?_Unchecked_end@?$list@VRoom@@V?$allocator@VRoom@@@std@@@std@@QBE?AV?$_List_unchecked_const_iterator@V?$_List_val@U?$_List_simple_types@VRoom@@@std@@@std@@U_Iterator_base0@2@@2@XZ 004545e0 f i Room.obj
 0001:00053610       ?_Unwrapped@?$_List_const_iterator@V?$_List_val@U?$_List_simple_types@VRoom@@@std@@@std@@@std@@QBE?AV?$_List_unchecked_const_iterator@V?$_List_val@U?$_List_simple_types@VRoom@@@std@@@std@@U_Iterator_base0@2@@2@XZ 00454610 f i Room.obj
 0001:00053650       ?_Verify_range@std@@YAXABV?$_List_const_iterator@V?$_List_val@U?$_List_simple_types@VRoom@@@std@@@std@@@1@0@Z 00454650 f i Room.obj
 0001:000536e0       ?begin@?$list@VRoom@@V?$allocator@VRoom@@@std@@@std@@QBE?AV?$_List_const_iterator@V?$_List_val@U?$_List_simple_types@VRoom@@@std@@@std@@@2@XZ 004546e0 f i Room.obj
 0001:00053720       ?end@?$list@VRoom@@V?$allocator@VRoom@@@std@@@std@@QBE?AV?$_List_const_iterator@V?$_List_val@U?$_List_simple_types@VRoom@@@std@@@std@@@2@XZ 00454720 f i Room.obj
 0001:00053760       ?push_back@?$list@VRoom@@V?$allocator@VRoom@@@std@@@std@@QAEXABVRoom@@@Z 00454760 f i Room.obj
 0001:00053790       ?select_on_container_copy_construction@?$_Default_allocator_traits@V?$allocator@U?$_List_node@VRoom@@PAX@std@@@std@@@std@@SA?AV?$allocator@U?$_List_node@VRoom@@PAX@std@@@2@ABV32@@Z 00454790 f i Room.obj
 0001:000537a0       ??0Rune@@QAE@HH@Z          004547a0 f   Rune.obj
 0001:000538b0       ??1Rune@@UAE@XZ            004548b0 f   Rune.obj
 0001:00053900       ?virtStart@Rune@@UAEXXZ    00454900 f   Rune.obj
 0001:00053d30       ?virtDraw@Rune@@UAEXXZ     00454d30 f   Rune.obj
 0001:00053d60       ?virtDoUpdate@Rune@@UAEXH@Z 00454d60 f   Rune.obj
 0001:00053e70       ?drawSprite@Rune@@UAEXXZ   00454e70 f   Rune.obj
 0001:00053f30       ?castThunderBoltAt@Rune@@QAEXABUVec2@@@Z 00454f30 f   Rune.obj
 0001:00053fc0       ?updateAllThunderBolts@Rune@@QAEXXZ 00454fc0 f   Rune.obj
 0001:000540d0       ?drawAllThunderBolts@Rune@@QAEXXZ 004550d0 f   Rune.obj
 0001:000542b0       ?castSpell@Rune@@QAEXXZ    004552b0 f   Rune.obj
 0001:00054790       ??$?0$$V@?$_Compressed_pair@V?$allocator@U?$_List_node@V?$shared_ptr@VThunderBolt@@@std@@PAX@std@@@std@@V?$_List_val@U?$_List_simple_types@V?$shared_ptr@VThunderBolt@@@std@@@std@@@2@$00@std@@QAE@U_Zero_then_variadic_args_t@1@@Z 00455790 f i Rune.obj
 0001:000547c0       ??$?0$$V@?$_Compressed_pair@V?$allocator@U?$_Tree_node@U?$pair@$$CBW4RuneState@@V?$shared_ptr@VAnimation@@@std@@@std@@PAX@std@@@std@@V?$_Tree_val@U?$_Tree_simple_types@U?$pair@$$CBW4RuneState@@V?$shared_ptr@VAnimation@@@std@@@std@@@std@@@2@$00@std@@QAE@U_Zero_then_variadic_args_t@1@@Z 004557c0 f i Rune.obj
 0001:000547f0       ??$?0AAPAU?$_Tree_node@U?$pair@$$CBW4RuneState@@V?$shared_ptr@VAnimation@@@std@@@std@@PAX@std@@_N$0A@@?$pair@PAU?$_Tree_node@U?$pair@$$CBW4RuneState@@V?$shared_ptr@VAnimation@@@std@@@std@@PAX@std@@_N@std@@QAE@AAPAU?$_Tree_node@U?$pair@$$CBW4RuneState@@V?$shared_ptr@VAnimation@@@std@@@std@@PAX@1@$$QA_N@Z 004557f0 f i Rune.obj
 0001:00054840       ??$?0AAW4RuneState@@AAV?$shared_ptr@VAnimation@@@std@@$0A@@?$pair@W4RuneState@@V?$shared_ptr@VAnimation@@@std@@@std@@QAE@AAW4RuneState@@AAV?$shared_ptr@VAnimation@@@1@@Z 00455840 f i Rune.obj
 0001:00054890       ??$?0ABU?$less@W4RuneState@@@std@@U_Zero_then_variadic_args_t@1@@?$_Compressed_pair@U?$less@W4RuneState@@@std@@V?$_Compressed_pair@V?$allocator@U?$_Tree_node@U?$pair@$$CBW4RuneState@@V?$shared_ptr@VAnimation@@@std@@@std@@PAX@std@@@std@@V?$_Tree_val@U?$_Tree_simple_types@U?$pair@$$CBW4RuneState@@V?$shared_ptr@VAnimation@@@std@@@std@@@std@@@2@$00@2@$00@std@@QAE@U_One_then_variadic_args_t@1@ABU?$less@W4RuneState@@@1@$$QAU_Zero_then_variadic_args_t@1@@Z 00455890 f i Rune.obj
 0001:000548e0       ??$?0ABUVec2@@U0@@?$_Ref_count_obj2@VThunderBolt@@@std@@QAE@ABUVec2@@$$QAU2@@Z 004558e0 f i Rune.obj
 0001:000549a0       ??$?0PAU?$_Tree_node@U?$pair@$$CBW4RuneState@@V?$shared_ptr@VAnimation@@@std@@@std@@PAX@std@@_N$0A@@?$pair@PAU?$_Tree_node@U?$pair@$$CBW4RuneState@@V?$shared_ptr@VAnimation@@@std@@@std@@PAX@std@@_N@std@@QAE@$$QAPAU?$_Tree_node@U?$pair@$$CBW4RuneState@@V?$shared_ptr@VAnimation@@@std@@@std@@PAX@1@$$QA_N@Z 004559a0 f i Rune.obj
 0001:000549f0       ??$?0U?$_List_node@V?$shared_ptr@VThunderBolt@@@std@@PAX@std@@@?$allocator@U_Container_proxy@std@@@std@@QAE@ABV?$allocator@U?$_List_node@V?$shared_ptr@VThunderBolt@@@std@@PAX@std@@@1@@Z 004559f0 f i Rune.obj
 0001:00054a10       ??$?0U?$_Tree_node@U?$pair@$$CBW4RuneState@@V?$shared_ptr@VAnimation@@@std@@@std@@PAX@std@@@?$allocator@U_Container_proxy@std@@@std@@QAE@ABV?$allocator@U?$_Tree_node@U?$pair@$$CBW4RuneState@@V?$shared_ptr@VAnimation@@@std@@@std@@PAX@std@@@1@@Z 00455a10 f i Rune.obj
 0001:00054a30       ??$?0U?$pair@W4RuneState@@V?$shared_ptr@VAnimation@@@std@@@std@@@?$_Tree_temp_node@V?$allocator@U?$_Tree_node@U?$pair@$$CBW4RuneState@@V?$shared_ptr@VAnimation@@@std@@@std@@PAX@std@@@std@@@std@@QAE@AAV?$allocator@U?$_Tree_node@U?$pair@$$CBW4RuneState@@V?$shared_ptr@VAnimation@@@std@@@std@@PAX@std@@@1@PAU?$_Tree_node@U?$pair@$$CBW4RuneState@@V?$shared_ptr@VAnimation@@@std@@@std@@PAX@1@$$QAU?$pair@W4RuneState@@V?$shared_ptr@VAnimation@@@std@@@1@@Z 00455a30 f i Rune.obj
 0001:00054b40       ??$?0V?$_Tree_iterator@V?$_Tree_val@U?$_Tree_simple_types@U?$pair@$$CBW4RuneState@@V?$shared_ptr@VAnimation@@@std@@@std@@@std@@@std@@@std@@AB_N$0A@@?$pair@V?$_Tree_iterator@V?$_Tree_val@U?$_Tree_simple_types@U?$pair@$$CBW4RuneState@@V?$shared_ptr@VAnimation@@@std@@@std@@@std@@@std@@@std@@_N@std@@QAE@$$QAV?$_Tree_iterator@V?$_Tree_val@U?$_Tree_simple_types@U?$pair@$$CBW4RuneState@@V?$shared_ptr@VAnimation@@@std@@@std@@@std@@@std@@@1@AB_N@Z 00455b40 f i Rune.obj
 0001:00054b90       ??$?0V?$shared_ptr@VThunderBolt@@@std@@@?$_List_node_emplace_op2@V?$allocator@U?$_List_node@V?$shared_ptr@VThunderBolt@@@std@@PAX@std@@@std@@@std@@QAE@AAV?$allocator@U?$_List_node@V?$shared_ptr@VThunderBolt@@@std@@PAX@std@@@1@$$QAV?$shared_ptr@VThunderBolt@@@1@@Z 00455b90 f i Rune.obj
 0001:00054c40       ??$?0W4RuneState@@V?$shared_ptr@VAnimation@@@std@@$0A@@?$pair@$$CBW4RuneState@@V?$shared_ptr@VAnimation@@@std@@@std@@QAE@$$QAU?$pair@W4RuneState@@V?$shared_ptr@VAnimation@@@std@@@1@@Z 00455c40 f i Rune.obj
 0001:00054c90       ??$?0W4RuneState@@V?$shared_ptr@VAnimation@@@std@@$0A@@?$pair@W4RuneState@@V?$shared_ptr@VAnimation@@@std@@@std@@QAE@XZ 00455c90 f i Rune.obj
 0001:00054cd0       ??$?CVThunderBolt@@$0A@@?$shared_ptr@VThunderBolt@@@std@@QBEPAVThunderBolt@@XZ 00455cd0 f i Rune.obj
 0001:00054cf0       ??$_Buyheadnode@V?$allocator@U?$_Tree_node@U?$pair@$$CBW4RuneState@@V?$shared_ptr@VAnimation@@@std@@@std@@PAX@std@@@std@@@?$_Tree_node@U?$pair@$$CBW4RuneState@@V?$shared_ptr@VAnimation@@@std@@@std@@PAX@std@@SAPAU01@AAV?$allocator@U?$_Tree_node@U?$pair@$$CBW4RuneState@@V?$shared_ptr@VAnimation@@@std@@@std@@PAX@std@@@1@@Z 00455cf0 f i Rune.obj
 0001:00054d70       ??$_Construct_in_place@PAU?$_List_node@V?$shared_ptr@VThunderBolt@@@std@@PAX@std@@AAPAU12@@std@@YAXAAPAU?$_List_node@V?$shared_ptr@VThunderBolt@@@std@@PAX@0@0@Z 00455d70 f i Rune.obj
 0001:00054dc0       ??$_Construct_in_place@PAU?$_List_node@V?$shared_ptr@VThunderBolt@@@std@@PAX@std@@ABQAU12@@std@@YAXAAPAU?$_List_node@V?$shared_ptr@VThunderBolt@@@std@@PAX@0@ABQAU10@@Z 00455dc0 f i Rune.obj
 0001:00054e10       ??$_Construct_in_place@PAU?$_Tree_node@U?$pair@$$CBW4RuneState@@V?$shared_ptr@VAnimation@@@std@@@std@@PAX@std@@AAPAU12@@std@@YAXAAPAU?$_Tree_node@U?$pair@$$CBW4RuneState@@V?$shared_ptr@VAnimation@@@std@@@std@@PAX@0@0@Z 00455e10 f i Rune.obj
 0001:00054e60       ??$_Construct_in_place@PAU?$_Tree_node@U?$pair@$$CBW4RuneState@@V?$shared_ptr@VAnimation@@@std@@@std@@PAX@std@@ABQAU12@@std@@YAXAAPAU?$_Tree_node@U?$pair@$$CBW4RuneState@@V?$shared_ptr@VAnimation@@@std@@@std@@PAX@0@ABQAU10@@Z 00455e60 f i Rune.obj
 0001:00054eb0       ??$_Construct_in_place@VThunderBolt@@ABUVec2@@U2@@std@@YAXAAVThunderBolt@@ABUVec2@@$$QAU2@@Z 00455eb0 f i Rune.obj
 0001:00054f20       ??$_Debug_lt_pred@ABU?$less@W4RuneState@@@std@@ABW4RuneState@@ABW43@$0A@@std@@YA_NABU?$less@W4RuneState@@@0@ABW4RuneState@@1@Z 00455f20 f i Rune.obj
 0001:00054fd0       ??$_Destroy_in_place@PAU?$_List_node@V?$shared_ptr@VThunderBolt@@@std@@PAX@std@@@std@@YAXAAPAU?$_List_node@V?$shared_ptr@VThunderBolt@@@std@@PAX@0@@Z 00455fd0 f i Rune.obj
 0001:00054fe0       ??$_Destroy_in_place@PAU?$_Tree_node@U?$pair@$$CBW4RuneState@@V?$shared_ptr@VAnimation@@@std@@@std@@PAX@std@@@std@@YAXAAPAU?$_Tree_node@U?$pair@$$CBW4RuneState@@V?$shared_ptr@VAnimation@@@std@@@std@@PAX@0@@Z 00455fe0 f i Rune.obj
 0001:00054ff0       ??$_Destroy_in_place@VThunderBolt@@@std@@YAXAAVThunderBolt@@@Z 00455ff0 f i Rune.obj
 0001:00055010       ??$_Emplace@U?$pair@W4RuneState@@V?$shared_ptr@VAnimation@@@std@@@std@@@?$_Tree@V?$_Tmap_traits@W4RuneState@@V?$shared_ptr@VAnimation@@@std@@U?$less@W4RuneState@@@3@V?$allocator@U?$pair@$$CBW4RuneState@@V?$shared_ptr@VAnimation@@@std@@@std@@@3@$0A@@std@@@std@@IAE?AU?$pair@PAU?$_Tree_node@U?$pair@$$CBW4RuneState@@V?$shared_ptr@VAnimation@@@std@@@std@@PAX@std@@_N@1@$$QAU?$pair@W4RuneState@@V?$shared_ptr@VAnimation@@@std@@@1@@Z 00456010 f i Rune.obj
 0001:00055140       ??$_Emplace@V?$shared_ptr@VThunderBolt@@@std@@@?$list@V?$shared_ptr@VThunderBolt@@@std@@V?$allocator@V?$shared_ptr@VThunderBolt@@@std@@@2@@std@@QAEPAU?$_List_node@V?$shared_ptr@VThunderBolt@@@std@@PAX@1@QAU21@$$QAV?$shared_ptr@VThunderBolt@@@1@@Z 00456140 f i Rune.obj
 0001:000551f0       ??$_Erase_head@V?$allocator@U?$_Tree_node@U?$pair@$$CBW4RuneState@@V?$shared_ptr@VAnimation@@@std@@@std@@PAX@std@@@std@@@?$_Tree_val@U?$_Tree_simple_types@U?$pair@$$CBW4RuneState@@V?$shared_ptr@VAnimation@@@std@@@std@@@std@@@std@@QAEXAAV?$allocator@U?$_Tree_node@U?$pair@$$CBW4RuneState@@V?$shared_ptr@VAnimation@@@std@@@std@@PAX@std@@@1@@Z 004561f0 f i Rune.obj
 0001:00055240       ??$_Erase_tree@V?$allocator@U?$_Tree_node@U?$pair@$$CBW4RuneState@@V?$shared_ptr@VAnimation@@@std@@@std@@PAX@std@@@std@@@?$_Tree_val@U?$_Tree_simple_types@U?$pair@$$CBW4RuneState@@V?$shared_ptr@VAnimation@@@std@@@std@@@std@@@std@@QAEXAAV?$allocator@U?$_Tree_node@U?$pair@$$CBW4RuneState@@V?$shared_ptr@VAnimation@@@std@@@std@@PAX@std@@@1@PAU?$_Tree_node@U?$pair@$$CBW4RuneState@@V?$shared_ptr@VAnimation@@@std@@@std@@PAX@1@@Z 00456240 f i Rune.obj
 0001:000552a0       ??$_Find@W4RuneState@@@?$_Tree@V?$_Tmap_traits@W4RuneState@@V?$shared_ptr@VAnimation@@@std@@U?$less@W4RuneState@@@3@V?$allocator@U?$pair@$$CBW4RuneState@@V?$shared_ptr@VAnimation@@@std@@@std@@@3@$0A@@std@@@std@@ABEPAU?$_Tree_node@U?$pair@$$CBW4RuneState@@V?$shared_ptr@VAnimation@@@std@@@std@@PAX@1@ABW4RuneState@@@Z 004562a0 f i Rune.obj
 0001:00055300       ??$_Find_lower_bound@W4RuneState@@@?$_Tree@V?$_Tmap_traits@W4RuneState@@V?$shared_ptr@VAnimation@@@std@@U?$less@W4RuneState@@@3@V?$allocator@U?$pair@$$CBW4RuneState@@V?$shared_ptr@VAnimation@@@std@@@std@@@3@$0A@@std@@@std@@IBE?AU?$_Tree_find_result@PAU?$_Tree_node@U?$pair@$$CBW4RuneState@@V?$shared_ptr@VAnimation@@@std@@@std@@PAX@std@@@1@ABW4RuneState@@@Z 00456300 f i Rune.obj
 0001:000553f0       ??$_Free_non_head@V?$allocator@U?$_List_node@V?$shared_ptr@VThunderBolt@@@std@@PAX@std@@@std@@@?$_List_node@V?$shared_ptr@VThunderBolt@@@std@@PAX@std@@SAXAAV?$allocator@U?$_List_node@V?$shared_ptr@VThunderBolt@@@std@@PAX@std@@@1@PAU01@@Z 004563f0 f i Rune.obj
 0001:00055450       ??$_Freenode0@V?$allocator@U?$_List_node@V?$shared_ptr@VThunderBolt@@@std@@PAX@std@@@std@@@?$_List_node@V?$shared_ptr@VThunderBolt@@@std@@PAX@std@@SAXAAV?$allocator@U?$_List_node@V?$shared_ptr@VThunderBolt@@@std@@PAX@std@@@1@PAU01@@Z 00456450 f i Rune.obj
 0001:000554d0       ??$_Freenode0@V?$allocator@U?$_Tree_node@U?$pair@$$CBW4RuneState@@V?$shared_ptr@VAnimation@@@std@@@std@@PAX@std@@@std@@@?$_Tree_node@U?$pair@$$CBW4RuneState@@V?$shared_ptr@VAnimation@@@std@@@std@@PAX@std@@SAXAAV?$allocator@U?$_Tree_node@U?$pair@$$CBW4RuneState@@V?$shared_ptr@VAnimation@@@std@@@std@@PAX@std@@@1@PAU01@@Z 004564d0 f i Rune.obj
 0001:00055560       ??$_Freenode@V?$allocator@U?$_List_node@V?$shared_ptr@VThunderBolt@@@std@@PAX@std@@@std@@@?$_List_node@V?$shared_ptr@VThunderBolt@@@std@@PAX@std@@SAXAAV?$allocator@U?$_List_node@V?$shared_ptr@VThunderBolt@@@std@@PAX@std@@@1@PAU01@@Z 00456560 f i Rune.obj
 0001:000555e0       ??$_Freenode@V?$allocator@U?$_Tree_node@U?$pair@$$CBW4RuneState@@V?$shared_ptr@VAnimation@@@std@@@std@@PAX@std@@@std@@@?$_Tree_node@U?$pair@$$CBW4RuneState@@V?$shared_ptr@VAnimation@@@std@@@std@@PAX@std@@SAXAAV?$allocator@U?$_Tree_node@U?$pair@$$CBW4RuneState@@V?$shared_ptr@VAnimation@@@std@@@std@@PAX@std@@@1@PAU01@@Z 004565e0 f i Rune.obj
 0001:00055660       ??$_Kfn@$$CBW4RuneState@@V?$shared_ptr@VAnimation@@@std@@@?$_Tmap_traits@W4RuneState@@V?$shared_ptr@VAnimation@@@std@@U?$less@W4RuneState@@@3@V?$allocator@U?$pair@$$CBW4RuneState@@V?$shared_ptr@VAnimation@@@std@@@std@@@3@$0A@@std@@SAABW4RuneState@@ABU?$pair@$$CBW4RuneState@@V?$shared_ptr@VAnimation@@@std@@@1@@Z 00456660 f i Rune.obj
 0001:00055670       ??$_Lower_bound_duplicate@W4RuneState@@@?$_Tree@V?$_Tmap_traits@W4RuneState@@V?$shared_ptr@VAnimation@@@std@@U?$less@W4RuneState@@@3@V?$allocator@U?$pair@$$CBW4RuneState@@V?$shared_ptr@VAnimation@@@std@@@std@@@3@$0A@@std@@@std@@IBE_NQAU?$_Tree_node@U?$pair@$$CBW4RuneState@@V?$shared_ptr@VAnimation@@@std@@@std@@PAX@1@ABW4RuneState@@@Z 00456670 f i Rune.obj
 0001:000556e0       ??$_Move_construct_from@VThunderBolt@@@?$_Ptr_base@VThunderBolt@@@std@@IAEX$$QAV01@@Z 004566e0 f i Rune.obj
 0001:00055730       ??$_Set_ptr_rep_and_enable_shared@VThunderBolt@@@?$shared_ptr@VThunderBolt@@@std@@AAEXQAVThunderBolt@@QAV_Ref_count_base@1@@Z 00456730 f i Rune.obj
 0001:00055760       ??$addressof@$$CBV?$_List_val@U?$_List_simple_types@V?$shared_ptr@VThunderBolt@@@std@@@std@@@std@@@std@@YAPBV?$_List_val@U?$_List_simple_types@V?$shared_ptr@VThunderBolt@@@std@@@std@@@0@ABV10@@Z 00456760 f i Rune.obj
 0001:00055770       ??$addressof@$$CBV?$_Tree_val@U?$_Tree_simple_types@U?$pair@$$CBW4RuneState@@V?$shared_ptr@VAnimation@@@std@@@std@@@std@@@std@@@std@@YAPBV?$_Tree_val@U?$_Tree_simple_types@U?$pair@$$CBW4RuneState@@V?$shared_ptr@VAnimation@@@std@@@std@@@std@@@0@ABV10@@Z 00456770 f i Rune.obj
 0001:00055780       ??$addressof@PAU?$_List_node@V?$shared_ptr@VThunderBolt@@@std@@PAX@std@@@std@@YAPAPAU?$_List_node@V?$shared_ptr@VThunderBolt@@@std@@PAX@0@AAPAU10@@Z 00456780 f i Rune.obj
 0001:00055790       ??$addressof@PAU?$_Tree_node@U?$pair@$$CBW4RuneState@@V?$shared_ptr@VAnimation@@@std@@@std@@PAX@std@@@std@@YAPAPAU?$_Tree_node@U?$pair@$$CBW4RuneState@@V?$shared_ptr@VAnimation@@@std@@@std@@PAX@0@AAPAU10@@Z 00456790 f i Rune.obj
 0001:000557a0       ??$addressof@U?$pair@$$CBW4RuneState@@V?$shared_ptr@VAnimation@@@std@@@std@@@std@@YAPAU?$pair@$$CBW4RuneState@@V?$shared_ptr@VAnimation@@@std@@@0@AAU10@@Z 004567a0 f i Rune.obj
 0001:000557b0       ??$addressof@V?$_List_val@U?$_List_simple_types@V?$shared_ptr@VThunderBolt@@@std@@@std@@@std@@@std@@YAPAV?$_List_val@U?$_List_simple_types@V?$shared_ptr@VThunderBolt@@@std@@@std@@@0@AAV10@@Z 004567b0 f i Rune.obj
 0001:000557c0       ??$addressof@V?$_Tree_val@U?$_Tree_simple_types@U?$pair@$$CBW4RuneState@@V?$shared_ptr@VAnimation@@@std@@@std@@@std@@@std@@@std@@YAPAV?$_Tree_val@U?$_Tree_simple_types@U?$pair@$$CBW4RuneState@@V?$shared_ptr@VAnimation@@@std@@@std@@@std@@@0@AAV10@@Z 004567c0 f i Rune.obj
 0001:000557d0       ??$addressof@V?$shared_ptr@VThunderBolt@@@std@@@std@@YAPAV?$shared_ptr@VThunderBolt@@@0@AAV10@@Z 004567d0 f i Rune.obj
 0001:000557e0       ??$addressof@VThunderBolt@@@std@@YAPAVThunderBolt@@AAV1@@Z 004567e0 f i Rune.obj
 0001:000557f0       ??$construct@U?$pair@$$CBW4RuneState@@V?$shared_ptr@VAnimation@@@std@@@std@@U?$pair@W4RuneState@@V?$shared_ptr@VAnimation@@@std@@@2@@?$_Default_allocator_traits@V?$allocator@U?$_Tree_node@U?$pair@$$CBW4RuneState@@V?$shared_ptr@VAnimation@@@std@@@std@@PAX@std@@@std@@@std@@SAXAAV?$allocator@U?$_Tree_node@U?$pair@$$CBW4RuneState@@V?$shared_ptr@VAnimation@@@std@@@std@@PAX@std@@@1@QAU?$pair@$$CBW4RuneState@@V?$shared_ptr@VAnimation@@@std@@@1@$$QAU?$pair@W4RuneState@@V?$shared_ptr@VAnimation@@@std@@@1@@Z 004567f0 f i Rune.obj
 0001:00055830       ??$construct@V?$shared_ptr@VThunderBolt@@@std@@V12@@?$_Default_allocator_traits@V?$allocator@U?$_List_node@V?$shared_ptr@VThunderBolt@@@std@@PAX@std@@@std@@@std@@SAXAAV?$allocator@U?$_List_node@V?$shared_ptr@VThunderBolt@@@std@@PAX@std@@@1@QAV?$shared_ptr@VThunderBolt@@@1@$$QAV31@@Z 00456830 f i Rune.obj
 0001:00055870       ??$destroy@U?$pair@$$CBW4RuneState@@V?$shared_ptr@VAnimation@@@std@@@std@@@?$_Default_allocator_traits@V?$allocator@U?$_Tree_node@U?$pair@$$CBW4RuneState@@V?$shared_ptr@VAnimation@@@std@@@std@@PAX@std@@@std@@@std@@SAXAAV?$allocator@U?$_Tree_node@U?$pair@$$CBW4RuneState@@V?$shared_ptr@VAnimation@@@std@@@std@@PAX@std@@@1@QAU?$pair@$$CBW4RuneState@@V?$shared_ptr@VAnimation@@@std@@@1@@Z 00456870 f i Rune.obj
 0001:00055890       ??$destroy@V?$shared_ptr@VThunderBolt@@@std@@@?$_Default_allocator_traits@V?$allocator@U?$_List_node@V?$shared_ptr@VThunderBolt@@@std@@PAX@std@@@std@@@std@@SAXAAV?$allocator@U?$_List_node@V?$shared_ptr@VThunderBolt@@@std@@PAX@std@@@1@QAV?$shared_ptr@VThunderBolt@@@1@@Z 00456890 f i Rune.obj
 0001:000558b0       ??$emplace@U?$pair@W4RuneState@@V?$shared_ptr@VAnimation@@@std@@@std@@@?$_Tree@V?$_Tmap_traits@W4RuneState@@V?$shared_ptr@VAnimation@@@std@@U?$less@W4RuneState@@@3@V?$allocator@U?$pair@$$CBW4RuneState@@V?$shared_ptr@VAnimation@@@std@@@std@@@3@$0A@@std@@@std@@QAE?AU?$pair@V?$_Tree_iterator@V?$_Tree_val@U?$_Tree_simple_types@U?$pair@$$CBW4RuneState@@V?$shared_ptr@VAnimation@@@std@@@std@@@std@@@std@@@std@@_N@1@$$QAU?$pair@W4RuneState@@V?$shared_ptr@VAnimation@@@std@@@1@@Z 004568b0 f i Rune.obj
 0001:00055940       ??$exchange@PAU?$_Tree_node@U?$pair@$$CBW4RuneState@@V?$shared_ptr@VAnimation@@@std@@@std@@PAX@std@@$$T@std@@YAPAU?$_Tree_node@U?$pair@$$CBW4RuneState@@V?$shared_ptr@VAnimation@@@std@@@std@@PAX@0@AAPAU10@$$QA$$T@Z 00456940 f i Rune.obj
 0001:00055970       ??$exchange@PAU?$_Tree_node@U?$pair@$$CBW4RuneState@@V?$shared_ptr@VAnimation@@@std@@@std@@PAX@std@@AAPAU12@@std@@YAPAU?$_Tree_node@U?$pair@$$CBW4RuneState@@V?$shared_ptr@VAnimation@@@std@@@std@@PAX@0@AAPAU10@0@Z 00456970 f i Rune.obj
 0001:000559a0       ??$forward@AAPAU?$_List_node@V?$shared_ptr@VThunderBolt@@@std@@PAX@std@@@std@@YAAAPAU?$_List_node@V?$shared_ptr@VThunderBolt@@@std@@PAX@0@AAPAU10@@Z 004569a0 f i Rune.obj
 0001:000559b0       ??$forward@AAPAU?$_Tree_node@U?$pair@$$CBW4RuneState@@V?$shared_ptr@VAnimation@@@std@@@std@@PAX@std@@@std@@YAAAPAU?$_Tree_node@U?$pair@$$CBW4RuneState@@V?$shared_ptr@VAnimation@@@std@@@std@@PAX@0@AAPAU10@@Z 004569b0 f i Rune.obj
 0001:000559c0       ??$forward@AAW4RuneState@@@std@@YAAAW4RuneState@@AAW41@@Z 004569c0 f i Rune.obj
 0001:000559d0       ??$forward@ABQAU?$_List_node@V?$shared_ptr@VThunderBolt@@@std@@PAX@std@@@std@@YAABQAU?$_List_node@V?$shared_ptr@VThunderBolt@@@std@@PAX@0@ABQAU10@@Z 004569d0 f i Rune.obj
 0001:000559e0       ??$forward@ABQAU?$_Tree_node@U?$pair@$$CBW4RuneState@@V?$shared_ptr@VAnimation@@@std@@@std@@PAX@std@@@std@@YAABQAU?$_Tree_node@U?$pair@$$CBW4RuneState@@V?$shared_ptr@VAnimation@@@std@@@std@@PAX@0@ABQAU10@@Z 004569e0 f i Rune.obj
 0001:000559f0       ??$forward@ABU?$less@W4RuneState@@@std@@@std@@YAABU?$less@W4RuneState@@@0@ABU10@@Z 004569f0 f i Rune.obj
 0001:00055a00       ??$forward@PAU?$_Tree_node@U?$pair@$$CBW4RuneState@@V?$shared_ptr@VAnimation@@@std@@@std@@PAX@std@@@std@@YA$$QAPAU?$_Tree_node@U?$pair@$$CBW4RuneState@@V?$shared_ptr@VAnimation@@@std@@@std@@PAX@0@AAPAU10@@Z 00456a00 f i Rune.obj
 0001:00055a10       ??$forward@U?$pair@W4RuneState@@V?$shared_ptr@VAnimation@@@std@@@std@@@std@@YA$$QAU?$pair@W4RuneState@@V?$shared_ptr@VAnimation@@@std@@@0@AAU10@@Z 00456a10 f i Rune.obj
 0001:00055a20       ??$forward@V?$_Tree_iterator@V?$_Tree_val@U?$_Tree_simple_types@U?$pair@$$CBW4RuneState@@V?$shared_ptr@VAnimation@@@std@@@std@@@std@@@std@@@std@@@std@@YA$$QAV?$_Tree_iterator@V?$_Tree_val@U?$_Tree_simple_types@U?$pair@$$CBW4RuneState@@V?$shared_ptr@VAnimation@@@std@@@std@@@std@@@std@@@0@AAV10@@Z 00456a20 f i Rune.obj
 0001:00055a30       ??$forward@V?$shared_ptr@VThunderBolt@@@std@@@std@@YA$$QAV?$shared_ptr@VThunderBolt@@@0@AAV10@@Z 00456a30 f i Rune.obj
 0001:00055a40       ??$forward@W4RuneState@@@std@@YA$$QAW4RuneState@@AAW41@@Z 00456a40 f i Rune.obj
 0001:00055a50       ??$insert@U?$pair@W4RuneState@@V?$shared_ptr@VAnimation@@@std@@@std@@$0A@@?$map@W4RuneState@@V?$shared_ptr@VAnimation@@@std@@U?$less@W4RuneState@@@3@V?$allocator@U?$pair@$$CBW4RuneState@@V?$shared_ptr@VAnimation@@@std@@@std@@@3@@std@@QAE?AU?$pair@V?$_Tree_iterator@V?$_Tree_val@U?$_Tree_simple_types@U?$pair@$$CBW4RuneState@@V?$shared_ptr@VAnimation@@@std@@@std@@@std@@@std@@@std@@_N@1@$$QAU?$pair@W4RuneState@@V?$shared_ptr@VAnimation@@@std@@@1@@Z 00456a50 f i Rune.obj
 0001:00055aa0       ??$make_pair@AAW4RuneState@@AAV?$shared_ptr@VAnimation@@@std@@@std@@YA?AU?$pair@W4RuneState@@V?$shared_ptr@VAnimation@@@std@@@0@AAW4RuneState@@AAV?$shared_ptr@VAnimation@@@0@@Z 00456aa0 f i Rune.obj
 0001:00055ae0       ??$make_shared@VThunderBolt@@ABUVec2@@U2@@std@@YA?AV?$shared_ptr@VThunderBolt@@@0@ABUVec2@@$$QAU2@@Z 00456ae0 f i Rune.obj
 0001:00055bf0       ??$move@AAV?$shared_ptr@VThunderBolt@@@std@@@std@@YA$$QAV?$shared_ptr@VThunderBolt@@@0@AAV10@@Z 00456bf0 f i Rune.obj
 0001:00055c00       ??0?$Animator@W4RuneState@@X@@QAE@XZ 00456c00 f i Rune.obj
 0001:00055c30       ??0?$_Alloc_construct_ptr@V?$allocator@U?$_List_node@V?$shared_ptr@VThunderBolt@@@std@@PAX@std@@@std@@@std@@QAE@AAV?$allocator@U?$_List_node@V?$shared_ptr@VThunderBolt@@@std@@PAX@std@@@1@@Z 00456c30 f i Rune.obj
 0001:00055c60       ??0?$_Alloc_construct_ptr@V?$allocator@U?$_Tree_node@U?$pair@$$CBW4RuneState@@V?$shared_ptr@VAnimation@@@std@@@std@@PAX@std@@@std@@@std@@QAE@AAV?$allocator@U?$_Tree_node@U?$pair@$$CBW4RuneState@@V?$shared_ptr@VAnimation@@@std@@@std@@PAX@std@@@1@@Z 00456c60 f i Rune.obj
 0001:00055c90       ??0?$_List_const_iterator@V?$_List_val@U?$_List_simple_types@V?$shared_ptr@VThunderBolt@@@std@@@std@@@std@@@std@@QAE@$$QAV01@@Z 00456c90 f i Rune.obj
 0001:00055cc0       ??0?$_List_const_iterator@V?$_List_val@U?$_List_simple_types@V?$shared_ptr@VThunderBolt@@@std@@@std@@@std@@@std@@QAE@ABV01@@Z 00456cc0 f i Rune.obj
 0001:00055cf0       ??0?$_List_const_iterator@V?$_List_val@U?$_List_simple_types@V?$shared_ptr@VThunderBolt@@@std@@@std@@@std@@@std@@QAE@PAU?$_List_node@V?$shared_ptr@VThunderBolt@@@std@@PAX@1@PBV?$_List_val@U?$_List_simple_types@V?$shared_ptr@VThunderBolt@@@std@@@std@@@1@@Z 00456cf0 f i Rune.obj
 0001:00055d20       ??0?$_List_iterator@V?$_List_val@U?$_List_simple_types@V?$shared_ptr@VThunderBolt@@@std@@@std@@@std@@@std@@QAE@$$QAV01@@Z 00456d20 f i Rune.obj
 0001:00055d50       ??0?$_List_iterator@V?$_List_val@U?$_List_simple_types@V?$shared_ptr@VThunderBolt@@@std@@@std@@@std@@@std@@QAE@ABV01@@Z 00456d50 f i Rune.obj
 0001:00055d80       ??0?$_List_iterator@V?$_List_val@U?$_List_simple_types@V?$shared_ptr@VThunderBolt@@@std@@@std@@@std@@@std@@QAE@PAU?$_List_node@V?$shared_ptr@VThunderBolt@@@std@@PAX@1@PBV?$_List_val@U?$_List_simple_types@V?$shared_ptr@VThunderBolt@@@std@@@std@@@1@@Z 00456d80 f i Rune.obj
 0001:00055db0       ??0?$_List_unchecked_const_iterator@V?$_List_val@U?$_List_simple_types@V?$shared_ptr@VThunderBolt@@@std@@@std@@@std@@U_Iterator_base0@2@@std@@QAE@PAU?$_List_node@V?$shared_ptr@VThunderBolt@@@std@@PAX@1@PBV?$_List_val@U?$_List_simple_types@V?$shared_ptr@VThunderBolt@@@std@@@std@@@1@@Z 00456db0 f i Rune.obj
 0001:00055de0       ??0?$_List_unchecked_const_iterator@V?$_List_val@U?$_List_simple_types@V?$shared_ptr@VThunderBolt@@@std@@@std@@@std@@U_Iterator_base12@2@@std@@QAE@$$QAV01@@Z 00456de0 f i Rune.obj
 0001:00055e20       ??0?$_List_unchecked_const_iterator@V?$_List_val@U?$_List_simple_types@V?$shared_ptr@VThunderBolt@@@std@@@std@@@std@@U_Iterator_base12@2@@std@@QAE@ABV01@@Z 00456e20 f i Rune.obj
 0001:00055e60       ??0?$_List_unchecked_const_iterator@V?$_List_val@U?$_List_simple_types@V?$shared_ptr@VThunderBolt@@@std@@@std@@@std@@U_Iterator_base12@2@@std@@QAE@PAU?$_List_node@V?$shared_ptr@VThunderBolt@@@std@@PAX@1@PBV?$_List_val@U?$_List_simple_types@V?$shared_ptr@VThunderBolt@@@std@@@std@@@1@@Z 00456e60 f i Rune.obj
 0001:00055ea0       ??0?$_List_unchecked_iterator@V?$_List_val@U?$_List_simple_types@V?$shared_ptr@VThunderBolt@@@std@@@std@@@std@@@std@@QAE@PAU?$_List_node@V?$shared_ptr@VThunderBolt@@@std@@PAX@1@PBV?$_List_val@U?$_List_simple_types@V?$shared_ptr@VThunderBolt@@@std@@@std@@@1@@Z 00456ea0 f i Rune.obj
 0001:00055ed0       ??0?$_List_val@U?$_List_simple_types@V?$shared_ptr@VThunderBolt@@@std@@@std@@@std@@QAE@XZ 00456ed0 f i Rune.obj
 0001:00055f10       ??0?$_Ptr_base@VThunderBolt@@@std@@IAE@XZ 00456f10 f i Rune.obj
 0001:00055f40       ??0?$_Tree@V?$_Tmap_traits@W4RuneState@@V?$shared_ptr@VAnimation@@@std@@U?$less@W4RuneState@@@3@V?$allocator@U?$pair@$$CBW4RuneState@@V?$shared_ptr@VAnimation@@@std@@@std@@@3@$0A@@std@@@std@@QAE@ABU?$less@W4RuneState@@@1@@Z 00456f40 f i Rune.obj
 0001:00055f80       ??0?$_Tree_const_iterator@V?$_Tree_val@U?$_Tree_simple_types@U?$pair@$$CBW4RuneState@@V?$shared_ptr@VAnimation@@@std@@@std@@@std@@@std@@@std@@QAE@$$QAV01@@Z 00456f80 f i Rune.obj
 0001:00055fb0       ??0?$_Tree_const_iterator@V?$_Tree_val@U?$_Tree_simple_types@U?$pair@$$CBW4RuneState@@V?$shared_ptr@VAnimation@@@std@@@std@@@std@@@std@@@std@@QAE@PAU?$_Tree_node@U?$pair@$$CBW4RuneState@@V?$shared_ptr@VAnimation@@@std@@@std@@PAX@1@PBV?$_Tree_val@U?$_Tree_simple_types@U?$pair@$$CBW4RuneState@@V?$shared_ptr@VAnimation@@@std@@@std@@@std@@@1@@Z 00456fb0 f i Rune.obj
 0001:00055fe0       ??0?$_Tree_iterator@V?$_Tree_val@U?$_Tree_simple_types@U?$pair@$$CBW4RuneState@@V?$shared_ptr@VAnimation@@@std@@@std@@@std@@@std@@@std@@QAE@$$QAV01@@Z 00456fe0 f i Rune.obj
 0001:00056010       ??0?$_Tree_iterator@V?$_Tree_val@U?$_Tree_simple_types@U?$pair@$$CBW4RuneState@@V?$shared_ptr@VAnimation@@@std@@@std@@@std@@@std@@@std@@QAE@PAU?$_Tree_node@U?$pair@$$CBW4RuneState@@V?$shared_ptr@VAnimation@@@std@@@std@@PAX@1@PBV?$_Tree_val@U?$_Tree_simple_types@U?$pair@$$CBW4RuneState@@V?$shared_ptr@VAnimation@@@std@@@std@@@std@@@1@@Z 00457010 f i Rune.obj
 0001:00056040       ??0?$_Tree_temp_node_alloc@V?$allocator@U?$_Tree_node@U?$pair@$$CBW4RuneState@@V?$shared_ptr@VAnimation@@@std@@@std@@PAX@std@@@std@@@std@@QAE@AAV?$allocator@U?$_Tree_node@U?$pair@$$CBW4RuneState@@V?$shared_ptr@VAnimation@@@std@@@std@@PAX@std@@@1@@Z 00457040 f i Rune.obj
 0001:000560c0       ??0?$_Tree_unchecked_const_iterator@V?$_Tree_val@U?$_Tree_simple_types@U?$pair@$$CBW4RuneState@@V?$shared_ptr@VAnimation@@@std@@@std@@@std@@@std@@U_Iterator_base12@2@@std@@QAE@$$QAV01@@Z 004570c0 f i Rune.obj
 0001:00056100       ??0?$_Tree_unchecked_const_iterator@V?$_Tree_val@U?$_Tree_simple_types@U?$pair@$$CBW4RuneState@@V?$shared_ptr@VAnimation@@@std@@@std@@@std@@@std@@U_Iterator_base12@2@@std@@QAE@PAU?$_Tree_node@U?$pair@$$CBW4RuneState@@V?$shared_ptr@VAnimation@@@std@@@std@@PAX@1@PBV?$_Tree_val@U?$_Tree_simple_types@U?$pair@$$CBW4RuneState@@V?$shared_ptr@VAnimation@@@std@@@std@@@std@@@1@@Z 00457100 f i Rune.obj
 0001:00056140       ??0?$_Tree_val@U?$_Tree_simple_types@U?$pair@$$CBW4RuneState@@V?$shared_ptr@VAnimation@@@std@@@std@@@std@@@std@@QAE@XZ 00457140 f i Rune.obj
 0001:00056180       ??0?$allocator@U?$_List_node@V?$shared_ptr@VThunderBolt@@@std@@PAX@std@@@std@@QAE@XZ 00457180 f i Rune.obj
 0001:000561a0       ??0?$allocator@U?$_Tree_node@U?$pair@$$CBW4RuneState@@V?$shared_ptr@VAnimation@@@std@@@std@@PAX@std@@@std@@QAE@XZ 004571a0 f i Rune.obj
 0001:000561c0       ??0?$list@V?$shared_ptr@VThunderBolt@@@std@@V?$allocator@V?$shared_ptr@VThunderBolt@@@std@@@2@@std@@QAE@XZ 004571c0 f i Rune.obj
 0001:000561f0       ??0?$map@W4RuneState@@V?$shared_ptr@VAnimation@@@std@@U?$less@W4RuneState@@@3@V?$allocator@U?$pair@$$CBW4RuneState@@V?$shared_ptr@VAnimation@@@std@@@std@@@3@@std@@QAE@XZ 004571f0 f i Rune.obj
 0001:00056220       ??0?$shared_ptr@VThunderBolt@@@std@@QAE@$$QAV01@@Z 00457220 f i Rune.obj
 0001:00056260       ??0?$shared_ptr@VThunderBolt@@@std@@QAE@XZ 00457260 f i Rune.obj
 0001:00056280       ??1?$Animator@W4RuneState@@X@@QAE@XZ 00457280 f i Rune.obj
 0001:000562b0       ??1?$_Alloc_construct_ptr@V?$allocator@U?$_List_node@V?$shared_ptr@VThunderBolt@@@std@@PAX@std@@@std@@@std@@QAE@XZ 004572b0 f i Rune.obj
 0001:00056320       ??1?$_Alloc_construct_ptr@V?$allocator@U?$_Tree_node@U?$pair@$$CBW4RuneState@@V?$shared_ptr@VAnimation@@@std@@@std@@PAX@std@@@std@@@std@@QAE@XZ 00457320 f i Rune.obj
 0001:00056390       ??1?$_List_const_iterator@V?$_List_val@U?$_List_simple_types@V?$shared_ptr@VThunderBolt@@@std@@@std@@@std@@@std@@QAE@XZ 00457390 f i Rune.obj
 0001:000563b0       ??1?$_List_iterator@V?$_List_val@U?$_List_simple_types@V?$shared_ptr@VThunderBolt@@@std@@@std@@@std@@@std@@QAE@XZ 004573b0 f i Rune.obj
 0001:000563d0       ??1?$_List_node_emplace_op2@V?$allocator@U?$_List_node@V?$shared_ptr@VThunderBolt@@@std@@PAX@std@@@std@@@std@@QAE@XZ 004573d0 f i Rune.obj
 0001:00056460       ??1?$_List_unchecked_const_iterator@V?$_List_val@U?$_List_simple_types@V?$shared_ptr@VThunderBolt@@@std@@@std@@@std@@U_Iterator_base12@2@@std@@QAE@XZ 00457460 f i Rune.obj
 0001:00056480       ??1?$_Ref_count_obj2@VThunderBolt@@@std@@UAE@XZ 00457480 f i Rune.obj
 0001:000564b0       ??1?$_Tree@V?$_Tmap_traits@W4RuneState@@V?$shared_ptr@VAnimation@@@std@@U?$less@W4RuneState@@@3@V?$allocator@U?$pair@$$CBW4RuneState@@V?$shared_ptr@VAnimation@@@std@@@std@@@3@$0A@@std@@@std@@QAE@XZ 004574b0 f i Rune.obj
 0001:00056520       ??1?$_Tree_const_iterator@V?$_Tree_val@U?$_Tree_simple_types@U?$pair@$$CBW4RuneState@@V?$shared_ptr@VAnimation@@@std@@@std@@@std@@@std@@@std@@QAE@XZ 00457520 f i Rune.obj
 0001:00056540       ??1?$_Tree_iterator@V?$_Tree_val@U?$_Tree_simple_types@U?$pair@$$CBW4RuneState@@V?$shared_ptr@VAnimation@@@std@@@std@@@std@@@std@@@std@@QAE@XZ 00457540 f i Rune.obj
 0001:00056560       ??1?$_Tree_temp_node@V?$allocator@U?$_Tree_node@U?$pair@$$CBW4RuneState@@V?$shared_ptr@VAnimation@@@std@@@std@@PAX@std@@@std@@@std@@QAE@XZ 00457560 f i Rune.obj
 0001:00056630       ??1?$_Tree_temp_node_alloc@V?$allocator@U?$_Tree_node@U?$pair@$$CBW4RuneState@@V?$shared_ptr@VAnimation@@@std@@@std@@PAX@std@@@std@@@std@@QAE@XZ 00457630 f i Rune.obj
 0001:00056650       ??1?$_Tree_unchecked_const_iterator@V?$_Tree_val@U?$_Tree_simple_types@U?$pair@$$CBW4RuneState@@V?$shared_ptr@VAnimation@@@std@@@std@@@std@@@std@@U_Iterator_base12@2@@std@@QAE@XZ 00457650 f i Rune.obj
 0001:00056670       ??1?$list@V?$shared_ptr@VThunderBolt@@@std@@V?$allocator@V?$shared_ptr@VThunderBolt@@@std@@@2@@std@@QAE@XZ 00457670 f i Rune.obj
 0001:000566c0       ??1?$map@W4RuneState@@V?$shared_ptr@VAnimation@@@std@@U?$less@W4RuneState@@@3@V?$allocator@U?$pair@$$CBW4RuneState@@V?$shared_ptr@VAnimation@@@std@@@std@@@3@@std@@QAE@XZ 004576c0 f i Rune.obj
 0001:000566e0       ??1?$pair@$$CBW4RuneState@@V?$shared_ptr@VAnimation@@@std@@@std@@QAE@XZ 004576e0 f i Rune.obj
 0001:00056700       ??1?$pair@V?$_Tree_iterator@V?$_Tree_val@U?$_Tree_simple_types@U?$pair@$$CBW4RuneState@@V?$shared_ptr@VAnimation@@@std@@@std@@@std@@@std@@@std@@_N@std@@QAE@XZ 00457700 f i Rune.obj
 0001:00056720       ??1?$pair@W4RuneState@@V?$shared_ptr@VAnimation@@@std@@@std@@QAE@XZ 00457720 f i Rune.obj
 0001:00056740       ??1?$shared_ptr@VThunderBolt@@@std@@QAE@XZ 00457740 f i Rune.obj
 0001:00056760       ??1ThunderBolt@@QAE@XZ     00457760 f i Rune.obj
 0001:00056780       ??8?$_List_const_iterator@V?$_List_val@U?$_List_simple_types@V?$shared_ptr@VThunderBolt@@@std@@@std@@@std@@@std@@QBE_NABV01@@Z 00457780 f i Rune.obj
 0001:00056840       ??8?$_List_unchecked_const_iterator@V?$_List_val@U?$_List_simple_types@V?$shared_ptr@VThunderBolt@@@std@@@std@@@std@@U_Iterator_base0@2@@std@@QBE_NABV01@@Z 00457840 f i Rune.obj
 0001:00056880       ??8?$_Tree_const_iterator@V?$_Tree_val@U?$_Tree_simple_types@U?$pair@$$CBW4RuneState@@V?$shared_ptr@VAnimation@@@std@@@std@@@std@@@std@@@std@@QBE_NABV01@@Z 00457880 f i Rune.obj
 0001:00056940       ??9?$_List_const_iterator@V?$_List_val@U?$_List_simple_types@V?$shared_ptr@VThunderBolt@@@std@@@std@@@std@@@std@@QBE_NABV01@@Z 00457940 f i Rune.obj
 0001:00056990       ??9?$_List_unchecked_const_iterator@V?$_List_val@U?$_List_simple_types@V?$shared_ptr@VThunderBolt@@@std@@@std@@@std@@U_Iterator_base0@2@@std@@QBE_NABV01@@Z 00457990 f i Rune.obj
 0001:000569e0       ??9?$_Tree_const_iterator@V?$_Tree_val@U?$_Tree_simple_types@U?$pair@$$CBW4RuneState@@V?$shared_ptr@VAnimation@@@std@@@std@@@std@@@std@@@std@@QBE_NABV01@@Z 004579e0 f i Rune.obj
 0001:00056a30       ??C?$_Tree_iterator@V?$_Tree_val@U?$_Tree_simple_types@U?$pair@$$CBW4RuneState@@V?$shared_ptr@VAnimation@@@std@@@std@@@std@@@std@@@std@@QBEPAU?$pair@$$CBW4RuneState@@V?$shared_ptr@VAnimation@@@std@@@1@XZ 00457a30 f i Rune.obj
 0001:00056a60       ??D?$_List_const_iterator@V?$_List_val@U?$_List_simple_types@V?$shared_ptr@VThunderBolt@@@std@@@std@@@std@@@std@@QBEABV?$shared_ptr@VThunderBolt@@@1@XZ 00457a60 f i Rune.obj
 0001:00056b70       ??D?$_List_iterator@V?$_List_val@U?$_List_simple_types@V?$shared_ptr@VThunderBolt@@@std@@@std@@@std@@@std@@QBEAAV?$shared_ptr@VThunderBolt@@@1@XZ 00457b70 f i Rune.obj
 0001:00056b90       ??D?$_List_unchecked_const_iterator@V?$_List_val@U?$_List_simple_types@V?$shared_ptr@VThunderBolt@@@std@@@std@@@std@@U_Iterator_base0@2@@std@@QBEABV?$shared_ptr@VThunderBolt@@@1@XZ 00457b90 f i Rune.obj
 0001:00056bb0       ??D?$_List_unchecked_iterator@V?$_List_val@U?$_List_simple_types@V?$shared_ptr@VThunderBolt@@@std@@@std@@@std@@@std@@QBEAAV?$shared_ptr@VThunderBolt@@@1@XZ 00457bb0 f i Rune.obj
 0001:00056bd0       ??D?$_Tree_const_iterator@V?$_Tree_val@U?$_Tree_simple_types@U?$pair@$$CBW4RuneState@@V?$shared_ptr@VAnimation@@@std@@@std@@@std@@@std@@@std@@QBEABU?$pair@$$CBW4RuneState@@V?$shared_ptr@VAnimation@@@std@@@1@XZ 00457bd0 f i Rune.obj
 0001:00056ce0       ??D?$_Tree_iterator@V?$_Tree_val@U?$_Tree_simple_types@U?$pair@$$CBW4RuneState@@V?$shared_ptr@VAnimation@@@std@@@std@@@std@@@std@@@std@@QBEAAU?$pair@$$CBW4RuneState@@V?$shared_ptr@VAnimation@@@std@@@1@XZ 00457ce0 f i Rune.obj
 0001:00056d00       ??E?$_List_const_iterator@V?$_List_val@U?$_List_simple_types@V?$shared_ptr@VThunderBolt@@@std@@@std@@@std@@@std@@QAEAAV01@XZ 00457d00 f i Rune.obj
 0001:00056e20       ??E?$_List_iterator@V?$_List_val@U?$_List_simple_types@V?$shared_ptr@VThunderBolt@@@std@@@std@@@std@@@std@@QAE?AV01@H@Z 00457e20 f i Rune.obj
 0001:00056ed0       ??E?$_List_iterator@V?$_List_val@U?$_List_simple_types@V?$shared_ptr@VThunderBolt@@@std@@@std@@@std@@@std@@QAEAAV01@XZ 00457ed0 f i Rune.obj
 0001:00056ef0       ??E?$_List_unchecked_const_iterator@V?$_List_val@U?$_List_simple_types@V?$shared_ptr@VThunderBolt@@@std@@@std@@@std@@U_Iterator_base0@2@@std@@QAEAAV01@XZ 00457ef0 f i Rune.obj
 0001:00056f10       ??E?$_List_unchecked_iterator@V?$_List_val@U?$_List_simple_types@V?$shared_ptr@VThunderBolt@@@std@@@std@@@std@@@std@@QAEAAV01@XZ 00457f10 f i Rune.obj
 0001:00056f30       ??R?$less@W4RuneState@@@std@@QBE_NABW4RuneState@@0@Z 00457f30 f i Rune.obj
 0001:00056f70       ??_G?$Animator@W4RuneState@@X@@QAEPAXI@Z 00457f70 f i Rune.obj
 0001:00056fb0       ??_G?$_Ref_count_obj2@VThunderBolt@@@std@@UAEPAXI@Z 00457fb0 f i Rune.obj
 0001:00056fb0       ??_E?$_Ref_count_obj2@VThunderBolt@@@std@@UAEPAXI@Z 00457fb0 f i Rune.obj
 0001:00056ff0       ??_G?$pair@$$CBW4RuneState@@V?$shared_ptr@VAnimation@@@std@@@std@@QAEPAXI@Z 00457ff0 f i Rune.obj
 0001:00057030       ??_G?$shared_ptr@VThunderBolt@@@std@@QAEPAXI@Z 00458030 f i Rune.obj
 0001:00057070       ??_ERune@@UAEPAXI@Z        00458070 f i Rune.obj
 0001:00057070       ??_GRune@@UAEPAXI@Z        00458070 f i Rune.obj
 0001:000570b0       ??_GThunderBolt@@QAEPAXI@Z 004580b0 f i Rune.obj
 0001:000570f0       ?_Alloc_sentinel_and_proxy@?$_Tree@V?$_Tmap_traits@W4RuneState@@V?$shared_ptr@VAnimation@@@std@@U?$less@W4RuneState@@@3@V?$allocator@U?$pair@$$CBW4RuneState@@V?$shared_ptr@VAnimation@@@std@@@std@@@3@$0A@@std@@@std@@IAEXXZ 004580f0 f i Rune.obj
 0001:000571c0       ?_Alloc_sentinel_and_proxy@?$list@V?$shared_ptr@VThunderBolt@@@std@@V?$allocator@V?$shared_ptr@VThunderBolt@@@std@@@2@@std@@AAEXXZ 004581c0 f i Rune.obj
 0001:000572b0       ?_Allocate@?$_Alloc_construct_ptr@V?$allocator@U?$_List_node@V?$shared_ptr@VThunderBolt@@@std@@PAX@std@@@std@@@std@@QAEXXZ 004582b0 f i Rune.obj
 0001:000572e0       ?_Allocate@?$_Alloc_construct_ptr@V?$allocator@U?$_Tree_node@U?$pair@$$CBW4RuneState@@V?$shared_ptr@VAnimation@@@std@@@std@@PAX@std@@@std@@@std@@QAEXXZ 004582e0 f i Rune.obj
 0001:00057310       ?_Check_grow_by_1@?$_Tree@V?$_Tmap_traits@W4RuneState@@V?$shared_ptr@VAnimation@@@std@@U?$less@W4RuneState@@@3@V?$allocator@U?$pair@$$CBW4RuneState@@V?$shared_ptr@VAnimation@@@std@@@std@@@3@$0A@@std@@@std@@IAEXXZ 00458310 f i Rune.obj
 0001:00057350       ?_Decref@?$_Ptr_base@VThunderBolt@@@std@@IAEXXZ 00458350 f i Rune.obj
 0001:00057380       ?_Delete_this@?$_Ref_count_obj2@VThunderBolt@@@std@@EAEXXZ 00458380 f i Rune.obj
 0001:000573d0       ?_Destroy@?$_Ref_count_obj2@VThunderBolt@@@std@@EAEXXZ 004583d0 f i Rune.obj
 0001:000573f0       ?_Extract@?$_In_place_key_extract_map@W4RuneState@@U?$pair@W4RuneState@@V?$shared_ptr@VAnimation@@@std@@@std@@@std@@SAABW4RuneState@@ABU?$pair@W4RuneState@@V?$shared_ptr@VAnimation@@@std@@@2@@Z 004583f0 f i Rune.obj
 0001:00057400       ?_Get_first@?$_Compressed_pair@U?$less@W4RuneState@@@std@@V?$_Compressed_pair@V?$allocator@U?$_Tree_node@U?$pair@$$CBW4RuneState@@V?$shared_ptr@VAnimation@@@std@@@std@@PAX@std@@@std@@V?$_Tree_val@U?$_Tree_simple_types@U?$pair@$$CBW4RuneState@@V?$shared_ptr@VAnimation@@@std@@@std@@@std@@@2@$00@2@$00@std@@QBEABU?$less@W4RuneState@@@2@XZ 00458400 f i Rune.obj
 0001:00057420       ?_Get_first@?$_Compressed_pair@V?$allocator@U?$_List_node@V?$shared_ptr@VThunderBolt@@@std@@PAX@std@@@std@@V?$_List_val@U?$_List_simple_types@V?$shared_ptr@VThunderBolt@@@std@@@std@@@2@$00@std@@QAEAAV?$allocator@U?$_List_node@V?$shared_ptr@VThunderBolt@@@std@@PAX@std@@@2@XZ 00458420 f i Rune.obj
 0001:00057440       ?_Get_first@?$_Compressed_pair@V?$allocator@U?$_List_node@V?$shared_ptr@VThunderBolt@@@std@@PAX@std@@@std@@V?$_List_val@U?$_List_simple_types@V?$shared_ptr@VThunderBolt@@@std@@@std@@@2@$00@std@@QBEABV?$allocator@U?$_List_node@V?$shared_ptr@VThunderBolt@@@std@@PAX@std@@@2@XZ 00458440 f i Rune.obj
 0001:00057460       ?_Get_first@?$_Compressed_pair@V?$allocator@U?$_Tree_node@U?$pair@$$CBW4RuneState@@V?$shared_ptr@VAnimation@@@std@@@std@@PAX@std@@@std@@V?$_Tree_val@U?$_Tree_simple_types@U?$pair@$$CBW4RuneState@@V?$shared_ptr@VAnimation@@@std@@@std@@@std@@@2@$00@std@@QAEAAV?$allocator@U?$_Tree_node@U?$pair@$$CBW4RuneState@@V?$shared_ptr@VAnimation@@@std@@@std@@PAX@std@@@2@XZ 00458460 f i Rune.obj
 0001:00057480       ?_Get_first@?$_Compressed_pair@V?$allocator@U?$_Tree_node@U?$pair@$$CBW4RuneState@@V?$shared_ptr@VAnimation@@@std@@@std@@PAX@std@@@std@@V?$_Tree_val@U?$_Tree_simple_types@U?$pair@$$CBW4RuneState@@V?$shared_ptr@VAnimation@@@std@@@std@@@std@@@2@$00@std@@QBEABV?$allocator@U?$_Tree_node@U?$pair@$$CBW4RuneState@@V?$shared_ptr@VAnimation@@@std@@@std@@PAX@std@@@2@XZ 00458480 f i Rune.obj
 0001:000574a0       ?_Get_scary@?$_Tree@V?$_Tmap_traits@W4RuneState@@V?$shared_ptr@VAnimation@@@std@@U?$less@W4RuneState@@@3@V?$allocator@U?$pair@$$CBW4RuneState@@V?$shared_ptr@VAnimation@@@std@@@std@@@3@$0A@@std@@@std@@IAEPAV?$_Tree_val@U?$_Tree_simple_types@U?$pair@$$CBW4RuneState@@V?$shared_ptr@VAnimation@@@std@@@std@@@std@@@2@XZ 004584a0 f i Rune.obj
 0001:000574c0       ?_Get_scary@?$_Tree@V?$_Tmap_traits@W4RuneState@@V?$shared_ptr@VAnimation@@@std@@U?$less@W4RuneState@@@3@V?$allocator@U?$pair@$$CBW4RuneState@@V?$shared_ptr@VAnimation@@@std@@@std@@@3@$0A@@std@@@std@@IBEPBV?$_Tree_val@U?$_Tree_simple_types@U?$pair@$$CBW4RuneState@@V?$shared_ptr@VAnimation@@@std@@@std@@@std@@@2@XZ 004584c0 f i Rune.obj
 0001:000574e0       ?_Getal@?$_Tree@V?$_Tmap_traits@W4RuneState@@V?$shared_ptr@VAnimation@@@std@@U?$less@W4RuneState@@@3@V?$allocator@U?$pair@$$CBW4RuneState@@V?$shared_ptr@VAnimation@@@std@@@std@@@3@$0A@@std@@@std@@IAEAAV?$allocator@U?$_Tree_node@U?$pair@$$CBW4RuneState@@V?$shared_ptr@VAnimation@@@std@@@std@@PAX@std@@@2@XZ 004584e0 f i Rune.obj
 0001:00057500       ?_Getal@?$_Tree@V?$_Tmap_traits@W4RuneState@@V?$shared_ptr@VAnimation@@@std@@U?$less@W4RuneState@@@3@V?$allocator@U?$pair@$$CBW4RuneState@@V?$shared_ptr@VAnimation@@@std@@@std@@@3@$0A@@std@@@std@@IBEABV?$allocator@U?$_Tree_node@U?$pair@$$CBW4RuneState@@V?$shared_ptr@VAnimation@@@std@@@std@@PAX@std@@@2@XZ 00458500 f i Rune.obj
 0001:00057520       ?_Getal@?$list@V?$shared_ptr@VThunderBolt@@@std@@V?$allocator@V?$shared_ptr@VThunderBolt@@@std@@@2@@std@@AAEAAV?$allocator@U?$_List_node@V?$shared_ptr@VThunderBolt@@@std@@PAX@std@@@2@XZ 00458520 f i Rune.obj
 0001:00057540       ?_Getal@?$list@V?$shared_ptr@VThunderBolt@@@std@@V?$allocator@V?$shared_ptr@VThunderBolt@@@std@@@2@@std@@ABEABV?$allocator@U?$_List_node@V?$shared_ptr@VThunderBolt@@@std@@PAX@std@@@2@XZ 00458540 f i Rune.obj
 0001:00057560       ?_Getcomp@?$_Tree@V?$_Tmap_traits@W4RuneState@@V?$shared_ptr@VAnimation@@@std@@U?$less@W4RuneState@@@3@V?$allocator@U?$pair@$$CBW4RuneState@@V?$shared_ptr@VAnimation@@@std@@@std@@@3@$0A@@std@@@std@@IBEABU?$less@W4RuneState@@@2@XZ 00458560 f i Rune.obj
 0001:00057580       ?_Insert_node@?$_Tree_val@U?$_Tree_simple_types@U?$pair@$$CBW4RuneState@@V?$shared_ptr@VAnimation@@@std@@@std@@@std@@@std@@QAEPAU?$_Tree_node@U?$pair@$$CBW4RuneState@@V?$shared_ptr@VAnimation@@@std@@@std@@PAX@2@U?$_Tree_id@PAU?$_Tree_node@U?$pair@$$CBW4RuneState@@V?$shared_ptr@VAnimation@@@std@@@std@@PAX@std@@@2@QAU32@@Z 00458580 f i Rune.obj
 0001:00057810       ?_Lrotate@?$_Tree_val@U?$_Tree_simple_types@U?$pair@$$CBW4RuneState@@V?$shared_ptr@VAnimation@@@std@@@std@@@std@@@std@@QAEXPAU?$_Tree_node@U?$pair@$$CBW4RuneState@@V?$shared_ptr@VAnimation@@@std@@@std@@PAX@2@@Z 00458810 f i Rune.obj
 0001:000578d0       ?_Make_iter@?$list@V?$shared_ptr@VThunderBolt@@@std@@V?$allocator@V?$shared_ptr@VThunderBolt@@@std@@@2@@std@@QBE?AV?$_List_iterator@V?$_List_val@U?$_List_simple_types@V?$shared_ptr@VThunderBolt@@@std@@@std@@@std@@@2@PAU?$_List_node@V?$shared_ptr@VThunderBolt@@@std@@PAX@2@@Z 004588d0 f i Rune.obj
 0001:00057910       ?_Orphan_ptr2@?$_List_val@U?$_List_simple_types@V?$shared_ptr@VThunderBolt@@@std@@@std@@@std@@QAEXPAU?$_List_node@V?$shared_ptr@VThunderBolt@@@std@@PAX@2@@Z 00458910 f i Rune.obj
 0001:000579c0       ?_Release@?$_Alloc_construct_ptr@V?$allocator@U?$_Tree_node@U?$pair@$$CBW4RuneState@@V?$shared_ptr@VAnimation@@@std@@@std@@PAX@std@@@std@@@std@@QAEPAU?$_Tree_node@U?$pair@$$CBW4RuneState@@V?$shared_ptr@VAnimation@@@std@@@std@@PAX@2@XZ 004589c0 f i Rune.obj
 0001:000579f0       ?_Rrotate@?$_Tree_val@U?$_Tree_simple_types@U?$pair@$$CBW4RuneState@@V?$shared_ptr@VAnimation@@@std@@@std@@@std@@@std@@QAEXPAU?$_Tree_node@U?$pair@$$CBW4RuneState@@V?$shared_ptr@VAnimation@@@std@@@std@@PAX@2@@Z 004589f0 f i Rune.obj
 0001:00057ac0       ?_Tidy@?$list@V?$shared_ptr@VThunderBolt@@@std@@V?$allocator@V?$shared_ptr@VThunderBolt@@@std@@@2@@std@@AAEXXZ 00458ac0 f i Rune.obj
 0001:00057b20       ?_Transfer_before@?$_List_node_emplace_op2@V?$allocator@U?$_List_node@V?$shared_ptr@VThunderBolt@@@std@@PAX@std@@@std@@@std@@QAEPAU?$_List_node@V?$shared_ptr@VThunderBolt@@@std@@PAX@2@QAU32@@Z 00458b20 f i Rune.obj
 0001:00057bb0       ?_Unchecked_begin@?$list@V?$shared_ptr@VThunderBolt@@@std@@V?$allocator@V?$shared_ptr@VThunderBolt@@@std@@@2@@std@@QAE?AV?$_List_unchecked_iterator@V?$_List_val@U?$_List_simple_types@V?$shared_ptr@VThunderBolt@@@std@@@std@@@std@@@2@XZ 00458bb0 f i Rune.obj
 0001:00057be0       ?_Unchecked_end@?$list@V?$shared_ptr@VThunderBolt@@@std@@V?$allocator@V?$shared_ptr@VThunderBolt@@@std@@@2@@std@@QAE?AV?$_List_unchecked_iterator@V?$_List_val@U?$_List_simple_types@V?$shared_ptr@VThunderBolt@@@std@@@std@@@std@@@2@XZ 00458be0 f i Rune.obj
 0001:00057c10       ?_Unlinknode@?$_List_val@U?$_List_simple_types@V?$shared_ptr@VThunderBolt@@@std@@@std@@@std@@QAEPAU?$_List_node@V?$shared_ptr@VThunderBolt@@@std@@PAX@2@PAU32@@Z 00458c10 f i Rune.obj
 0001:00057c70       ?addAnimation@?$Animator@W4RuneState@@X@@QAEXW4RuneState@@V?$shared_ptr@VAnimation@@@std@@@Z 00458c70 f i Rune.obj
 0001:00057d30       ?allocate@?$allocator@U?$_List_node@V?$shared_ptr@VThunderBolt@@@std@@PAX@std@@@std@@QAEPAU?$_List_node@V?$shared_ptr@VThunderBolt@@@std@@PAX@2@I@Z 00458d30 f i Rune.obj
 0001:00057d60       ?allocate@?$allocator@U?$_Tree_node@U?$pair@$$CBW4RuneState@@V?$shared_ptr@VAnimation@@@std@@@std@@PAX@std@@@std@@QAEPAU?$_Tree_node@U?$pair@$$CBW4RuneState@@V?$shared_ptr@VAnimation@@@std@@@std@@PAX@2@I@Z 00458d60 f i Rune.obj
 0001:00057d90       ?begin@?$list@V?$shared_ptr@VThunderBolt@@@std@@V?$allocator@V?$shared_ptr@VThunderBolt@@@std@@@2@@std@@QAE?AV?$_List_iterator@V?$_List_val@U?$_List_simple_types@V?$shared_ptr@VThunderBolt@@@std@@@std@@@std@@@2@XZ 00458d90 f i Rune.obj
 0001:00057dd0       ?deallocate@?$_Default_allocator_traits@V?$allocator@U?$_List_node@V?$shared_ptr@VThunderBolt@@@std@@PAX@std@@@std@@@std@@SAXAAV?$allocator@U?$_List_node@V?$shared_ptr@VThunderBolt@@@std@@PAX@std@@@2@QAU?$_List_node@V?$shared_ptr@VThunderBolt@@@std@@PAX@2@I@Z 00458dd0 f i Rune.obj
 0001:00057df0       ?deallocate@?$_Default_allocator_traits@V?$allocator@U?$_Tree_node@U?$pair@$$CBW4RuneState@@V?$shared_ptr@VAnimation@@@std@@@std@@PAX@std@@@std@@@std@@SAXAAV?$allocator@U?$_Tree_node@U?$pair@$$CBW4RuneState@@V?$shared_ptr@VAnimation@@@std@@@std@@PAX@std@@@2@QAU?$_Tree_node@U?$pair@$$CBW4RuneState@@V?$shared_ptr@VAnimation@@@std@@@std@@PAX@2@I@Z 00458df0 f i Rune.obj
 0001:00057e10       ?deallocate@?$allocator@U?$_List_node@V?$shared_ptr@VThunderBolt@@@std@@PAX@std@@@std@@QAEXQAU?$_List_node@V?$shared_ptr@VThunderBolt@@@std@@PAX@2@I@Z 00458e10 f i Rune.obj
 0001:00057e40       ?deallocate@?$allocator@U?$_Tree_node@U?$pair@$$CBW4RuneState@@V?$shared_ptr@VAnimation@@@std@@@std@@PAX@std@@@std@@QAEXQAU?$_Tree_node@U?$pair@$$CBW4RuneState@@V?$shared_ptr@VAnimation@@@std@@@std@@PAX@2@I@Z 00458e40 f i Rune.obj
 0001:00057e70       ?drawBackgroundThickLine@BaseEngine@@QAEXHHHHIH@Z 00458e70 f i Rune.obj
 0001:00057ee0       ?end@?$_Tree@V?$_Tmap_traits@W4RuneState@@V?$shared_ptr@VAnimation@@@std@@U?$less@W4RuneState@@@3@V?$allocator@U?$pair@$$CBW4RuneState@@V?$shared_ptr@VAnimation@@@std@@@std@@@3@$0A@@std@@@std@@QAE?AV?$_Tree_iterator@V?$_Tree_val@U?$_Tree_simple_types@U?$pair@$$CBW4RuneState@@V?$shared_ptr@VAnimation@@@std@@@std@@@std@@@std@@@2@XZ 00458ee0 f i Rune.obj
 0001:00057f20       ?end@?$list@V?$shared_ptr@VThunderBolt@@@std@@V?$allocator@V?$shared_ptr@VThunderBolt@@@std@@@2@@std@@QAE?AV?$_List_iterator@V?$_List_val@U?$_List_simple_types@V?$shared_ptr@VThunderBolt@@@std@@@std@@@std@@@2@XZ 00458f20 f i Rune.obj
 0001:00057f60       ?erase@?$list@V?$shared_ptr@VThunderBolt@@@std@@V?$allocator@V?$shared_ptr@VThunderBolt@@@std@@@2@@std@@QAE?AV?$_List_iterator@V?$_List_val@U?$_List_simple_types@V?$shared_ptr@VThunderBolt@@@std@@@std@@@std@@@2@V?$_List_const_iterator@V?$_List_val@U?$_List_simple_types@V?$shared_ptr@VThunderBolt@@@std@@@std@@@std@@@2@@Z 00458f60 f i Rune.obj
 0001:00058050       ?find@?$_Tree@V?$_Tmap_traits@W4RuneState@@V?$shared_ptr@VAnimation@@@std@@U?$less@W4RuneState@@@3@V?$allocator@U?$pair@$$CBW4RuneState@@V?$shared_ptr@VAnimation@@@std@@@std@@@3@$0A@@std@@@std@@QAE?AV?$_Tree_iterator@V?$_Tree_val@U?$_Tree_simple_types@U?$pair@$$CBW4RuneState@@V?$shared_ptr@VAnimation@@@std@@@std@@@std@@@std@@@2@ABW4RuneState@@@Z 00459050 f i Rune.obj
 0001:000580a0       ?get@?$_Ptr_base@VThunderBolt@@@std@@IBEPAVThunderBolt@@XZ 004590a0 f i Rune.obj
 0001:000580c0       ?getTarget@ThunderBolt@@QAEABUVec2@@XZ 004590c0 f i Rune.obj
 0001:000580e0       ?incrementActiveRuneNum@RuneManager@@QAEXXZ 004590e0 f i Rune.obj
 0001:00058100       ?isTakingThunder@Gallo@@QAE_NXZ 00459100 f i Rune.obj
 0001:00058120       ?max_size@?$_Default_allocator_traits@V?$allocator@U?$_List_node@V?$shared_ptr@VThunderBolt@@@std@@PAX@std@@@std@@@std@@SAIABV?$allocator@U?$_List_node@V?$shared_ptr@VThunderBolt@@@std@@PAX@std@@@2@@Z 00459120 f i Rune.obj
 0001:00058130       ?max_size@?$_Default_allocator_traits@V?$allocator@U?$_Tree_node@U?$pair@$$CBW4RuneState@@V?$shared_ptr@VAnimation@@@std@@@std@@PAX@std@@@std@@@std@@SAIABV?$allocator@U?$_Tree_node@U?$pair@$$CBW4RuneState@@V?$shared_ptr@VAnimation@@@std@@@std@@PAX@std@@@2@@Z 00459130 f i Rune.obj
 0001:00058140       ?max_size@?$_Tree@V?$_Tmap_traits@W4RuneState@@V?$shared_ptr@VAnimation@@@std@@U?$less@W4RuneState@@@3@V?$allocator@U?$pair@$$CBW4RuneState@@V?$shared_ptr@VAnimation@@@std@@@std@@@3@$0A@@std@@@std@@QBEIXZ 00459140 f i Rune.obj
 0001:00058190       ?max_size@?$list@V?$shared_ptr@VThunderBolt@@@std@@V?$allocator@V?$shared_ptr@VThunderBolt@@@std@@@2@@std@@QBEIXZ 00459190 f i Rune.obj
 0001:000581e0       ?play@?$Animator@W4RuneState@@X@@QAEABVSimpleImage@@XZ 004591e0 f i Rune.obj
 0001:00058220       ?pointer_to@?$pointer_traits@PAU?$pair@$$CBW4RuneState@@V?$shared_ptr@VAnimation@@@std@@@std@@@std@@SAPAU?$pair@$$CBW4RuneState@@V?$shared_ptr@VAnimation@@@std@@@2@AAU32@@Z 00459220 f i Rune.obj
 0001:00058240       ?push_back@?$list@V?$shared_ptr@VThunderBolt@@@std@@V?$allocator@V?$shared_ptr@VThunderBolt@@@std@@@2@@std@@QAEX$$QAV?$shared_ptr@VThunderBolt@@@2@@Z 00459240 f i Rune.obj
 0001:00058280       ?setAnimationState@?$Animator@W4RuneState@@X@@QAEXW4RuneState@@@Z 00459280 f i Rune.obj
 0001:000583a0       ?setTakingThunder@Gallo@@QAEX_N@Z 004593a0 f i Rune.obj
 0001:000583c0       ?shake@GameCamera@@QAEX_N@Z 004593c0 f i Rune.obj
 0001:000583e0       ?getInstance@RuneManager@@SAPAV1@XZ 004593e0 f   RuneManager.obj
 0001:00058470       ?initRuneAt@RuneManager@@QAEXHH@Z 00459470 f   RuneManager.obj
 0001:00058550       ??$?0$$V@?$_Compressed_pair@V?$allocator@PAVRune@@@std@@V?$_Vector_val@U?$_Simple_types@PAVRune@@@std@@@2@$00@std@@QAE@U_Zero_then_variadic_args_t@1@@Z 00459550 f i RuneManager.obj
 0001:00058580       ??$_Emplace_back_with_unused_capacity@PAVRune@@@?$vector@PAVRune@@V?$allocator@PAVRune@@@std@@@std@@AAE@$$QAPAVRune@@@Z 00459580 f i RuneManager.obj
 0001:00058620       ??$_Emplace_reallocate@PAVRune@@@?$vector@PAVRune@@V?$allocator@PAVRune@@@std@@@std@@QAEPAPAVRune@@QAPAV2@$$QAPAV2@@Z 00459620 f i RuneManager.obj
 0001:00058870       ??$_Uninitialized_move@PAPAVRune@@V?$allocator@PAVRune@@@std@@@std@@YAPAPAVRune@@QAPAV1@0PAPAV1@AAV?$allocator@PAVRune@@@0@@Z 00459870 f i RuneManager.obj
 0001:000588e0       ??$construct@PAVRune@@PAV1@@?$_Default_allocator_traits@V?$allocator@PAVRune@@@std@@@std@@SAXAAV?$allocator@PAVRune@@@1@QAPAVRune@@$$QAPAV3@@Z 004598e0 f i RuneManager.obj
 0001:00058920       ??$emplace_back@PAVRune@@@?$vector@PAVRune@@V?$allocator@PAVRune@@@std@@@std@@QAE@$$QAPAVRune@@@Z 00459920 f i RuneManager.obj
 0001:000589a0       ??$forward@PAVRune@@@std@@YA$$QAPAVRune@@AAPAV1@@Z 004599a0 f i RuneManager.obj
 0001:000589b0       ??$move@AAPAVRune@@@std@@YA$$QAPAVRune@@AAPAV1@@Z 004599b0 f i RuneManager.obj
 0001:000589c0       ??0?$allocator@PAVRune@@@std@@QAE@XZ 004599c0 f i RuneManager.obj
 0001:000589e0       ??0?$vector@PAVRune@@V?$allocator@PAVRune@@@std@@@std@@QAE@XZ 004599e0 f i RuneManager.obj
 0001:00058a60       ??0RuneManager@@IAE@XZ     00459a60 f i RuneManager.obj
 0001:00058aa0       ?_Calculate_growth@?$vector@PAVRune@@V?$allocator@PAVRune@@@std@@@std@@ABEII@Z 00459aa0 f i RuneManager.obj
 0001:00058b10       ?_Change_array@?$vector@PAVRune@@V?$allocator@PAVRune@@@std@@@std@@AAEXQAPAVRune@@II@Z 00459b10 f i RuneManager.obj
 0001:00058be0       ?_Orphan_range@?$vector@PAVRune@@V?$allocator@PAVRune@@@std@@@std@@ABEXPAPAVRune@@0@Z 00459be0 f i RuneManager.obj
 0001:00058c80       ?_Umove@?$vector@PAVRune@@V?$allocator@PAVRune@@@std@@@std@@AAEPAPAVRune@@PAPAV3@00@Z 00459c80 f i RuneManager.obj
 0001:00058cc0       ?_Umove_if_noexcept1@?$vector@PAVRune@@V?$allocator@PAVRune@@@std@@@std@@AAEXPAPAVRune@@00U?$integral_constant@_N$00@2@@Z 00459cc0 f i RuneManager.obj
 0001:00058d00       ?_Umove_if_noexcept@?$vector@PAVRune@@V?$allocator@PAVRune@@@std@@@std@@AAEXPAPAVRune@@00@Z 00459d00 f i RuneManager.obj
 0001:00058d40       ?_Xlength@?$vector@PAVRune@@V?$allocator@PAVRune@@@std@@@std@@CAXXZ 00459d40 f i RuneManager.obj
 0001:00058d60       ?capacity@?$vector@PAVRune@@V?$allocator@PAVRune@@@std@@@std@@QBEIXZ 00459d60 f i RuneManager.obj
 0001:00058d90       ?max_size@?$_Default_allocator_traits@V?$allocator@PAVRune@@@std@@@std@@SAIABV?$allocator@PAVRune@@@2@@Z 00459d90 f i RuneManager.obj
 0001:00058da0       ?max_size@?$vector@PAVRune@@V?$allocator@PAVRune@@@std@@@std@@QBEIXZ 00459da0 f i RuneManager.obj
 0001:00058df0       ?push_back@?$vector@PAVRune@@V?$allocator@PAVRune@@@std@@@std@@QAEX$$QAPAVRune@@@Z 00459df0 f i RuneManager.obj
 0001:00058e20       ??0SceneBG@@QAE@XZ         00459e20 f   SceneBG.obj
